Certificate:
    Data:
        Version: 3 (0x2)
        Serial Number:
            2c:ef:38:16:1c:37:77:c4:c5:fe:42:10:41:a7:7f:d8
        Signature Algorithm: sha256WithRSAEncryption
        Issuer: CN=vpn
        Validity
            Not Before: Mar 13 14:14:32 2019 GMT
            Not After : Feb 25 14:14:32 2022 GMT
        Subject: CN=ldap
        Subject Public Key Info:
            Public Key Algorithm: rsaEncryption
                RSA Public-Key: (4096 bit)
                Modulus:
                    00:c7:de:58:ff:19:b6:3f:f4:60:08:17:38:3a:cd:
                    44:63:4e:c2:29:49:ce:60:e5:de:35:69:c9:a9:af:
                    87:34:e3:14:c8:6d:6b:28:30:d4:77:b7:76:8f:76:
                    04:55:b6:95:e1:98:9a:79:e0:93:24:05:65:1d:70:
                    c6:a9:e0:b5:39:69:f9:a6:5e:3f:64:58:85:26:06:
                    27:8b:d1:68:26:39:a4:86:68:8a:96:46:55:f7:f9:
                    e7:9d:94:fe:a9:ca:88:b2:2a:21:f6:42:00:f8:47:
                    5a:52:99:82:fc:a0:00:b2:1f:6f:da:44:d4:8e:72:
                    a2:f3:fa:26:9a:a6:48:c7:da:b6:39:1e:9e:e7:72:
                    6a:1a:f6:86:13:50:bb:04:dd:4d:66:6c:d7:13:dc:
                    f6:42:74:bc:60:cc:d2:8d:9a:d4:09:f7:80:f4:87:
                    d4:00:27:e1:8f:b2:57:d8:0b:2d:d4:f4:8e:ad:74:
                    50:86:87:a0:df:e6:3f:70:ea:1f:73:74:34:86:9d:
                    d4:ab:02:14:49:c2:d0:8e:9c:48:54:15:e1:e5:74:
                    4a:7d:67:98:bf:4d:2b:b2:d2:44:0c:36:65:48:6a:
                    d6:20:e4:76:c7:94:ab:94:c3:44:17:43:b6:9f:24:
                    7c:91:21:ec:f9:81:1c:f0:21:9e:d8:c7:1f:02:fc:
                    6d:49:5b:d0:fa:5f:72:5a:92:8b:cb:7d:38:06:f8:
                    11:8c:0c:3f:1c:2a:4d:52:68:e7:57:ea:d8:a9:a6:
                    4a:61:1f:2f:e2:31:21:12:b6:b9:4a:d0:5d:00:a3:
                    18:b6:df:59:51:05:95:79:93:99:57:59:a5:99:29:
                    a8:17:81:fe:7c:f9:fb:af:88:8b:d0:bf:77:23:ea:
                    e1:44:51:93:c8:94:9c:1e:72:59:8f:58:26:dc:b4:
                    59:07:71:4f:8c:45:d1:f4:0b:1c:fa:f8:d3:e1:3a:
                    95:57:ad:e4:d7:a7:6e:15:59:86:90:ba:b6:30:af:
                    80:01:18:7a:28:ca:5f:cc:b6:8e:3c:c6:e4:95:4e:
                    f1:10:a9:24:a9:3d:48:31:31:42:93:f4:fd:a4:b4:
                    55:95:0c:63:62:b9:65:2e:9d:f7:8f:3b:c3:79:54:
                    3d:52:ac:2f:d1:3e:0f:81:31:c4:8d:eb:1d:81:2c:
                    cd:21:ba:9a:3b:ee:ea:c7:3e:9f:20:ca:51:36:f7:
                    8b:14:7f:dd:ed:17:b8:c7:56:83:ad:f9:21:1c:18:
                    59:b5:2a:6f:8d:b3:e3:1f:33:af:57:d3:ee:81:4f:
                    95:55:69:f7:fb:3c:62:45:75:ca:92:b5:8c:5f:04:
                    ee:0b:f1:9d:ee:af:f7:a8:2f:5f:b4:0a:51:99:56:
                    0a:4b:27
                Exponent: 65537 (0x10001)
        X509v3 extensions:
            X509v3 Basic Constraints: 
                CA:FALSE
            X509v3 Subject Key Identifier: 
                AC:02:5C:30:60:26:AB:D1:58:AB:B5:DB:D7:5D:F0:89:57:A8:1D:20
            X509v3 Authority Key Identifier: 
                keyid:31:AE:56:6A:57:45:3B:7E:68:3D:E3:32:FC:3B:05:3C:1B:DE:14:9A
                DirName:/CN=vpn
                serial:7B:C1:6C:CB:F3:37:F6:9A:51:E6:33:06:37:4A:DF:3F:66:1F:6D:87

            X509v3 Extended Key Usage: 
                TLS Web Server Authentication
            X509v3 Key Usage: 
                Digital Signature, Key Encipherment
            X509v3 Subject Alternative Name: 
                DNS:ldap
    Signature Algorithm: sha256WithRSAEncryption
         8b:84:90:0d:09:72:f2:03:42:45:76:81:3b:52:0c:80:57:26:
         f7:3a:f1:23:8a:05:33:38:0c:7c:23:e8:a6:ee:76:c5:c5:cf:
         d3:4a:bd:20:45:59:bc:ca:77:3e:46:23:66:31:fb:11:b9:87:
         16:99:1c:b8:88:3f:9b:fc:59:94:44:34:75:6b:a3:67:1a:f6:
         3c:cf:20:ab:94:93:15:7f:4f:a9:c2:10:c6:0f:b4:15:d8:25:
         31:26:fe:73:e3:e3:08:6e:1c:c6:26:54:60:7c:a9:c1:17:ff:
         1b:47:75:2b:59:9f:15:d2:6f:5f:3d:2f:2d:f2:3b:6c:90:d8:
         6a:54:77:eb:89:84:14:41:6a:d1:04:f6:13:34:aa:c4:9e:04:
         ba:4d:6d:ba:8a:c1:49:5b:60:65:0e:87:63:a8:ec:cd:b8:6a:
         10:8c:c2:ff:a3:55:61:3b:47:b4:54:16:22:64:2a:43:7f:35:
         54:92:b7:ed:8a:1c:88:54:19:65:41:2c:91:1d:82:de:3b:9d:
         c9:11:e1:5e:62:0f:a4:0b:cf:58:a8:14:a7:c9:04:e0:ca:a9:
         b9:38:97:30:95:84:f2:28:a5:ab:1d:5b:3c:1a:2b:eb:dc:98:
         53:f2:b6:b7:bf:bc:97:9c:b7:73:59:1b:03:86:e9:20:40:5e:
         fd:cb:fd:ec:8a:f1:2a:6e:6d:80:12:08:6c:05:f9:69:b1:b3:
         59:76:c0:8a:92:ad:5a:5c:e1:5e:fa:17:fc:08:6f:b1:61:aa:
         24:db:b7:34:12:d9:be:19:d5:7c:09:da:64:fe:2d:25:29:d6:
         eb:a0:23:06:67:31:c7:4d:47:54:22:8b:d8:77:3d:18:43:2e:
         72:99:77:38:ee:41:db:5d:45:e8:90:c9:de:25:d2:ab:d3:e1:
         ce:08:f0:81:e7:13:3c:64:42:70:f9:3e:cb:ae:a1:64:f8:25:
         83:a9:fa:74:bd:1b:ac:26:f9:20:cb:41:a0:1c:c2:c5:20:60:
         8b:e2:b4:f7:00:b2:c8:f2:9e:9a:e0:9b:19:4b:78:55:b2:fe:
         1b:69:22:44:31:01:f2:c7:ed:74:97:2b:da:2c:e7:df:e1:46:
         60:f3:4c:fc:07:36:b4:36:c7:69:31:a3:7e:cb:0d:61:45:7a:
         97:7e:d3:83:f4:d8:9b:80:78:c1:4c:de:ea:71:13:33:e7:5b:
         0d:a4:db:cb:d3:8e:e6:92:13:4e:5f:3c:37:30:38:9a:41:9c:
         bb:83:f3:91:05:29:31:fc:38:85:41:ec:6a:88:e0:99:9f:0c:
         f9:4c:ae:5c:3d:03:e8:9a:9d:2a:52:f6:0e:93:26:15:df:b2:
         1e:b7:13:43:85:59:bd:bc
-----BEGIN CERTIFICATE-----
MIIFUzCCAzugAwIBAgIQLO84Fhw3d8TF/kIQQad/2DANBgkqhkiG9w0BAQsFADAO
MQwwCgYDVQQDDAN2cG4wHhcNMTkwMzEzMTQxNDMyWhcNMjIwMjI1MTQxNDMyWjAP
MQ0wCwYDVQQDDARsZGFwMIICIjANBgkqhkiG9w0BAQEFAAOCAg8AMIICCgKCAgEA
x95Y/xm2P/RgCBc4Os1EY07CKUnOYOXeNWnJqa+HNOMUyG1rKDDUd7d2j3YEVbaV
4ZiaeeCTJAVlHXDGqeC1OWn5pl4/ZFiFJgYni9FoJjmkhmiKlkZV9/nnnZT+qcqI
sioh9kIA+EdaUpmC/KAAsh9v2kTUjnKi8/ommqZIx9q2OR6e53JqGvaGE1C7BN1N
ZmzXE9z2QnS8YMzSjZrUCfeA9IfUACfhj7JX2Ast1PSOrXRQhoeg3+Y/cOofc3Q0
hp3UqwIUScLQjpxIVBXh5XRKfWeYv00rstJEDDZlSGrWIOR2x5SrlMNEF0O2nyR8
kSHs+YEc8CGe2McfAvxtSVvQ+l9yWpKLy304BvgRjAw/HCpNUmjnV+rYqaZKYR8v
4jEhEra5StBdAKMYtt9ZUQWVeZOZV1mlmSmoF4H+fPn7r4iL0L93I+rhRFGTyJSc
HnJZj1gm3LRZB3FPjEXR9Asc+vjT4TqVV63k16duFVmGkLq2MK+AARh6KMpfzLaO
PMbklU7xEKkkqT1IMTFCk/T9pLRVlQxjYrllLp33jzvDeVQ9Uqwv0T4PgTHEjesd
gSzNIbqaO+7qxz6fIMpRNveLFH/d7Re4x1aDrfkhHBhZtSpvjbPjHzOvV9PugU+V
VWn3+zxiRXXKkrWMXwTuC/Gd7q/3qC9ftApRmVYKSycCAwEAAaOBqzCBqDAJBgNV
HRMEAjAAMB0GA1UdDgQWBBSsAlwwYCar0VirtdvXXfCJV6gdIDBJBgNVHSMEQjBA
gBQxrlZqV0U7fmg94zL8OwU8G94UmqESpBAwDjEMMAoGA1UEAwwDdnBughR7wWzL
8zf2mlHmMwY3St8/Zh9thzATBgNVHSUEDDAKBggrBgEFBQcDATALBgNVHQ8EBAMC
BaAwDwYDVR0RBAgwBoIEbGRhcDANBgkqhkiG9w0BAQsFAAOCAgEAi4SQDQly8gNC
RXaBO1IMgFcm9zrxI4oFMzgMfCPopu52xcXP00q9IEVZvMp3PkYjZjH7EbmHFpkc
uIg/m/xZlEQ0dWujZxr2PM8gq5STFX9PqcIQxg+0FdglMSb+c+PjCG4cxiZUYHyp
wRf/G0d1K1mfFdJvXz0vLfI7bJDYalR364mEFEFq0QT2EzSqxJ4Euk1tuorBSVtg
ZQ6HY6jszbhqEIzC/6NVYTtHtFQWImQqQ381VJK37YociFQZZUEskR2C3judyRHh
XmIPpAvPWKgUp8kE4MqpuTiXMJWE8iilqx1bPBor69yYU/K2t7+8l5y3c1kbA4bp
IEBe/cv97IrxKm5tgBIIbAX5abGzWXbAipKtWlzhXvoX/AhvsWGqJNu3NBLZvhnV
fAnaZP4tJSnW66AjBmcxx01HVCKL2Hc9GEMucpl3OO5B211F6JDJ3iXSq9Phzgjw
gecTPGRCcPk+y66hZPglg6n6dL0brCb5IMtBoBzCxSBgi+K09wCyyPKemuCbGUt4
VbL+G2kiRDEB8sftdJcr2izn3+FGYPNM/Ac2tDbHaTGjfssNYUV6l37Tg/TYm4B4
wUze6nETM+dbDaTby9OO5pITTl88NzA4mkGcu4PzkQUpMfw4hUHsaojgmZ8M+Uyu
XD0D6JqdKlL2DpMmFd+yHrcTQ4VZvbw=
-----END CERTIFICATE-----
