Certificate:
    Data:
        Version: 3 (0x2)
        Serial Number:
            a1:b3:7f:28:25:42:68:4d:8d:29:92:ef:00:05:d9:0a
        Signature Algorithm: sha256WithRSAEncryption
        Issuer: CN=vpn
        Validity
            Not Before: Mar 13 14:19:21 2019 GMT
            Not After : Feb 25 14:19:21 2022 GMT
        Subject: CN=vpn
        Subject Public Key Info:
            Public Key Algorithm: rsaEncryption
                RSA Public-Key: (4096 bit)
                Modulus:
                    00:ac:4b:84:d2:b5:c6:99:64:a7:f1:38:b4:04:50:
                    a5:a4:ad:35:cb:ec:52:2f:76:b8:6e:e5:55:ea:8f:
                    2c:67:f7:08:f2:05:8c:ac:7b:d3:67:57:d1:64:4e:
                    f8:55:fa:7b:a2:57:05:fc:64:af:08:0c:49:17:e0:
                    89:e3:c3:8d:86:fd:40:1c:07:72:98:49:64:a7:48:
                    83:d5:2a:4f:4a:21:e6:d2:91:f9:e9:34:3e:2c:33:
                    73:3d:57:cb:ec:d1:a3:18:fb:56:6f:ff:09:37:1d:
                    f3:5d:77:dc:d5:72:bf:e9:94:69:1c:df:d0:08:45:
                    5a:f7:97:b7:03:3b:45:28:0d:df:f4:b4:9a:7b:28:
                    23:c1:db:ef:51:e4:40:1f:9d:33:42:20:e9:65:0f:
                    23:16:79:a5:c8:b3:02:59:d3:5c:0c:a5:81:21:76:
                    f7:93:7e:39:ca:a8:62:09:ee:c3:f1:0d:64:a3:52:
                    d1:00:ad:53:14:ea:ea:5e:ef:34:04:cc:cb:dd:9a:
                    4d:f5:81:99:1c:cc:e2:aa:84:d4:9d:56:cd:cf:91:
                    52:4f:0f:8f:9c:26:4c:1e:a2:ad:4b:29:ee:c7:3c:
                    57:f8:b6:45:46:db:6d:65:13:ad:42:96:80:ad:d9:
                    f7:6e:90:5d:69:0e:59:df:54:e6:af:fb:b6:7a:02:
                    e6:9a:56:2a:ec:46:75:e5:64:b3:d1:31:37:e8:76:
                    be:60:dc:a3:ae:23:34:09:a2:22:70:a9:5b:af:03:
                    63:a1:0e:7c:f4:03:5a:98:6e:ed:03:6b:4e:12:14:
                    5a:0e:2d:e9:cc:5e:e8:e6:f1:19:66:06:53:a3:1b:
                    ca:ba:c8:cd:b0:84:51:17:7d:9d:7d:d4:b5:c4:68:
                    b7:0a:f3:b7:0a:bf:2f:f7:68:78:cb:9d:68:cc:7e:
                    50:cf:5e:d8:25:40:d8:c9:25:d0:b1:21:72:4f:96:
                    c9:6b:bf:06:2d:42:58:47:31:df:08:c7:5a:9c:d2:
                    05:22:3d:cc:1b:98:20:70:e1:52:cd:2a:9c:75:69:
                    3b:01:9a:ee:0e:c5:e4:ba:75:73:fb:74:99:64:a4:
                    5c:1a:7a:ce:f1:cb:63:d4:c2:53:0e:b8:0a:45:39:
                    e8:60:15:df:17:6a:c3:9e:1c:52:21:0e:78:67:76:
                    d8:c6:a8:b7:da:18:3f:48:c2:de:af:f6:91:c4:4e:
                    eb:d8:c6:af:3c:4d:f9:6d:5b:ed:fb:ad:ff:46:86:
                    ea:ab:d4:75:0a:1a:bf:30:40:ae:36:be:4e:c2:41:
                    cf:3f:83:ca:ee:06:58:c7:72:26:e6:49:57:7f:52:
                    29:08:0a:f6:49:98:9d:d9:72:71:d6:bb:5f:6c:96:
                    ee:ff:9f
                Exponent: 65537 (0x10001)
        X509v3 extensions:
            X509v3 Basic Constraints: 
                CA:FALSE
            X509v3 Subject Key Identifier: 
                48:8E:45:C0:D3:AE:6A:1A:48:73:89:BD:BB:4A:46:18:6F:D8:0E:85
            X509v3 Authority Key Identifier: 
                keyid:31:AE:56:6A:57:45:3B:7E:68:3D:E3:32:FC:3B:05:3C:1B:DE:14:9A
                DirName:/CN=vpn
                serial:7B:C1:6C:CB:F3:37:F6:9A:51:E6:33:06:37:4A:DF:3F:66:1F:6D:87

            X509v3 Extended Key Usage: 
                TLS Web Server Authentication
            X509v3 Key Usage: 
                Digital Signature, Key Encipherment
            X509v3 Subject Alternative Name: 
                DNS:vpn
    Signature Algorithm: sha256WithRSAEncryption
         40:a0:8b:4e:eb:8b:8c:57:c0:f1:25:82:3a:3b:27:e7:5e:98:
         03:24:c9:b7:7f:f4:31:66:a6:3d:28:b2:bd:fd:d1:27:a2:e1:
         77:c5:ce:71:9f:97:a5:2a:90:78:5d:59:25:e2:8e:a3:d5:ef:
         67:de:47:24:5d:8f:c2:43:ae:27:c7:71:78:a6:b3:16:be:7f:
         63:f2:59:44:e3:82:e4:19:f9:7d:4d:64:cc:56:ac:c7:15:9e:
         e1:fe:46:d9:b3:f1:96:b9:22:98:aa:ff:e2:72:95:dc:f7:a8:
         bd:67:b1:72:f7:ce:ab:ab:f9:95:7e:71:b5:17:95:27:f7:10:
         33:4f:c0:f6:49:b3:18:4a:35:d1:9d:08:c5:b4:f2:d7:5e:2f:
         b6:95:39:38:25:bc:1b:ec:d2:e8:b2:eb:5a:4f:1e:b6:86:12:
         08:a1:d1:70:ec:e1:ff:95:81:f9:d4:ed:c2:f3:85:d7:43:1a:
         bf:fc:38:a0:21:13:23:4a:7c:0e:74:20:68:31:34:07:25:18:
         64:9b:d0:98:1e:52:81:16:90:a2:fe:a0:ae:a4:96:50:2f:17:
         28:1c:f2:5e:56:da:12:b3:00:1d:0f:a3:5c:58:5f:37:b6:b2:
         72:f2:43:0b:d5:03:16:6d:7e:49:46:01:2f:eb:e1:bd:ce:2e:
         6e:d8:ae:59:50:1f:48:79:01:8b:72:6b:21:cd:b5:ca:8a:27:
         55:c3:8f:fd:a6:b8:9c:bb:44:fe:a6:84:71:e5:f2:19:c5:e6:
         6c:93:10:49:ba:33:2a:89:16:62:39:53:10:41:41:49:3c:a8:
         eb:e4:6a:2c:47:63:b3:ee:3f:07:4d:b9:e8:bd:77:47:92:77:
         9d:72:a9:9f:34:9e:7b:36:c0:94:1a:9b:07:ed:c1:87:8f:6d:
         09:41:a4:b4:b2:29:28:93:28:8e:63:16:2f:f9:fd:05:bf:4b:
         c2:d2:1b:d9:c1:ff:eb:68:3b:9e:bb:b4:2e:7a:91:4f:82:a9:
         31:a3:e7:77:37:bd:46:16:82:74:8b:d8:5b:2a:0e:bb:34:84:
         1f:0c:d8:bf:53:ea:2f:9a:28:65:5b:df:31:b8:20:82:ec:97:
         23:c1:36:ca:8e:55:4c:61:0e:8d:58:ef:3c:b2:92:45:ed:40:
         40:d1:40:db:11:ab:0c:f1:78:21:84:65:f6:e6:f7:81:73:74:
         17:fc:6d:5a:d2:f0:cb:28:77:2f:1a:b5:42:e8:02:13:15:55:
         79:0f:2a:41:6c:22:57:29:4c:1d:47:7e:17:94:90:06:a0:aa:
         e9:58:b1:38:75:55:4f:09:22:e2:40:a1:63:fa:e6:73:2f:39:
         d3:b8:33:2c:5b:e7:eb:b2
-----BEGIN CERTIFICATE-----
MIIFUjCCAzqgAwIBAgIRAKGzfyglQmhNjSmS7wAF2QowDQYJKoZIhvcNAQELBQAw
DjEMMAoGA1UEAwwDdnBuMB4XDTE5MDMxMzE0MTkyMVoXDTIyMDIyNTE0MTkyMVow
DjEMMAoGA1UEAwwDdnBuMIICIjANBgkqhkiG9w0BAQEFAAOCAg8AMIICCgKCAgEA
rEuE0rXGmWSn8Ti0BFClpK01y+xSL3a4buVV6o8sZ/cI8gWMrHvTZ1fRZE74Vfp7
olcF/GSvCAxJF+CJ48ONhv1AHAdymElkp0iD1SpPSiHm0pH56TQ+LDNzPVfL7NGj
GPtWb/8JNx3zXXfc1XK/6ZRpHN/QCEVa95e3AztFKA3f9LSaeygjwdvvUeRAH50z
QiDpZQ8jFnmlyLMCWdNcDKWBIXb3k345yqhiCe7D8Q1ko1LRAK1TFOrqXu80BMzL
3ZpN9YGZHMziqoTUnVbNz5FSTw+PnCZMHqKtSynuxzxX+LZFRtttZROtQpaArdn3
bpBdaQ5Z31Tmr/u2egLmmlYq7EZ15WSz0TE36Ha+YNyjriM0CaIicKlbrwNjoQ58
9ANamG7tA2tOEhRaDi3pzF7o5vEZZgZToxvKusjNsIRRF32dfdS1xGi3CvO3Cr8v
92h4y51ozH5Qz17YJUDYySXQsSFyT5bJa78GLUJYRzHfCMdanNIFIj3MG5ggcOFS
zSqcdWk7AZruDsXkunVz+3SZZKRcGnrO8ctj1MJTDrgKRTnoYBXfF2rDnhxSIQ54
Z3bYxqi32hg/SMLer/aRxE7r2MavPE35bVvt+63/Robqq9R1Chq/MECuNr5OwkHP
P4PK7gZYx3Im5klXf1IpCAr2SZid2XJx1rtfbJbu/58CAwEAAaOBqjCBpzAJBgNV
HRMEAjAAMB0GA1UdDgQWBBRIjkXA065qGkhzib27SkYYb9gOhTBJBgNVHSMEQjBA
gBQxrlZqV0U7fmg94zL8OwU8G94UmqESpBAwDjEMMAoGA1UEAwwDdnBughR7wWzL
8zf2mlHmMwY3St8/Zh9thzATBgNVHSUEDDAKBggrBgEFBQcDATALBgNVHQ8EBAMC
BaAwDgYDVR0RBAcwBYIDdnBuMA0GCSqGSIb3DQEBCwUAA4ICAQBAoItO64uMV8Dx
JYI6OyfnXpgDJMm3f/QxZqY9KLK9/dEnouF3xc5xn5elKpB4XVkl4o6j1e9n3kck
XY/CQ64nx3F4prMWvn9j8llE44LkGfl9TWTMVqzHFZ7h/kbZs/GWuSKYqv/icpXc
96i9Z7Fy986rq/mVfnG1F5Un9xAzT8D2SbMYSjXRnQjFtPLXXi+2lTk4Jbwb7NLo
sutaTx62hhIIodFw7OH/lYH51O3C84XXQxq//DigIRMjSnwOdCBoMTQHJRhkm9CY
HlKBFpCi/qCupJZQLxcoHPJeVtoSswAdD6NcWF83trJy8kML1QMWbX5JRgEv6+G9
zi5u2K5ZUB9IeQGLcmshzbXKiidVw4/9pricu0T+poRx5fIZxeZskxBJujMqiRZi
OVMQQUFJPKjr5GosR2Oz7j8HTbnovXdHknedcqmfNJ57NsCUGpsH7cGHj20JQaS0
sikokyiOYxYv+f0Fv0vC0hvZwf/raDueu7QuepFPgqkxo+d3N71GFoJ0i9hbKg67
NIQfDNi/U+ovmihlW98xuCCC7JcjwTbKjlVMYQ6NWO88spJF7UBA0UDbEasM8Xgh
hGX25veBc3QX/G1a0vDLKHcvGrVC6AITFVV5DypBbCJXKUwdR34XlJAGoKrpWLE4
dVVPCSLiQKFj+uZzLznTuDMsW+frsg==
-----END CERTIFICATE-----
