Certificate:
    Data:
        Version: 3 (0x2)
        Serial Number:
            09:c9:0e:93:6f:a5:3b:f4:a7:76:52:5e:9a:4c:16:3d
        Signature Algorithm: sha256WithRSAEncryption
        Issuer: CN=vpn.jenkins.io
        Validity
            Not Before: Dec  4 11:06:11 2023 GMT
            Not After : Nov 18 11:06:11 2026 GMT
        Subject: CN=dduportal
        Subject Public Key Info:
            Public Key Algorithm: rsaEncryption
                Public-Key: (4096 bit)
                Modulus:
                    00:b4:09:75:15:37:c5:26:68:b2:ca:4e:ab:34:f2:
                    ff:33:4f:4c:33:22:ec:f7:21:6e:cc:c2:fc:d3:28:
                    d1:60:60:5c:1a:5d:a2:4a:1a:38:5e:c9:95:9d:05:
                    a1:ad:da:73:56:ca:17:a2:b9:f6:fa:b1:3a:37:73:
                    60:f6:ef:a0:9d:41:28:e8:db:69:11:9a:70:11:3a:
                    b1:51:60:c3:f9:2c:c1:df:4c:3f:46:df:f6:1f:f9:
                    0f:29:c1:94:13:06:f5:88:d5:e7:f1:e4:a5:22:d8:
                    11:c9:95:77:22:58:8f:7f:5c:fb:d9:f3:c5:ba:e1:
                    12:78:84:06:53:25:29:89:1a:0a:2c:48:9c:4d:ca:
                    46:c0:b0:bf:83:87:25:3a:ac:68:cc:34:11:03:3a:
                    db:13:97:b7:48:02:2d:9d:9c:94:1f:6c:27:db:5c:
                    c0:f8:ee:c3:fe:51:52:d5:d9:12:81:7d:5a:66:89:
                    1a:62:79:54:f8:9b:af:99:cf:51:3e:ed:f8:d7:3f:
                    ea:ac:84:a0:9b:8f:7b:9b:98:a0:8a:ba:07:39:3d:
                    07:bc:5f:93:6f:6c:40:88:dd:71:a5:e8:c1:07:85:
                    fa:6b:da:41:9d:6f:5b:ef:b2:7e:18:33:6f:14:4c:
                    58:0d:9c:2e:bb:98:6c:94:46:f4:8b:e5:d0:75:18:
                    7f:f4:c4:5e:5d:ba:48:b3:bd:63:72:d0:b0:fe:87:
                    d9:dc:59:ed:dd:a0:72:61:17:c9:81:6e:37:ca:23:
                    88:01:6b:e0:f7:f6:82:ab:1d:60:fd:a1:6e:67:3a:
                    ee:0a:25:fe:02:4f:86:ea:25:1f:09:2a:9e:a5:d4:
                    80:d7:dc:cb:2f:ae:6b:ca:fe:41:1b:07:0b:a9:c3:
                    d3:d0:ea:f7:fa:c2:bc:a2:ea:21:fb:49:da:39:7a:
                    47:54:7d:1c:ef:76:41:9e:1b:0b:80:2f:b3:fa:04:
                    a6:ee:95:7c:77:d7:7a:e7:83:ec:2f:9b:d1:21:5a:
                    48:4a:54:10:cd:23:23:a2:a9:9b:21:8a:69:c4:96:
                    9c:4d:b6:93:03:5e:89:48:bb:5a:a4:57:76:58:61:
                    bd:36:da:a5:93:53:37:36:00:2f:fd:1f:e4:57:f0:
                    1e:ac:3a:f6:88:9a:f7:bc:9f:54:09:29:c8:13:6b:
                    91:4c:1f:b1:60:6f:a1:38:b2:34:35:38:19:bd:65:
                    c2:18:ec:4c:82:2a:68:21:7b:82:7c:31:93:28:6f:
                    d1:1c:8f:b0:4f:d4:60:13:32:d9:5c:4e:5f:1c:06:
                    c9:fd:2d:87:63:13:b1:5a:1a:65:f9:5b:60:3f:26:
                    ae:1a:6c:68:0e:b4:94:64:ac:bd:17:ae:90:cd:90:
                    db:69:a3
                Exponent: 65537 (0x10001)
        X509v3 extensions:
            X509v3 Basic Constraints: 
                CA:FALSE
            X509v3 Subject Key Identifier: 
                B0:57:42:12:FD:7C:44:B9:EC:D7:8D:5F:50:4F:FB:A9:FA:CE:20:DF
            X509v3 Authority Key Identifier: 
                keyid:87:A7:C5:75:37:0B:14:6C:BF:46:04:8C:2A:52:E9:5D:DA:51:DC:E6
                DirName:/CN=vpn.jenkins.io
                serial:08:01:AA:6D:1B:31:40:4F:7B:9C:75:54:54:78:B5:36:65:3B:7C:B3
            X509v3 Extended Key Usage: 
                TLS Web Client Authentication
            X509v3 Key Usage: 
                Digital Signature
    Signature Algorithm: sha256WithRSAEncryption
    Signature Value:
        7e:3c:7c:32:8e:0a:a8:7b:99:81:4d:1a:a4:8a:b2:ca:35:c6:
        59:c3:24:d8:41:63:83:13:92:d5:71:7b:d3:1a:e1:e1:d4:e0:
        d8:09:63:83:99:bf:58:a2:ee:9e:82:87:18:ef:6c:bb:71:66:
        a4:96:1e:b4:2b:34:c0:47:4e:66:3c:93:82:6f:60:77:ac:28:
        8d:7b:af:bd:46:07:6e:b9:6a:e8:92:f1:4b:21:7a:01:d2:f3:
        ce:92:83:8f:d3:db:00:cd:d4:33:a1:1e:c6:c5:54:79:29:2f:
        1a:d4:61:99:e8:32:b6:e2:45:d5:74:98:64:6c:e5:72:c7:5c:
        9d:69:1f:3d:c0:cd:0f:6b:0d:9a:c0:bf:e6:c3:35:14:06:33:
        00:0f:67:4b:88:56:e7:83:78:d5:e6:b2:8c:2d:6e:ea:2c:e9:
        b5:f0:97:b6:f1:2c:3b:5f:98:5f:56:04:44:e7:49:a2:b3:d8:
        fb:5a:06:49:3e:78:dd:b7:55:f4:9d:24:e8:15:a4:aa:99:90:
        69:19:89:19:13:24:84:c1:9e:b8:73:cf:36:bb:92:99:89:5d:
        1b:b7:73:44:28:0b:a9:40:ef:89:70:8a:64:36:26:a3:c4:52:
        eb:90:71:c0:0b:19:2c:c0:71:24:73:4b:8e:74:44:f0:c4:5f:
        70:0e:64:d5:6a:0c:a5:dc:b4:2d:fe:61:a1:10:32:4f:3e:bf:
        6c:15:e1:91:36:88:54:04:98:80:2f:65:52:1c:8e:9e:43:6c:
        d4:b7:19:26:bb:66:7b:d0:4e:be:e2:03:0d:82:6a:5f:f9:7a:
        d9:a9:67:cf:eb:db:0b:cb:fe:a9:0a:a6:5b:e3:8f:8c:5f:df:
        ed:b7:86:7e:58:0b:ed:cd:04:7d:1f:a1:b4:5a:33:c1:59:5d:
        af:6e:10:ea:8f:8d:78:ed:d8:b4:ef:d2:fb:01:0d:4d:b2:f7:
        fa:11:d0:dd:a6:ae:2a:d6:f6:f7:5b:0e:23:99:a8:8b:b3:25:
        f9:f6:e1:14:3d:a6:65:14:8a:10:2b:12:d1:dc:1f:56:07:02:
        6f:15:a6:06:9e:bf:5e:de:b9:3b:2b:82:00:1d:01:48:1a:99:
        b0:e3:e8:2f:05:94:65:b0:ba:03:63:e7:16:49:00:18:f2:85:
        6e:99:1c:43:36:83:7d:89:93:4a:49:e2:cd:4c:79:45:49:90:
        29:af:35:12:a8:43:24:5a:f6:f3:8e:2a:6f:a9:90:94:8a:3c:
        ae:5a:9c:7e:4e:7a:1e:a7:3a:d4:51:1e:57:b5:ee:f5:37:3d:
        34:af:15:d4:c5:83:20:7a:dd:a7:bb:ab:47:66:0c:62:57:c0:
        17:b8:09:10:f9:d7:80:44
-----BEGIN CERTIFICATE-----
MIIFXTCCA0WgAwIBAgIQCckOk2+lO/SndlJemkwWPTANBgkqhkiG9w0BAQsFADAZ
MRcwFQYDVQQDDA52cG4uamVua2lucy5pbzAeFw0yMzEyMDQxMTA2MTFaFw0yNjEx
MTgxMTA2MTFaMBQxEjAQBgNVBAMMCWRkdXBvcnRhbDCCAiIwDQYJKoZIhvcNAQEB
BQADggIPADCCAgoCggIBALQJdRU3xSZosspOqzTy/zNPTDMi7PchbszC/NMo0WBg
XBpdokoaOF7JlZ0Foa3ac1bKF6K59vqxOjdzYPbvoJ1BKOjbaRGacBE6sVFgw/ks
wd9MP0bf9h/5DynBlBMG9YjV5/HkpSLYEcmVdyJYj39c+9nzxbrhEniEBlMlKYka
CixInE3KRsCwv4OHJTqsaMw0EQM62xOXt0gCLZ2clB9sJ9tcwPjuw/5RUtXZEoF9
WmaJGmJ5VPibr5nPUT7t+Nc/6qyEoJuPe5uYoIq6Bzk9B7xfk29sQIjdcaXowQeF
+mvaQZ1vW++yfhgzbxRMWA2cLruYbJRG9Ivl0HUYf/TEXl26SLO9Y3LQsP6H2dxZ
7d2gcmEXyYFuN8ojiAFr4Pf2gqsdYP2hbmc67gol/gJPhuolHwkqnqXUgNfcyy+u
a8r+QRsHC6nD09Dq9/rCvKLqIftJ2jl6R1R9HO92QZ4bC4Avs/oEpu6VfHfXeueD
7C+b0SFaSEpUEM0jI6KpmyGKacSWnE22kwNeiUi7WqRXdlhhvTbapZNTNzYAL/0f
5FfwHqw69oia97yfVAkpyBNrkUwfsWBvoTiyNDU4Gb1lwhjsTIIqaCF7gnwxkyhv
0RyPsE/UYBMy2VxOXxwGyf0th2MTsVoaZflbYD8mrhpsaA60lGSsvReukM2Q22mj
AgMBAAGjgaUwgaIwCQYDVR0TBAIwADAdBgNVHQ4EFgQUsFdCEv18RLns141fUE/7
qfrOIN8wVAYDVR0jBE0wS4AUh6fFdTcLFGy/RgSMKlLpXdpR3OahHaQbMBkxFzAV
BgNVBAMMDnZwbi5qZW5raW5zLmlvghQIAaptGzFAT3ucdVRUeLU2ZTt8szATBgNV
HSUEDDAKBggrBgEFBQcDAjALBgNVHQ8EBAMCB4AwDQYJKoZIhvcNAQELBQADggIB
AH48fDKOCqh7mYFNGqSKsso1xlnDJNhBY4MTktVxe9Ma4eHU4NgJY4OZv1ii7p6C
hxjvbLtxZqSWHrQrNMBHTmY8k4JvYHesKI17r71GB265auiS8UshegHS886Sg4/T
2wDN1DOhHsbFVHkpLxrUYZnoMrbiRdV0mGRs5XLHXJ1pHz3AzQ9rDZrAv+bDNRQG
MwAPZ0uIVueDeNXmsowtbuos6bXwl7bxLDtfmF9WBETnSaKz2PtaBkk+eN23VfSd
JOgVpKqZkGkZiRkTJITBnrhzzza7kpmJXRu3c0QoC6lA74lwimQ2JqPEUuuQccAL
GSzAcSRzS450RPDEX3AOZNVqDKXctC3+YaEQMk8+v2wV4ZE2iFQEmIAvZVIcjp5D
bNS3GSa7ZnvQTr7iAw2Cal/5etmpZ8/r2wvL/qkKplvjj4xf3+23hn5YC+3NBH0f
obRaM8FZXa9uEOqPjXjt2LTv0vsBDU2y9/oR0N2mrirW9vdbDiOZqIuzJfn24RQ9
pmUUihArEtHcH1YHAm8Vpgaev17euTsrggAdAUgambDj6C8FlGWwugNj5xZJABjy
hW6ZHEM2g32Jk0pJ4s1MeUVJkCmvNRKoQyRa9vOOKm+pkJSKPK5anH5Oeh6nOtRR
Hle17vU3PTSvFdTFgyB63ae7q0dmDGJXwBe4CRD514BE
-----END CERTIFICATE-----
