Certificate:
    Data:
        Version: 3 (0x2)
        Serial Number:
            0d:55:b3:aa:26:d8:5d:8f:0e:8e:26:39:1d:c0:35:bc
    Signature Algorithm: sha256WithRSAEncryption
        Issuer: CN=vpn.jenkins.io
        Validity
            Not Before: Jun 12 08:03:29 2023 GMT
            Not After : May 27 08:03:29 2026 GMT
        Subject: CN=markewaite
        Subject Public Key Info:
            Public Key Algorithm: rsaEncryption
                RSA Public-Key: (4096 bit)
                Modulus:
                    00:ac:98:07:f6:3c:e0:68:6a:b6:85:fc:0e:26:06:
                    7b:61:16:09:28:f9:b7:49:26:88:57:2e:42:19:0e:
                    59:5f:61:72:3e:d1:54:4c:62:c0:98:c9:21:92:7a:
                    cd:2c:72:e5:89:2c:ca:ce:74:9c:4a:8d:48:bb:d8:
                    27:74:7c:b5:60:2b:20:80:fb:e4:a8:18:72:c0:c6:
                    86:fa:92:91:6b:c2:4a:74:79:03:a7:6c:09:78:b3:
                    03:ac:a0:b9:ce:5a:e5:35:14:78:64:04:8b:53:e8:
                    ab:eb:cf:b8:35:fb:7c:e2:0a:51:b3:bf:ed:2f:86:
                    76:34:83:b5:0b:60:80:f1:40:f5:a0:30:28:22:dd:
                    b6:92:e6:04:27:df:3a:e7:f0:5c:03:29:09:ae:cc:
                    8c:d5:ab:55:b6:3d:52:ad:86:59:71:66:ee:2f:b8:
                    ca:98:0a:a4:05:87:38:91:58:99:a5:50:b2:09:f2:
                    5b:2b:d1:6a:38:30:a2:15:e1:3a:8d:ac:6d:f7:0d:
                    6d:7a:0a:68:24:ba:c3:a5:5d:86:15:32:68:61:59:
                    a1:d2:d8:5e:c5:b2:fc:10:49:4d:1d:1c:58:bc:5b:
                    cc:34:20:f9:f2:de:ad:92:45:71:77:67:0f:90:df:
                    87:29:27:03:af:25:f5:2f:e5:95:61:e4:e6:5c:b9:
                    f6:5d:2b:5b:52:a5:a4:67:67:21:1b:9d:c3:66:fc:
                    b7:0e:48:dd:dc:02:58:eb:2b:ca:1b:4b:40:1e:ec:
                    17:1d:9f:a9:da:78:40:43:6c:7e:4d:e0:61:41:0e:
                    a6:88:aa:22:48:5d:92:2c:0a:d7:8c:0c:dc:4f:eb:
                    91:91:da:93:ea:cc:f6:2c:ff:d0:d9:42:b2:24:2e:
                    4b:b9:86:65:e4:5e:4c:22:2f:f0:6c:4a:cc:de:82:
                    64:6a:78:b5:8b:df:9f:a4:7b:14:71:16:fc:6e:83:
                    25:22:6b:ca:c5:47:ff:29:cb:e8:04:b8:82:fd:44:
                    d1:f3:c3:e7:1b:31:b7:2b:2f:ba:19:1a:4c:c6:ad:
                    f5:53:78:83:27:87:02:19:a5:af:c2:b0:5d:e6:ae:
                    2c:f1:83:3f:b0:08:b8:0f:c5:f4:b3:bb:96:fe:68:
                    5f:7b:f3:7c:4e:45:a3:8a:35:d2:7f:b9:f5:84:15:
                    58:13:ab:64:6d:38:09:f0:8b:1b:dd:c8:9b:dd:a4:
                    bf:88:82:ae:88:24:09:0a:d5:5c:77:b6:02:c1:9d:
                    b8:4e:42:29:4e:97:35:46:01:39:21:32:5d:8f:7f:
                    e8:2e:df:5a:a2:77:05:8b:33:74:75:21:52:1c:f3:
                    bf:84:46:44:a9:f8:53:bb:01:4e:be:df:17:a5:8a:
                    e4:97:2d
                Exponent: 65537 (0x10001)
        X509v3 extensions:
            X509v3 Basic Constraints: 
                CA:FALSE
            X509v3 Subject Key Identifier: 
                A7:5F:4C:F4:52:3D:E4:3A:F0:49:32:85:CD:F3:8A:DD:2E:29:48:AD
            X509v3 Authority Key Identifier: 
                keyid:87:A7:C5:75:37:0B:14:6C:BF:46:04:8C:2A:52:E9:5D:DA:51:DC:E6
                DirName:/CN=vpn.jenkins.io
                serial:08:01:AA:6D:1B:31:40:4F:7B:9C:75:54:54:78:B5:36:65:3B:7C:B3

            X509v3 Extended Key Usage: 
                TLS Web Client Authentication
            X509v3 Key Usage: 
                Digital Signature
    Signature Algorithm: sha256WithRSAEncryption
         8d:40:26:dd:f7:68:80:82:a1:f4:4c:ad:68:29:e7:97:c2:0b:
         89:8e:d7:2b:e0:a7:8e:0c:0a:9a:8f:f4:72:b5:09:89:c1:5a:
         34:e6:d4:c1:47:c3:b9:1c:10:d7:e0:fb:69:32:9a:02:82:e1:
         1d:97:4b:d3:48:6f:35:d6:a7:f9:04:0b:3b:f1:47:15:05:8d:
         b8:dd:8f:58:03:55:3f:5c:c1:73:25:7c:06:7f:54:fc:3a:ce:
         4f:91:45:09:a0:7b:a1:0b:0c:02:74:3d:03:72:a0:b1:cc:c4:
         a9:e0:84:58:5f:a2:d3:ad:88:41:1a:c4:57:75:a9:00:7c:40:
         2c:bf:d7:01:24:59:c6:f3:f9:e5:22:a1:55:dc:5f:dd:63:d6:
         7a:05:b0:50:04:fe:1d:15:84:68:8b:90:f2:3b:06:bf:41:0b:
         62:9f:87:8d:9b:e6:ae:46:f5:ff:4b:b1:99:73:0e:b6:db:64:
         e9:00:6b:27:c7:52:e7:61:26:59:75:d5:3f:d4:27:d6:aa:7c:
         2e:ad:e4:67:4d:62:75:90:0d:d0:67:47:32:cc:62:4f:63:ee:
         57:9e:5f:ad:01:c1:32:a5:91:70:14:85:4f:bd:98:3e:33:a4:
         83:cc:72:9c:92:4b:97:84:76:6a:f8:ab:b4:91:2f:e4:b6:77:
         20:f4:12:c6:de:5f:f4:9d:84:0d:c2:a6:96:9c:a2:b0:e0:5b:
         84:58:46:3e:cc:d1:02:f6:53:de:54:aa:5d:bf:9b:c0:40:f5:
         0e:be:ed:1b:a9:20:45:ba:9c:06:e9:5f:3a:03:ff:5e:1e:b7:
         73:59:82:cb:4c:b7:66:5e:a7:99:4c:67:a6:2a:2d:16:8e:72:
         b3:b6:5c:68:cf:0e:3a:65:a4:69:81:0f:90:c9:d0:7a:73:23:
         82:8d:26:8b:f7:87:68:f5:fb:31:71:78:99:94:ac:fc:2b:91:
         75:4e:21:05:7a:24:ea:a8:e8:d9:1a:0f:b5:38:44:3d:4e:07:
         73:75:62:9e:f0:18:50:55:2e:eb:f3:92:19:5d:88:88:88:60:
         e5:24:02:ad:58:83:11:41:51:1d:a6:6a:74:42:ca:83:60:b4:
         cb:20:ec:06:55:79:8a:91:d1:b7:81:a9:78:d7:b0:2b:af:5d:
         7d:2c:ff:10:c8:6c:50:eb:bf:55:5e:0a:0e:01:fd:e6:8b:11:
         3d:71:e2:f2:a4:41:96:c0:0d:61:e2:ae:fe:a0:f5:7d:6a:8d:
         9f:f8:0e:6f:22:a4:46:34:f5:52:10:e1:8d:14:08:5b:93:e1:
         72:06:d6:3c:58:7b:79:89:bd:18:be:ad:db:2c:d0:a4:28:bf:
         70:30:97:50:7b:3a:a6:c5
-----BEGIN CERTIFICATE-----
MIIFXjCCA0agAwIBAgIQDVWzqibYXY8OjiY5HcA1vDANBgkqhkiG9w0BAQsFADAZ
MRcwFQYDVQQDDA52cG4uamVua2lucy5pbzAeFw0yMzA2MTIwODAzMjlaFw0yNjA1
MjcwODAzMjlaMBUxEzARBgNVBAMMCm1hcmtld2FpdGUwggIiMA0GCSqGSIb3DQEB
AQUAA4ICDwAwggIKAoICAQCsmAf2POBoaraF/A4mBnthFgko+bdJJohXLkIZDllf
YXI+0VRMYsCYySGSes0scuWJLMrOdJxKjUi72Cd0fLVgKyCA++SoGHLAxob6kpFr
wkp0eQOnbAl4swOsoLnOWuU1FHhkBItT6Kvrz7g1+3ziClGzv+0vhnY0g7ULYIDx
QPWgMCgi3baS5gQn3zrn8FwDKQmuzIzVq1W2PVKthllxZu4vuMqYCqQFhziRWJml
ULIJ8lsr0Wo4MKIV4TqNrG33DW16CmgkusOlXYYVMmhhWaHS2F7FsvwQSU0dHFi8
W8w0IPny3q2SRXF3Zw+Q34cpJwOvJfUv5ZVh5OZcufZdK1tSpaRnZyEbncNm/LcO
SN3cAljrK8obS0Ae7Bcdn6naeEBDbH5N4GFBDqaIqiJIXZIsCteMDNxP65GR2pPq
zPYs/9DZQrIkLku5hmXkXkwiL/BsSszegmRqeLWL35+kexRxFvxugyUia8rFR/8p
y+gEuIL9RNHzw+cbMbcrL7oZGkzGrfVTeIMnhwIZpa/CsF3mrizxgz+wCLgPxfSz
u5b+aF9783xORaOKNdJ/ufWEFVgTq2RtOAnwixvdyJvdpL+Igq6IJAkK1Vx3tgLB
nbhOQilOlzVGATkhMl2Pf+gu31qidwWLM3R1IVIc87+ERkSp+FO7AU6+3xeliuSX
LQIDAQABo4GlMIGiMAkGA1UdEwQCMAAwHQYDVR0OBBYEFKdfTPRSPeQ68Ekyhc3z
it0uKUitMFQGA1UdIwRNMEuAFIenxXU3CxRsv0YEjCpS6V3aUdzmoR2kGzAZMRcw
FQYDVQQDDA52cG4uamVua2lucy5pb4IUCAGqbRsxQE97nHVUVHi1NmU7fLMwEwYD
VR0lBAwwCgYIKwYBBQUHAwIwCwYDVR0PBAQDAgeAMA0GCSqGSIb3DQEBCwUAA4IC
AQCNQCbd92iAgqH0TK1oKeeXwguJjtcr4KeODAqaj/RytQmJwVo05tTBR8O5HBDX
4PtpMpoCguEdl0vTSG811qf5BAs78UcVBY243Y9YA1U/XMFzJXwGf1T8Os5PkUUJ
oHuhCwwCdD0DcqCxzMSp4IRYX6LTrYhBGsRXdakAfEAsv9cBJFnG8/nlIqFV3F/d
Y9Z6BbBQBP4dFYRoi5DyOwa/QQtin4eNm+auRvX/S7GZcw6222TpAGsnx1LnYSZZ
ddU/1CfWqnwureRnTWJ1kA3QZ0cyzGJPY+5Xnl+tAcEypZFwFIVPvZg+M6SDzHKc
kkuXhHZq+Ku0kS/ktncg9BLG3l/0nYQNwqaWnKKw4FuEWEY+zNEC9lPeVKpdv5vA
QPUOvu0bqSBFupwG6V86A/9eHrdzWYLLTLdmXqeZTGemKi0WjnKztlxozw46ZaRp
gQ+QydB6cyOCjSaL94do9fsxcXiZlKz8K5F1TiEFeiTqqOjZGg+1OEQ9TgdzdWKe
8BhQVS7r85IZXYiIiGDlJAKtWIMRQVEdpmp0QsqDYLTLIOwGVXmKkdG3gal417Ar
r119LP8QyGxQ679VXgoOAf3mixE9ceLypEGWwA1h4q7+oPV9ao2f+A5vIqRGNPVS
EOGNFAhbk+FyBtY8WHt5ib0Yvq3bLNCkKL9wMJdQezqmxQ==
-----END CERTIFICATE-----
