Certificate:
    Data:
        Version: 3 (0x2)
        Serial Number:
            17:8e:db:cf:0a:74:1b:5d:01:77:99:23:25:38:6f:72
        Signature Algorithm: sha256WithRSAEncryption
        Issuer: CN=vpn.jenkins.io
        Validity
            Not Before: Sep 20 20:56:50 2024 GMT
            Not After : Sep  5 20:56:50 2027 GMT
        Subject: CN=kohsuke
        Subject Public Key Info:
            Public Key Algorithm: rsaEncryption
                Public-Key: (4096 bit)
                Modulus:
                    00:ca:d2:89:e2:02:76:37:8f:0d:c9:8e:e0:d3:7f:
                    ed:c5:0a:c9:92:93:cd:bd:99:3e:79:64:99:30:ff:
                    ae:80:9c:9e:32:07:b3:77:e9:31:94:17:bc:51:25:
                    23:45:fc:92:66:01:65:cb:1c:57:52:f9:73:cb:06:
                    2f:a9:79:b5:84:43:f7:45:45:b9:0b:57:5b:b6:39:
                    f8:b8:58:33:77:4a:63:87:eb:fc:9f:11:26:99:a2:
                    51:71:12:38:8a:5b:eb:32:ec:49:8e:af:6b:91:89:
                    03:db:15:0a:01:76:61:df:06:3e:4d:48:b9:4a:61:
                    2c:2a:c2:46:9d:b0:cf:81:ae:83:8c:09:2a:fb:d8:
                    b3:8a:16:cf:68:d0:4e:c8:7a:b6:6d:1c:b6:76:af:
                    f8:98:a4:b7:ee:96:7c:42:d5:e9:34:9c:93:c6:b6:
                    aa:cc:6d:85:88:f0:36:c6:4b:9a:73:ba:9d:cf:98:
                    b4:08:b4:95:bf:c1:13:1e:68:c1:b9:40:32:fe:5e:
                    05:9e:6b:68:82:4d:2f:82:69:50:2a:96:e8:66:e3:
                    c0:2f:0c:2f:2f:7f:90:ef:6e:0a:a6:dc:a7:f1:e1:
                    85:51:20:55:6c:97:2f:c5:fc:36:fe:1f:f6:0b:00:
                    67:a9:70:91:33:4b:aa:01:69:4f:da:fe:6a:9c:73:
                    1e:5d:3c:58:23:e9:f2:b8:b0:17:5c:b3:ae:b7:5e:
                    0d:7e:4d:2f:99:0c:0d:4d:8d:67:d9:58:8e:a2:8e:
                    ee:a4:a2:5f:b2:02:8a:c5:98:27:77:34:04:2b:30:
                    77:e8:f3:10:28:5c:8b:67:45:01:71:06:cf:f0:52:
                    a2:02:c4:fb:18:de:3a:25:17:b1:54:51:6a:ae:b2:
                    ea:99:1d:e8:6b:07:fc:8e:27:c2:22:ad:18:30:6f:
                    53:b1:24:de:d2:5e:17:21:e6:de:5c:cf:31:f5:f5:
                    26:ee:b2:10:dd:48:f0:79:cf:f1:8b:0f:c9:77:33:
                    af:b3:85:75:e1:b1:8d:e6:08:9a:77:66:b9:ef:9c:
                    60:89:7c:29:87:6a:ff:a3:c0:3e:be:8f:0a:9e:2a:
                    3f:a3:38:0e:fe:22:85:f5:e9:c1:f4:e7:e1:47:98:
                    62:7c:91:d2:b8:d4:45:88:ad:6c:38:c8:b6:95:e8:
                    6b:48:d9:2f:6c:2e:a1:70:8d:9c:fa:e9:73:76:7d:
                    f3:37:17:1f:be:1d:39:42:35:50:cb:2e:0e:ad:2f:
                    f3:f5:3b:40:45:50:27:1e:2d:1d:1e:ee:95:90:d6:
                    ca:5f:28:09:5e:46:85:cb:93:ff:f7:fb:6a:25:ed:
                    79:67:36:36:61:7f:d3:97:bb:57:3b:45:ed:ff:29:
                    d4:dd:c3
                Exponent: 65537 (0x10001)
        X509v3 extensions:
            X509v3 Basic Constraints: 
                CA:FALSE
            X509v3 Subject Key Identifier: 
                99:B3:D9:13:01:2C:A1:48:8C:07:7C:42:AA:DD:FE:FC:8E:78:DD:BE
            X509v3 Authority Key Identifier: 
                keyid:87:A7:C5:75:37:0B:14:6C:BF:46:04:8C:2A:52:E9:5D:DA:51:DC:E6
                DirName:/CN=vpn.jenkins.io
                serial:08:01:AA:6D:1B:31:40:4F:7B:9C:75:54:54:78:B5:36:65:3B:7C:B3
            X509v3 Extended Key Usage: 
                TLS Web Client Authentication
            X509v3 Key Usage: 
                Digital Signature
    Signature Algorithm: sha256WithRSAEncryption
    Signature Value:
        66:b5:f6:b3:bb:03:35:21:42:5d:da:f3:35:4c:de:52:5b:7e:
        54:ca:7f:f5:67:fa:c1:bd:44:90:fb:4f:f7:06:1d:0d:22:96:
        2c:2c:ef:a1:6f:fc:03:9d:5d:48:0a:7b:44:63:a3:66:00:c2:
        94:d0:5b:ae:61:28:aa:e8:e9:8b:e9:3b:ac:78:ba:d9:b3:e2:
        9d:d4:4c:f8:e8:64:5f:37:6f:d8:e3:28:30:c2:23:52:f9:9e:
        93:b7:cf:e7:91:da:87:25:df:a1:60:1c:b4:18:a6:7f:52:cb:
        42:74:98:cb:de:a4:34:e0:e4:2b:9a:c1:ed:1f:1b:fd:cd:1b:
        4e:fe:1a:a9:11:5f:50:2a:0a:3b:c2:78:fb:51:d3:5c:e9:8f:
        bf:fc:24:32:c7:4c:8f:50:8e:64:8a:51:63:3d:17:b9:61:34:
        e6:8b:b9:e5:8a:ff:c6:67:a2:3b:97:1e:5f:18:1f:a0:d5:01:
        5a:61:27:f2:4f:e9:af:50:a8:3b:0e:4b:2a:5c:a7:c3:05:a2:
        ec:e1:3b:ce:98:6a:cf:b4:35:b9:e1:cd:ad:ad:4f:6a:c0:80:
        a1:72:c2:6d:85:d0:aa:a7:2d:e2:3f:cb:cd:7f:d5:00:37:ba:
        d3:fc:49:7c:f3:e8:f8:55:af:54:c7:ea:c3:a2:87:ee:6d:b5:
        d1:10:91:15:a5:81:14:52:95:ec:46:37:ff:a5:17:0c:4b:a1:
        c9:5d:2d:47:fc:f2:e6:78:13:22:0f:2c:a5:1d:9d:07:1c:78:
        73:c5:53:21:73:d3:2f:c5:01:03:51:3e:29:2a:6b:d6:db:3c:
        30:5c:c8:c2:9e:69:aa:30:12:3e:34:d8:22:ba:4a:11:09:95:
        ac:ea:ab:68:86:b0:1b:84:b8:be:d8:c3:21:58:01:87:ec:00:
        b3:eb:7b:a1:ce:c9:0f:25:6a:2b:ab:00:05:f9:f7:04:a8:aa:
        92:f5:e9:9e:c0:d3:91:39:60:09:31:a4:be:69:ea:cc:08:8f:
        2e:09:7d:3f:9d:da:18:69:8b:d5:76:74:8d:62:4c:ac:64:f6:
        2c:73:dc:ae:06:41:17:ce:58:1e:3f:41:0b:f9:ee:f4:e0:cf:
        17:35:ae:49:61:bb:0c:7c:10:9e:ce:e1:97:14:2d:8d:b4:84:
        75:c6:95:3c:98:57:35:f0:dd:18:e5:ba:84:3f:b0:66:01:95:
        13:5a:5d:f4:19:00:d7:a3:97:b7:ce:8f:ef:27:af:cc:ed:62:
        ef:33:9a:83:dc:a9:a0:6e:00:de:f8:5d:97:59:8f:da:2f:5c:
        ad:25:ef:2b:bf:e8:3f:61:62:59:39:13:17:e4:f9:1b:78:2b:
        03:49:94:51:00:a9:db:8c
-----BEGIN CERTIFICATE-----
MIIFWzCCA0OgAwIBAgIQF47bzwp0G10Bd5kjJThvcjANBgkqhkiG9w0BAQsFADAZ
MRcwFQYDVQQDDA52cG4uamVua2lucy5pbzAeFw0yNDA5MjAyMDU2NTBaFw0yNzA5
MDUyMDU2NTBaMBIxEDAOBgNVBAMMB2tvaHN1a2UwggIiMA0GCSqGSIb3DQEBAQUA
A4ICDwAwggIKAoICAQDK0oniAnY3jw3JjuDTf+3FCsmSk829mT55ZJkw/66AnJ4y
B7N36TGUF7xRJSNF/JJmAWXLHFdS+XPLBi+pebWEQ/dFRbkLV1u2Ofi4WDN3SmOH
6/yfESaZolFxEjiKW+sy7EmOr2uRiQPbFQoBdmHfBj5NSLlKYSwqwkadsM+BroOM
CSr72LOKFs9o0E7IerZtHLZ2r/iYpLfulnxC1ek0nJPGtqrMbYWI8DbGS5pzup3P
mLQItJW/wRMeaMG5QDL+XgWea2iCTS+CaVAqluhm48AvDC8vf5Dvbgqm3Kfx4YVR
IFVsly/F/Db+H/YLAGepcJEzS6oBaU/a/mqccx5dPFgj6fK4sBdcs663Xg1+TS+Z
DA1NjWfZWI6iju6kol+yAorFmCd3NAQrMHfo8xAoXItnRQFxBs/wUqICxPsY3jol
F7FUUWqusuqZHehrB/yOJ8IirRgwb1OxJN7SXhch5t5czzH19SbushDdSPB5z/GL
D8l3M6+zhXXhsY3mCJp3ZrnvnGCJfCmHav+jwD6+jwqeKj+jOA7+IoX16cH05+FH
mGJ8kdK41EWIrWw4yLaV6GtI2S9sLqFwjZz66XN2ffM3Fx++HTlCNVDLLg6tL/P1
O0BFUCceLR0e7pWQ1spfKAleRoXLk//3+2ol7XlnNjZhf9OXu1c7Re3/KdTdwwID
AQABo4GlMIGiMAkGA1UdEwQCMAAwHQYDVR0OBBYEFJmz2RMBLKFIjAd8Qqrd/vyO
eN2+MFQGA1UdIwRNMEuAFIenxXU3CxRsv0YEjCpS6V3aUdzmoR2kGzAZMRcwFQYD
VQQDDA52cG4uamVua2lucy5pb4IUCAGqbRsxQE97nHVUVHi1NmU7fLMwEwYDVR0l
BAwwCgYIKwYBBQUHAwIwCwYDVR0PBAQDAgeAMA0GCSqGSIb3DQEBCwUAA4ICAQBm
tfazuwM1IUJd2vM1TN5SW35Uyn/1Z/rBvUSQ+0/3Bh0NIpYsLO+hb/wDnV1ICntE
Y6NmAMKU0FuuYSiq6OmL6TuseLrZs+Kd1Ez46GRfN2/Y4ygwwiNS+Z6Tt8/nkdqH
Jd+hYBy0GKZ/UstCdJjL3qQ04OQrmsHtHxv9zRtO/hqpEV9QKgo7wnj7UdNc6Y+/
/CQyx0yPUI5kilFjPRe5YTTmi7nliv/GZ6I7lx5fGB+g1QFaYSfyT+mvUKg7Dksq
XKfDBaLs4TvOmGrPtDW54c2trU9qwIChcsJthdCqpy3iP8vNf9UAN7rT/El88+j4
Va9Ux+rDoofubbXREJEVpYEUUpXsRjf/pRcMS6HJXS1H/PLmeBMiDyylHZ0HHHhz
xVMhc9MvxQEDUT4pKmvW2zwwXMjCnmmqMBI+NNgiukoRCZWs6qtohrAbhLi+2MMh
WAGH7ACz63uhzskPJWorqwAF+fcEqKqS9emewNOROWAJMaS+aerMCI8uCX0/ndoY
aYvVdnSNYkysZPYsc9yuBkEXzlgeP0EL+e704M8XNa5JYbsMfBCezuGXFC2NtIR1
xpU8mFc18N0Y5bqEP7BmAZUTWl30GQDXo5e3zo/vJ6/M7WLvM5qD3KmgbgDe+F2X
WY/aL1ytJe8rv+g/YWJZORMX5PkbeCsDSZRRAKnbjA==
-----END CERTIFICATE-----
