Certificate:
    Data:
        Version: 3 (0x2)
        Serial Number:
            1a:14:1d:7f:5c:41:8d:6a:58:10:9b:d7:f9:52:5f:52
    Signature Algorithm: sha256WithRSAEncryption
        Issuer: CN=vpn.jenkins.io
        Validity
            Not Before: Jun 29 10:43:16 2023 GMT
            Not After : Jun 13 10:43:16 2026 GMT
        Subject: CN=hlemeur
        Subject Public Key Info:
            Public Key Algorithm: rsaEncryption
                RSA Public-Key: (4096 bit)
                Modulus:
                    00:d0:c4:14:6c:79:0e:76:26:84:42:26:01:d8:63:
                    56:79:e2:5b:64:9d:80:b0:c1:c3:9a:09:0b:eb:68:
                    f0:16:45:74:8c:f5:6c:b2:95:98:e4:ce:c5:a2:98:
                    72:7e:78:ba:d3:e6:b9:65:93:1b:67:4e:78:74:2e:
                    cb:46:43:e5:91:38:cd:d9:a9:59:7e:c4:81:4c:e5:
                    06:d8:9b:cd:47:06:67:cd:93:da:8e:56:d2:d6:92:
                    81:53:a8:94:08:09:e8:fc:2c:4e:7d:38:a1:9e:7d:
                    84:71:05:66:b2:59:90:89:6e:29:f7:25:c5:90:61:
                    af:00:c1:d6:2f:94:8d:2a:1f:6a:1d:42:40:16:e7:
                    16:d4:c3:88:ec:ca:e3:72:29:0d:57:ea:b1:a9:df:
                    2b:98:8b:14:f7:15:8f:04:19:6c:29:b9:fd:5f:33:
                    03:66:e7:90:b7:55:32:2f:57:2d:91:9a:de:48:e1:
                    be:12:0b:8a:33:42:2f:b9:37:1b:a7:27:56:ce:4f:
                    15:95:d0:b3:bc:1f:90:19:2f:f5:88:92:f6:79:df:
                    14:68:d7:80:c3:ea:96:6d:e5:23:a7:2b:74:62:f2:
                    1d:7a:a0:fd:f4:d5:bd:5d:91:40:75:b4:ef:f9:0a:
                    5e:5d:38:8a:e3:6a:10:ae:22:3d:15:f8:c7:6b:dc:
                    d7:35:be:b0:dd:b5:25:13:51:6b:d3:10:81:51:c0:
                    bb:3f:5e:b1:f0:96:13:0d:de:3e:e4:0a:63:7e:1d:
                    8b:6b:e3:84:36:82:66:ab:2f:3c:e1:0d:cc:da:c3:
                    47:26:fd:34:d5:81:80:55:ae:f4:41:f6:02:80:f2:
                    a0:93:b7:58:69:3e:69:44:f1:48:a8:00:7f:c1:5b:
                    c9:55:89:fd:d4:ec:ae:fd:09:e5:f4:7c:34:06:2f:
                    3f:59:8b:65:a0:0d:50:2a:83:19:ea:c4:3d:15:f7:
                    05:01:9a:dd:7d:10:7a:cf:f4:35:a6:f1:62:12:4a:
                    92:0d:e6:fe:c8:39:15:ca:83:51:c1:50:2a:5c:a9:
                    b3:6f:ec:61:5b:8e:97:83:fd:e7:eb:44:a1:18:cb:
                    a1:c0:cd:15:5b:e0:9e:d9:0b:d2:3e:60:fd:87:03:
                    99:92:63:be:03:17:80:95:e0:6f:4b:ac:05:ec:65:
                    14:f5:59:f1:eb:d6:1f:dc:cb:9a:02:23:50:3c:9c:
                    b2:05:54:57:cc:29:f6:a6:6e:76:ce:8b:ce:5f:e6:
                    d1:87:da:51:87:c6:b6:c6:e5:09:88:38:ad:0f:dd:
                    94:1c:84:10:17:93:8d:3b:12:55:08:01:98:9b:e1:
                    d7:8e:9f:e7:57:8c:f9:63:cd:d2:32:a6:2d:0a:17:
                    ad:40:f3
                Exponent: 65537 (0x10001)
        X509v3 extensions:
            X509v3 Basic Constraints: 
                CA:FALSE
            X509v3 Subject Key Identifier: 
                1A:06:94:E2:F3:39:66:0C:18:65:B3:21:A3:26:D9:88:DA:AC:EE:46
            X509v3 Authority Key Identifier: 
                keyid:87:A7:C5:75:37:0B:14:6C:BF:46:04:8C:2A:52:E9:5D:DA:51:DC:E6
                DirName:/CN=vpn.jenkins.io
                serial:08:01:AA:6D:1B:31:40:4F:7B:9C:75:54:54:78:B5:36:65:3B:7C:B3

            X509v3 Extended Key Usage: 
                TLS Web Client Authentication
            X509v3 Key Usage: 
                Digital Signature
    Signature Algorithm: sha256WithRSAEncryption
         02:eb:f8:39:df:ae:86:2e:80:19:aa:5f:1c:ed:21:a7:95:10:
         a9:f3:f2:74:56:dc:2b:27:42:c1:d7:a1:e5:33:10:b0:53:f1:
         50:f7:23:c9:0b:74:d5:30:4a:ac:a6:a7:c7:b9:86:83:57:30:
         71:e7:3b:4a:b8:a9:c8:42:16:97:d9:1c:e1:c3:76:f6:4e:ba:
         1f:81:59:78:d2:15:91:88:c8:ee:22:1f:1f:e6:e6:7a:18:80:
         54:43:6b:28:81:77:50:86:88:23:ca:9e:09:ff:81:f9:0e:f0:
         99:bd:8e:58:b1:87:a1:a7:60:ac:c6:7d:53:34:0e:36:e4:97:
         58:09:12:2b:41:83:f4:81:a5:d3:5d:b9:a2:b8:8c:d0:55:1b:
         65:2f:d7:98:99:41:dc:e8:46:1d:8e:50:a4:70:a4:b1:c8:25:
         94:9a:7e:9d:3a:6e:5d:e8:f5:25:f1:40:d3:07:c6:95:ff:fd:
         07:1c:a9:aa:59:32:10:b0:41:84:ba:7a:7f:15:ef:82:55:0a:
         cf:1f:3c:a3:89:00:b2:dc:e2:c7:07:77:a6:2d:a1:64:74:57:
         2e:9e:4a:cc:5a:5b:fa:97:02:66:48:df:35:93:d4:3e:6f:75:
         4d:c5:78:3d:00:98:95:0b:a9:36:99:f6:b2:0e:b2:09:66:3b:
         e8:11:81:3a:91:05:6f:80:d6:a3:06:b9:61:46:69:9f:e2:1d:
         a4:ac:6e:e7:ab:9a:11:05:c1:53:50:89:51:85:99:50:13:93:
         e4:d1:1d:ef:c7:4b:e7:7b:a6:cf:b8:46:0e:6a:5a:f3:1d:87:
         90:80:50:47:63:ee:3b:dd:8a:fd:be:dd:5a:09:a5:70:f7:17:
         86:7f:4a:31:17:04:42:8d:69:0f:b1:52:e3:44:71:ae:24:5f:
         c2:38:40:a9:c6:da:24:a2:65:74:de:77:a0:62:28:1a:58:b3:
         da:56:b2:1a:80:ff:00:3f:55:3c:b4:5c:7e:e0:27:4b:31:78:
         2f:a1:97:6b:3a:33:0b:dd:cb:1f:d7:72:a3:e2:9e:d5:b6:45:
         14:41:05:94:1b:6b:c8:11:14:56:82:83:4d:c6:6c:99:32:e5:
         a2:99:a3:17:f2:8a:45:44:c3:ba:cd:8f:43:e2:65:de:d5:75:
         ce:a2:09:1e:6a:97:da:43:fa:ca:6f:13:7e:97:9a:43:8d:c0:
         27:82:46:45:3b:8f:2b:3a:85:85:b5:e3:8c:1b:de:30:2e:b7:
         01:b5:1d:c8:d9:85:d0:b2:94:04:d8:21:f7:bd:0a:15:a1:b5:
         ab:6a:b9:fb:80:41:8a:e0:93:8b:a2:4a:4e:40:e8:3d:31:14:
         e0:5d:b0:e8:a1:ad:5e:35
-----BEGIN CERTIFICATE-----
MIIFWzCCA0OgAwIBAgIQGhQdf1xBjWpYEJvX+VJfUjANBgkqhkiG9w0BAQsFADAZ
MRcwFQYDVQQDDA52cG4uamVua2lucy5pbzAeFw0yMzA2MjkxMDQzMTZaFw0yNjA2
MTMxMDQzMTZaMBIxEDAOBgNVBAMMB2hsZW1ldXIwggIiMA0GCSqGSIb3DQEBAQUA
A4ICDwAwggIKAoICAQDQxBRseQ52JoRCJgHYY1Z54ltknYCwwcOaCQvraPAWRXSM
9WyylZjkzsWimHJ+eLrT5rllkxtnTnh0LstGQ+WROM3ZqVl+xIFM5QbYm81HBmfN
k9qOVtLWkoFTqJQICej8LE59OKGefYRxBWayWZCJbin3JcWQYa8AwdYvlI0qH2od
QkAW5xbUw4jsyuNyKQ1X6rGp3yuYixT3FY8EGWwpuf1fMwNm55C3VTIvVy2Rmt5I
4b4SC4ozQi+5NxunJ1bOTxWV0LO8H5AZL/WIkvZ53xRo14DD6pZt5SOnK3Ri8h16
oP301b1dkUB1tO/5Cl5dOIrjahCuIj0V+Mdr3Nc1vrDdtSUTUWvTEIFRwLs/XrHw
lhMN3j7kCmN+HYtr44Q2gmarLzzhDczaw0cm/TTVgYBVrvRB9gKA8qCTt1hpPmlE
8UioAH/BW8lVif3U7K79CeX0fDQGLz9Zi2WgDVAqgxnqxD0V9wUBmt19EHrP9DWm
8WISSpIN5v7IORXKg1HBUCpcqbNv7GFbjpeD/efrRKEYy6HAzRVb4J7ZC9I+YP2H
A5mSY74DF4CV4G9LrAXsZRT1WfHr1h/cy5oCI1A8nLIFVFfMKfambnbOi85f5tGH
2lGHxrbG5QmIOK0P3ZQchBAXk407ElUIAZib4deOn+dXjPljzdIypi0KF61A8wID
AQABo4GlMIGiMAkGA1UdEwQCMAAwHQYDVR0OBBYEFBoGlOLzOWYMGGWzIaMm2Yja
rO5GMFQGA1UdIwRNMEuAFIenxXU3CxRsv0YEjCpS6V3aUdzmoR2kGzAZMRcwFQYD
VQQDDA52cG4uamVua2lucy5pb4IUCAGqbRsxQE97nHVUVHi1NmU7fLMwEwYDVR0l
BAwwCgYIKwYBBQUHAwIwCwYDVR0PBAQDAgeAMA0GCSqGSIb3DQEBCwUAA4ICAQAC
6/g5366GLoAZql8c7SGnlRCp8/J0VtwrJ0LB16HlMxCwU/FQ9yPJC3TVMEqspqfH
uYaDVzBx5ztKuKnIQhaX2Rzhw3b2TrofgVl40hWRiMjuIh8f5uZ6GIBUQ2sogXdQ
hogjyp4J/4H5DvCZvY5YsYehp2Csxn1TNA425JdYCRIrQYP0gaXTXbmiuIzQVRtl
L9eYmUHc6EYdjlCkcKSxyCWUmn6dOm5d6PUl8UDTB8aV//0HHKmqWTIQsEGEunp/
Fe+CVQrPHzyjiQCy3OLHB3emLaFkdFcunkrMWlv6lwJmSN81k9Q+b3VNxXg9AJiV
C6k2mfayDrIJZjvoEYE6kQVvgNajBrlhRmmf4h2krG7nq5oRBcFTUIlRhZlQE5Pk
0R3vx0vne6bPuEYOalrzHYeQgFBHY+473Yr9vt1aCaVw9xeGf0oxFwRCjWkPsVLj
RHGuJF/COECpxtokomV03negYigaWLPaVrIagP8AP1U8tFx+4CdLMXgvoZdrOjML
3csf13Kj4p7VtkUUQQWUG2vIERRWgoNNxmyZMuWimaMX8opFRMO6zY9D4mXe1XXO
ogkeapfaQ/rKbxN+l5pDjcAngkZFO48rOoWFteOMG94wLrcBtR3I2YXQspQE2CH3
vQoVobWrarn7gEGK4JOLokpOQOg9MRTgXbDooa1eNQ==
-----END CERTIFICATE-----
