Certificate:
    Data:
        Version: 3 (0x2)
        Serial Number:
            1d:5b:04:ec:0a:b6:86:2e:bd:05:09:f4:7f:35:bf:98
    Signature Algorithm: sha256WithRSAEncryption
        Issuer: CN=vpn.jenkins.io
        Validity
            Not Before: Apr 12 16:30:28 2022 GMT
            Not After : Mar 27 16:30:28 2025 GMT
        Subject: CN=hlemeur
        Subject Public Key Info:
            Public Key Algorithm: rsaEncryption
                Public-Key: (4096 bit)
                Modulus:
                    00:db:47:2a:4d:b7:87:c8:42:63:f1:a3:d8:29:04:
                    db:0f:8b:7c:e4:6f:4c:f4:9b:e3:e9:39:1b:58:af:
                    de:5c:38:76:0d:c5:b7:17:73:1d:7f:16:6b:1f:53:
                    d0:57:07:c9:ab:78:a6:f3:80:a0:13:41:6e:85:55:
                    af:23:36:db:3f:6f:54:b1:01:5e:96:fd:ac:d1:63:
                    3b:b1:48:bc:34:a3:2c:ae:f7:3b:76:29:b5:af:6d:
                    93:26:a5:b1:08:ae:4a:71:cc:00:69:73:a9:52:7b:
                    8d:43:cb:27:50:78:7c:d4:c8:aa:04:c7:11:7e:97:
                    ac:81:fe:57:9d:d3:f3:22:0e:94:36:c9:78:5c:66:
                    62:66:c1:be:fa:71:e0:cf:4e:06:90:17:13:2c:61:
                    9e:ba:a0:25:75:a8:75:3c:fc:95:fd:b5:47:2e:af:
                    4e:85:76:4b:c2:25:96:6b:95:70:40:89:24:7e:b2:
                    1b:54:22:b8:23:67:64:fb:eb:41:74:1f:7c:e3:04:
                    60:60:2a:43:c1:60:76:ca:8a:ec:93:a9:5e:ab:25:
                    ae:61:80:e6:2a:e0:1b:92:16:8e:f7:4d:af:70:3e:
                    d8:62:1d:c5:2d:9f:73:58:54:3e:48:51:45:fa:f7:
                    c4:38:ab:f0:f0:6d:16:2c:c7:bf:d4:6c:4b:72:d7:
                    3b:7b:3e:86:9d:88:7b:75:7e:7e:72:f2:4d:25:e8:
                    3e:07:63:e9:95:63:17:4f:e1:33:2c:36:7c:b2:14:
                    7c:37:d4:0a:d8:8c:07:87:88:ae:d4:ce:1d:d5:d0:
                    7c:db:33:41:4b:bd:dd:b3:88:25:3d:dd:6b:1d:b6:
                    98:eb:28:89:5f:a6:87:d1:db:94:2b:6d:3d:96:ac:
                    98:95:94:6c:24:46:45:d5:18:d2:81:fa:d6:0c:30:
                    d7:a0:7a:59:64:0b:ef:9b:4f:ef:70:9d:22:0d:0a:
                    13:b6:75:f0:c4:94:1e:91:da:b2:74:27:13:1a:82:
                    6f:84:07:a2:e9:54:a6:94:7c:5a:3b:b2:05:5d:88:
                    42:1f:ec:e9:bf:3b:bd:b3:71:0f:80:71:ad:c3:1d:
                    d3:2a:95:fd:52:d1:4a:da:e1:6e:21:d4:cf:19:6b:
                    cf:fa:37:fd:7f:71:6f:00:da:42:74:b5:f3:19:09:
                    d8:8c:7a:1b:9d:89:c2:11:4d:27:17:45:7c:0e:51:
                    bc:df:cf:47:3e:76:e6:60:5f:f9:97:15:c3:ff:46:
                    7e:13:cf:08:3f:56:a6:24:d8:a6:cb:ef:e0:be:e1:
                    8e:71:ed:36:75:37:62:00:e2:58:dc:10:c9:32:26:
                    a2:5e:83:60:10:56:67:9a:80:0c:46:42:e1:d1:78:
                    f2:1f:bf
                Exponent: 65537 (0x10001)
        X509v3 extensions:
            X509v3 Basic Constraints: 
                CA:FALSE
            X509v3 Subject Key Identifier: 
                0E:3F:5D:BB:11:4C:F0:88:9E:78:F5:9D:44:23:CD:8D:97:30:59:14
            X509v3 Authority Key Identifier: 
                keyid:87:A7:C5:75:37:0B:14:6C:BF:46:04:8C:2A:52:E9:5D:DA:51:DC:E6
                DirName:/CN=vpn.jenkins.io
                serial:08:01:AA:6D:1B:31:40:4F:7B:9C:75:54:54:78:B5:36:65:3B:7C:B3

            X509v3 Extended Key Usage: 
                TLS Web Client Authentication
            X509v3 Key Usage: 
                Digital Signature
    Signature Algorithm: sha256WithRSAEncryption
         4f:b4:fd:72:41:b5:43:6e:9b:7d:df:11:7d:94:9e:0e:56:1e:
         56:e7:4d:84:49:0a:b6:aa:16:16:60:8a:fc:02:ec:04:63:c3:
         e8:2e:97:8b:43:ed:7a:98:55:1c:9c:6d:2f:6c:f4:e9:6a:33:
         12:da:cc:e9:16:5b:8e:ed:ad:c6:a2:c2:a7:d0:6e:ad:86:9c:
         1e:28:7f:c3:ca:83:0e:e2:57:e5:e0:c0:84:e5:6a:c6:9e:74:
         7a:9d:b1:03:2c:af:17:84:70:00:c3:4f:11:e1:56:0b:8b:34:
         13:71:84:49:ad:70:80:34:1a:1e:64:ca:e4:ae:99:13:ab:45:
         40:30:05:26:b6:60:f4:6a:0c:59:e3:a8:5b:9c:48:b3:f5:2e:
         61:a8:aa:37:f1:95:88:d2:3a:13:21:df:b7:f7:9a:23:83:b6:
         89:52:ce:13:a1:55:74:28:f4:31:15:c7:1c:02:fc:05:a7:e0:
         6a:bd:97:a2:20:c1:22:a2:7c:1d:2b:08:e5:74:ad:82:d5:14:
         c1:9e:94:bc:d4:a6:67:7a:c4:87:dc:7f:90:0d:14:16:e4:84:
         4e:ed:57:21:93:bb:0a:ad:09:e0:ac:8c:9b:37:30:6e:30:f6:
         36:8d:ad:ae:4c:d2:e9:93:45:de:db:bb:fe:a4:14:88:43:2d:
         3e:49:06:ca:4f:20:5e:00:fd:9d:54:fc:71:df:09:3a:51:a5:
         83:8f:a9:3c:d3:04:68:9f:9d:7b:53:2a:e0:42:95:c6:65:16:
         07:74:12:f8:fd:95:a3:0d:04:36:83:4d:37:c4:cf:a6:44:96:
         d0:42:cb:86:36:e5:5f:10:21:bc:f9:c8:89:9e:fd:e2:0c:23:
         d4:7b:b6:12:c2:f9:04:04:e0:83:57:81:fc:73:39:91:de:de:
         0e:29:82:29:f9:ed:f8:10:ad:7a:e5:7f:25:51:97:3e:ce:af:
         2f:7d:82:60:18:bc:9f:18:85:b0:62:43:77:a7:1e:ee:3d:bf:
         11:62:40:92:49:e0:78:c7:16:50:db:6f:e6:0e:d7:4a:29:77:
         c0:f2:05:f0:b4:7c:bf:3c:f8:35:d2:91:0c:0f:ed:6c:71:65:
         d8:25:6e:77:29:fb:9d:42:30:b1:74:25:e3:0f:a6:fe:4f:6f:
         93:64:02:6b:ac:22:0b:b0:8b:91:98:36:1f:9e:1f:ee:7b:e4:
         55:de:07:40:c4:5a:7c:f3:97:67:0a:73:25:c6:5a:b4:85:1a:
         db:a1:34:df:bb:b7:c1:5d:26:49:9e:4c:d9:1c:1a:d7:35:ae:
         77:3d:26:13:0b:f7:dd:c1:89:02:6a:6e:57:ae:f8:27:bb:97:
         00:19:3a:0d:e4:13:75:eb
-----BEGIN CERTIFICATE-----
MIIFWzCCA0OgAwIBAgIQHVsE7Aq2hi69BQn0fzW/mDANBgkqhkiG9w0BAQsFADAZ
MRcwFQYDVQQDDA52cG4uamVua2lucy5pbzAeFw0yMjA0MTIxNjMwMjhaFw0yNTAz
MjcxNjMwMjhaMBIxEDAOBgNVBAMMB2hsZW1ldXIwggIiMA0GCSqGSIb3DQEBAQUA
A4ICDwAwggIKAoICAQDbRypNt4fIQmPxo9gpBNsPi3zkb0z0m+PpORtYr95cOHYN
xbcXcx1/FmsfU9BXB8mreKbzgKATQW6FVa8jNts/b1SxAV6W/azRYzuxSLw0oyyu
9zt2KbWvbZMmpbEIrkpxzABpc6lSe41DyydQeHzUyKoExxF+l6yB/led0/MiDpQ2
yXhcZmJmwb76ceDPTgaQFxMsYZ66oCV1qHU8/JX9tUcur06FdkvCJZZrlXBAiSR+
shtUIrgjZ2T760F0H3zjBGBgKkPBYHbKiuyTqV6rJa5hgOYq4BuSFo73Ta9wPthi
HcUtn3NYVD5IUUX698Q4q/DwbRYsx7/UbEty1zt7PoadiHt1fn5y8k0l6D4HY+mV
YxdP4TMsNnyyFHw31ArYjAeHiK7Uzh3V0HzbM0FLvd2ziCU93WsdtpjrKIlfpofR
25QrbT2WrJiVlGwkRkXVGNKB+tYMMNegellkC++bT+9wnSINChO2dfDElB6R2rJ0
JxMagm+EB6LpVKaUfFo7sgVdiEIf7Om/O72zcQ+Aca3DHdMqlf1S0Ura4W4h1M8Z
a8/6N/1/cW8A2kJ0tfMZCdiMehudicIRTScXRXwOUbzfz0c+duZgX/mXFcP/Rn4T
zwg/VqYk2KbL7+C+4Y5x7TZ1N2IA4ljcEMkyJqJeg2AQVmeagAxGQuHRePIfvwID
AQABo4GlMIGiMAkGA1UdEwQCMAAwHQYDVR0OBBYEFA4/XbsRTPCInnj1nUQjzY2X
MFkUMFQGA1UdIwRNMEuAFIenxXU3CxRsv0YEjCpS6V3aUdzmoR2kGzAZMRcwFQYD
VQQDDA52cG4uamVua2lucy5pb4IUCAGqbRsxQE97nHVUVHi1NmU7fLMwEwYDVR0l
BAwwCgYIKwYBBQUHAwIwCwYDVR0PBAQDAgeAMA0GCSqGSIb3DQEBCwUAA4ICAQBP
tP1yQbVDbpt93xF9lJ4OVh5W502ESQq2qhYWYIr8AuwEY8PoLpeLQ+16mFUcnG0v
bPTpajMS2szpFluO7a3GosKn0G6thpweKH/DyoMO4lfl4MCE5WrGnnR6nbEDLK8X
hHAAw08R4VYLizQTcYRJrXCANBoeZMrkrpkTq0VAMAUmtmD0agxZ46hbnEiz9S5h
qKo38ZWI0joTId+395ojg7aJUs4ToVV0KPQxFcccAvwFp+BqvZeiIMEionwdKwjl
dK2C1RTBnpS81KZnesSH3H+QDRQW5IRO7Vchk7sKrQngrIybNzBuMPY2ja2uTNLp
k0Xe27v+pBSIQy0+SQbKTyBeAP2dVPxx3wk6UaWDj6k80wRon517UyrgQpXGZRYH
dBL4/ZWjDQQ2g003xM+mRJbQQsuGNuVfECG8+ciJnv3iDCPUe7YSwvkEBOCDV4H8
czmR3t4OKYIp+e34EK165X8lUZc+zq8vfYJgGLyfGIWwYkN3px7uPb8RYkCSSeB4
xxZQ22/mDtdKKXfA8gXwtHy/PPg10pEMD+1scWXYJW53KfudQjCxdCXjD6b+T2+T
ZAJrrCILsIuRmDYfnh/ue+RV3gdAxFp885dnCnMlxlq0hRrboTTfu7fBXSZJnkzZ
HBrXNa53PSYTC/fdwYkCam5Xrvgnu5cAGToN5BN16w==
-----END CERTIFICATE-----
