Certificate:
    Data:
        Version: 3 (0x2)
        Serial Number:
            1e:d4:a5:22:2d:ea:81:f2:97:b6:e3:c9:8c:7d:ff:4c
        Signature Algorithm: sha256WithRSAEncryption
        Issuer: CN=vpn.jenkins.io
        Validity
            Not Before: Jul  4 05:20:38 2025 GMT
            Not After : Jun 18 05:20:38 2028 GMT
        Subject: CN=notmyfault
        Subject Public Key Info:
            Public Key Algorithm: rsaEncryption
                Public-Key: (4096 bit)
                Modulus:
                    00:c9:23:21:3b:e0:37:35:b3:c1:1c:47:b6:fe:e4:
                    32:8d:db:7e:79:dd:bb:44:dd:f4:78:9f:06:96:86:
                    42:d3:7e:fd:f5:c3:57:ae:8a:97:76:80:97:c6:46:
                    3b:b9:51:9b:e1:36:af:55:52:7a:6d:12:d7:db:61:
                    d2:10:7d:0f:99:50:74:12:69:19:8a:4a:05:0d:7d:
                    ea:a7:c1:12:23:fc:b3:e5:59:ae:91:db:66:26:f8:
                    91:6c:79:85:70:05:0e:b5:df:d6:fa:30:13:ff:5b:
                    47:1f:5b:f7:1d:23:3b:81:83:f5:bd:34:82:88:69:
                    e2:40:7b:ec:97:fa:72:94:21:2f:da:90:18:e0:34:
                    24:af:74:12:41:38:bf:dd:01:cb:59:e6:34:d4:3f:
                    b8:00:bb:7d:45:23:94:ec:53:d7:16:58:9c:32:fb:
                    ad:78:7f:35:18:de:85:1d:99:9b:51:27:48:b3:c2:
                    0b:7c:4d:dd:ac:d1:4e:cf:f1:ec:cb:df:5f:dc:d5:
                    ea:9c:66:99:80:ea:01:d0:68:2e:84:51:58:b2:5b:
                    e4:da:cf:ed:41:75:4e:40:40:8a:ed:63:53:5e:c2:
                    b9:6c:c5:55:77:ad:f0:5c:e9:44:78:00:ee:d0:81:
                    d1:08:22:76:66:02:f3:56:fa:d7:9b:17:4d:2c:65:
                    b6:a9:c2:e7:46:aa:c0:47:11:1c:29:03:1f:3b:7c:
                    b6:c0:7e:9e:b6:16:5b:09:fc:a5:5c:8e:72:3b:ca:
                    5f:42:eb:34:5f:31:b0:ec:ac:19:3c:9f:39:0f:72:
                    01:12:51:ef:e3:0d:b3:87:52:71:19:a2:b3:94:9b:
                    b5:09:fc:ce:b4:09:3a:97:de:8f:75:98:d5:24:85:
                    55:2d:bd:0e:8e:7f:52:0b:ba:4d:8f:15:d6:bd:a6:
                    03:09:f4:8d:09:f7:d3:6f:cf:93:36:d5:a0:5a:0e:
                    14:f0:85:b6:e9:06:05:39:80:d1:e6:2c:c8:77:0b:
                    a2:77:23:0f:45:66:78:bf:ae:e1:c7:68:45:fe:2f:
                    4f:2e:81:0c:64:11:8c:25:57:04:ad:1b:d7:79:8a:
                    36:dc:04:03:61:df:26:fe:ea:ab:ee:1b:85:be:5e:
                    7e:2a:1a:20:78:7a:77:a8:1c:36:62:6c:48:d9:68:
                    3f:44:ae:c6:8e:1f:cd:f1:d2:a3:88:4d:41:b2:f4:
                    80:a5:de:2e:d3:e1:34:f1:60:ac:6a:09:d1:80:50:
                    e7:8d:be:92:56:f1:63:93:33:68:f9:3f:27:fc:44:
                    ec:10:c7:37:3c:11:63:19:d0:e2:c1:11:02:09:89:
                    a2:c4:07:46:c9:76:48:31:71:32:28:85:fd:b4:ce:
                    cd:7c:41
                Exponent: 65537 (0x10001)
        X509v3 extensions:
            X509v3 Basic Constraints: 
                CA:FALSE
            X509v3 Subject Key Identifier: 
                D8:1A:66:78:95:DD:9B:48:E4:5D:94:8F:12:A3:38:9C:1A:C8:4B:85
            X509v3 Authority Key Identifier: 
                keyid:87:A7:C5:75:37:0B:14:6C:BF:46:04:8C:2A:52:E9:5D:DA:51:DC:E6
                DirName:/CN=vpn.jenkins.io
                serial:08:01:AA:6D:1B:31:40:4F:7B:9C:75:54:54:78:B5:36:65:3B:7C:B3
            X509v3 Extended Key Usage: 
                TLS Web Client Authentication
            X509v3 Key Usage: 
                Digital Signature
    Signature Algorithm: sha256WithRSAEncryption
    Signature Value:
        7d:a8:93:e7:c8:43:2d:d8:53:7f:ef:a4:ed:7a:70:d8:e5:b4:
        63:c8:b5:3c:0f:e7:3d:2d:40:00:25:35:91:3f:ff:00:8b:f7:
        82:16:06:d1:fa:80:db:0d:e7:0a:1f:45:c9:b7:22:e7:a2:15:
        a8:a2:4a:0b:76:d6:33:69:88:20:66:ac:af:59:d2:f2:89:54:
        75:dd:b4:05:3a:24:bb:29:04:17:f9:a0:fe:e1:7f:43:b2:ae:
        28:77:a3:bd:20:eb:02:34:0c:c1:cc:eb:b6:6e:31:07:59:cb:
        35:f4:10:d2:a5:71:44:21:79:f8:46:75:86:68:60:6c:58:de:
        73:f2:05:a1:e7:f3:09:8b:46:93:59:bb:e1:3b:bc:c0:cc:f0:
        46:02:41:9c:df:29:2f:f7:f3:d5:d3:3f:fd:fd:a9:ba:e3:c5:
        bb:e5:df:6f:18:dd:b5:76:a2:51:78:b0:d6:81:f6:6d:e8:46:
        a3:c0:60:4d:b8:80:7e:74:fb:75:89:0a:9d:e2:c3:c2:2d:53:
        16:8e:aa:af:18:a9:c4:a2:74:62:83:8f:87:25:25:0a:8c:bc:
        2d:2a:fe:b5:ce:d5:0c:ea:09:47:6d:de:a7:01:8c:5e:a5:01:
        43:21:36:84:f5:1a:9b:cd:db:67:35:98:96:cb:c7:6e:b1:2a:
        90:aa:48:67:5f:ff:db:97:56:af:87:23:20:3e:db:45:75:41:
        98:ca:bb:e0:50:cc:3e:69:5c:89:d2:be:ee:39:b4:7c:7a:76:
        04:dc:92:3c:e8:0b:95:f9:77:25:ae:0f:83:44:39:99:95:ab:
        99:d3:b4:28:ec:00:eb:6f:a0:ce:da:9b:ca:cd:05:66:5b:0f:
        f0:6e:07:b3:60:6f:8a:00:f6:0f:80:00:c6:81:73:9e:8a:b2:
        10:60:af:c1:81:49:81:77:9b:d7:16:a3:0c:13:c4:8b:db:db:
        b0:a3:17:f5:a9:1c:b3:b7:dc:02:61:f8:e8:38:bc:22:1a:84:
        7e:be:39:fe:13:84:77:cf:01:68:da:76:42:51:bc:9c:77:13:
        1d:71:e3:7d:52:80:ba:98:9b:4e:5a:6b:44:ef:6c:2e:3f:24:
        c6:f0:10:bf:55:57:0d:ef:9d:2e:af:fa:a5:a9:8a:cf:7a:f6:
        7d:d0:ec:03:c5:28:36:6e:83:a0:74:fc:3b:3e:92:bb:8f:06:
        40:4b:48:d1:3c:cb:5c:42:8b:ea:da:3f:68:59:90:f1:b2:ae:
        21:23:13:f8:26:d0:15:93:e7:04:e2:01:42:2f:d7:a9:78:da:
        69:77:f8:45:3f:36:d1:21:4d:f0:cc:24:c9:72:40:63:a1:b4:
        91:f5:b9:35:04:77:9c:9a
-----BEGIN CERTIFICATE-----
MIIFXjCCA0agAwIBAgIQHtSlIi3qgfKXtuPJjH3/TDANBgkqhkiG9w0BAQsFADAZ
MRcwFQYDVQQDDA52cG4uamVua2lucy5pbzAeFw0yNTA3MDQwNTIwMzhaFw0yODA2
MTgwNTIwMzhaMBUxEzARBgNVBAMMCm5vdG15ZmF1bHQwggIiMA0GCSqGSIb3DQEB
AQUAA4ICDwAwggIKAoICAQDJIyE74Dc1s8EcR7b+5DKN23553btE3fR4nwaWhkLT
fv31w1euipd2gJfGRju5UZvhNq9VUnptEtfbYdIQfQ+ZUHQSaRmKSgUNfeqnwRIj
/LPlWa6R22Ym+JFseYVwBQ6139b6MBP/W0cfW/cdIzuBg/W9NIKIaeJAe+yX+nKU
IS/akBjgNCSvdBJBOL/dActZ5jTUP7gAu31FI5TsU9cWWJwy+614fzUY3oUdmZtR
J0izwgt8Td2s0U7P8ezL31/c1eqcZpmA6gHQaC6EUViyW+Taz+1BdU5AQIrtY1Ne
wrlsxVV3rfBc6UR4AO7QgdEIInZmAvNW+tebF00sZbapwudGqsBHERwpAx87fLbA
fp62FlsJ/KVcjnI7yl9C6zRfMbDsrBk8nzkPcgESUe/jDbOHUnEZorOUm7UJ/M60
CTqX3o91mNUkhVUtvQ6Of1ILuk2PFda9pgMJ9I0J99Nvz5M21aBaDhTwhbbpBgU5
gNHmLMh3C6J3Iw9FZni/ruHHaEX+L08ugQxkEYwlVwStG9d5ijbcBANh3yb+6qvu
G4W+Xn4qGiB4eneoHDZibEjZaD9ErsaOH83x0qOITUGy9ICl3i7T4TTxYKxqCdGA
UOeNvpJW8WOTM2j5Pyf8ROwQxzc8EWMZ0OLBEQIJiaLEB0bJdkgxcTIohf20zs18
QQIDAQABo4GlMIGiMAkGA1UdEwQCMAAwHQYDVR0OBBYEFNgaZniV3ZtI5F2UjxKj
OJwayEuFMFQGA1UdIwRNMEuAFIenxXU3CxRsv0YEjCpS6V3aUdzmoR2kGzAZMRcw
FQYDVQQDDA52cG4uamVua2lucy5pb4IUCAGqbRsxQE97nHVUVHi1NmU7fLMwEwYD
VR0lBAwwCgYIKwYBBQUHAwIwCwYDVR0PBAQDAgeAMA0GCSqGSIb3DQEBCwUAA4IC
AQB9qJPnyEMt2FN/76TtenDY5bRjyLU8D+c9LUAAJTWRP/8Ai/eCFgbR+oDbDecK
H0XJtyLnohWookoLdtYzaYggZqyvWdLyiVR13bQFOiS7KQQX+aD+4X9Dsq4od6O9
IOsCNAzBzOu2bjEHWcs19BDSpXFEIXn4RnWGaGBsWN5z8gWh5/MJi0aTWbvhO7zA
zPBGAkGc3ykv9/PV0z/9/am648W75d9vGN21dqJReLDWgfZt6EajwGBNuIB+dPt1
iQqd4sPCLVMWjqqvGKnEonRig4+HJSUKjLwtKv61ztUM6glHbd6nAYxepQFDITaE
9RqbzdtnNZiWy8dusSqQqkhnX//bl1avhyMgPttFdUGYyrvgUMw+aVyJ0r7uObR8
enYE3JI86AuV+Xclrg+DRDmZlauZ07Qo7ADrb6DO2pvKzQVmWw/wbgezYG+KAPYP
gADGgXOeirIQYK/BgUmBd5vXFqMME8SL29uwoxf1qRyzt9wCYfjoOLwiGoR+vjn+
E4R3zwFo2nZCUbycdxMdceN9UoC6mJtOWmtE72wuPyTG8BC/VVcN750ur/qlqYrP
evZ90OwDxSg2boOgdPw7PpK7jwZAS0jRPMtcQovq2j9oWZDxsq4hIxP4JtAVk+cE
4gFCL9epeNppd/hFPzbRIU3wzCTJckBjobSR9bk1BHecmg==
-----END CERTIFICATE-----
