Certificate:
    Data:
        Version: 3 (0x2)
        Serial Number:
            1f:b0:82:58:93:a8:f4:82:73:fa:f9:e8:7d:27:b5:28
    Signature Algorithm: sha256WithRSAEncryption
        Issuer: CN=vpn.jenkins.io
        Validity
            Not Before: Sep 18 07:41:31 2022 GMT
            Not After : Sep  2 07:41:31 2025 GMT
        Subject: CN=dnusbaum
        Subject Public Key Info:
            Public Key Algorithm: rsaEncryption
                Public-Key: (4096 bit)
                Modulus:
                    00:ce:b0:1c:43:eb:86:21:e4:ca:1a:eb:ab:28:a5:
                    e5:33:7c:38:a3:3f:5f:bd:1b:55:45:3a:81:bf:d5:
                    13:b4:19:e9:f2:a7:c3:55:36:7f:7b:33:54:49:fa:
                    ab:6d:92:e0:52:99:30:92:b1:15:47:cb:ab:54:2c:
                    03:34:2e:f9:22:8d:c5:be:b2:53:21:f9:d6:78:f1:
                    2e:b7:bf:27:f1:1a:2f:ff:66:06:f6:8d:24:a0:dc:
                    96:4c:dd:da:dc:01:41:52:66:33:1b:ab:2b:84:9d:
                    d2:40:3f:4f:45:09:60:b8:9f:1a:ba:56:52:c7:a1:
                    e5:83:d8:58:de:dc:11:03:a9:61:9a:04:5a:3c:6c:
                    49:35:87:7c:b0:68:9d:08:12:e8:85:c5:3b:01:76:
                    5e:c7:2e:96:fd:86:e6:d5:05:f9:35:b7:3a:17:4c:
                    14:94:9d:c9:d8:85:03:c1:ec:f4:c7:2e:a3:f2:3f:
                    77:49:fa:d5:4f:b1:3b:23:fa:a7:5e:06:00:77:a9:
                    b2:40:e5:40:16:b9:bd:a2:31:91:43:f3:7d:d4:6e:
                    57:3e:90:8a:e6:54:bd:a0:4e:68:fe:9a:b1:99:e8:
                    23:78:d4:72:aa:fa:f6:cd:7b:ac:1b:c5:33:42:59:
                    fa:47:2e:c1:26:81:9c:d4:68:bb:db:e2:74:67:6a:
                    7f:21:aa:ab:f0:b5:ae:27:93:50:88:23:01:c4:53:
                    ea:81:97:c6:85:b7:97:a3:c7:79:e2:26:d9:86:a9:
                    04:79:c9:63:68:44:27:cc:c4:fb:ae:6a:46:ca:0a:
                    54:43:e6:2f:f8:42:cf:b1:ea:3a:7f:39:18:fd:10:
                    84:ad:70:e0:69:55:54:a3:c7:15:b3:a0:2d:c5:34:
                    ed:3b:d2:04:df:35:e3:c4:47:5d:55:73:3a:fe:2f:
                    06:b1:82:2f:05:3c:80:95:77:73:3d:e5:96:6a:dd:
                    a6:ff:8e:48:05:32:40:d1:23:8b:90:b7:8f:82:18:
                    4c:89:72:b2:61:05:61:53:b6:d7:0e:17:17:e2:81:
                    3b:43:13:61:ba:b2:06:43:dd:72:78:4b:76:ac:4d:
                    67:86:a5:1f:40:d4:b3:8b:21:33:88:a7:16:b0:4e:
                    c2:59:07:30:87:58:b5:51:fe:26:90:32:ef:9b:ec:
                    7a:b5:05:c5:3e:a9:07:47:ab:84:ea:0c:7f:ff:d2:
                    83:ac:5c:1c:dc:4d:08:1d:a7:61:24:78:34:6c:e0:
                    1a:78:22:6b:44:c9:06:e9:f2:f9:86:8c:a4:97:dc:
                    fa:be:10:1a:7a:b9:02:3f:1c:75:2a:46:29:0d:43:
                    89:b3:06:0f:70:64:fa:d5:fe:5c:f1:40:ca:51:cb:
                    2b:87:bf
                Exponent: 65537 (0x10001)
        X509v3 extensions:
            X509v3 Basic Constraints: 
                CA:FALSE
            X509v3 Subject Key Identifier: 
                FE:DF:CE:F4:AD:D7:DD:84:DE:08:4C:D2:CB:5A:0E:9B:CC:87:85:8D
            X509v3 Authority Key Identifier: 
                keyid:87:A7:C5:75:37:0B:14:6C:BF:46:04:8C:2A:52:E9:5D:DA:51:DC:E6
                DirName:/CN=vpn.jenkins.io
                serial:08:01:AA:6D:1B:31:40:4F:7B:9C:75:54:54:78:B5:36:65:3B:7C:B3

            X509v3 Extended Key Usage: 
                TLS Web Client Authentication
            X509v3 Key Usage: 
                Digital Signature
    Signature Algorithm: sha256WithRSAEncryption
         a5:85:c7:b6:3a:b4:13:26:e0:60:34:c4:2c:db:2f:db:f4:81:
         f9:1d:50:9d:93:e3:ad:00:12:7f:83:d3:51:63:22:b3:07:7b:
         1c:bb:ef:0c:fa:2a:11:02:29:1d:af:bd:5f:f4:31:df:d9:39:
         c1:f7:c3:c4:3f:91:35:94:7a:75:bd:85:1a:41:77:95:a4:2d:
         f9:7e:5a:df:e8:9a:2a:48:2c:50:af:f3:40:1e:25:41:fb:e5:
         eb:1c:e7:b4:74:df:dd:b8:a1:0d:da:95:a8:3f:39:e2:aa:e9:
         06:15:d5:cf:b3:56:d3:df:14:e8:f0:48:5e:64:c1:9c:6b:8f:
         5b:03:30:85:4a:7a:25:55:7a:2a:14:f7:78:c7:e9:70:5a:dd:
         e4:2f:f2:4b:03:b5:4e:7b:33:3a:3e:d9:c2:3c:b8:3a:7f:0f:
         8b:69:fe:81:b4:50:26:51:00:2f:95:f1:23:32:af:d4:ec:87:
         46:57:22:22:3b:ed:d3:0c:17:93:fe:f1:28:ca:eb:58:38:07:
         d3:46:18:e9:cf:6a:5b:40:f4:38:f5:e6:3a:e2:4d:04:02:c5:
         45:e4:e1:83:13:1a:48:6b:10:95:a9:04:3c:d9:ad:cf:ae:0d:
         3e:9a:a7:6c:d3:5b:3f:ee:6a:f8:4b:44:4d:25:85:25:c8:dc:
         6c:94:0d:7a:84:92:d7:5e:05:5c:7b:ad:09:4e:ec:ac:ef:93:
         63:28:1c:1c:c3:5d:bc:08:bf:4b:ab:3e:52:e4:80:d5:8a:3f:
         b1:38:d7:01:d2:fb:1c:34:d9:2e:58:22:8b:cb:88:46:51:0c:
         87:89:17:d5:06:0b:da:1a:5c:91:fb:02:89:25:2b:eb:0f:d0:
         9d:82:62:bc:7c:fd:d3:e9:c1:f2:d5:e0:c1:d2:c2:50:c8:c8:
         f3:59:2a:ec:46:ee:a9:e5:dd:34:44:16:fd:c8:0a:ae:fb:e0:
         00:30:6b:b1:f4:d6:f9:3b:5a:ba:a5:32:cb:2a:17:0c:05:c2:
         66:d3:30:34:27:a6:4a:0c:66:ef:df:d0:f8:50:50:19:3c:28:
         24:43:b4:49:fb:4d:e6:a6:2e:44:9d:70:22:0d:f1:e2:18:3a:
         5c:ab:74:cf:4c:a3:80:fc:36:a0:1a:55:5d:fc:6a:11:2f:47:
         d2:15:4f:2c:03:14:16:99:45:b1:3e:e7:50:c2:7f:e7:60:fd:
         52:9a:06:0a:54:4b:65:aa:e1:4b:89:a8:e8:5e:84:ff:9b:98:
         f0:0f:a7:4d:e9:33:21:35:93:5c:f1:75:7c:c2:4e:78:b7:04:
         0e:8f:05:19:58:68:0d:9a:c7:cd:36:bc:75:ad:63:9d:fd:e4:
         05:6a:fa:eb:50:06:34:79
-----BEGIN CERTIFICATE-----
MIIFXDCCA0SgAwIBAgIQH7CCWJOo9IJz+vnofSe1KDANBgkqhkiG9w0BAQsFADAZ
MRcwFQYDVQQDDA52cG4uamVua2lucy5pbzAeFw0yMjA5MTgwNzQxMzFaFw0yNTA5
MDIwNzQxMzFaMBMxETAPBgNVBAMMCGRudXNiYXVtMIICIjANBgkqhkiG9w0BAQEF
AAOCAg8AMIICCgKCAgEAzrAcQ+uGIeTKGuurKKXlM3w4oz9fvRtVRTqBv9UTtBnp
8qfDVTZ/ezNUSfqrbZLgUpkwkrEVR8urVCwDNC75Io3FvrJTIfnWePEut78n8Rov
/2YG9o0koNyWTN3a3AFBUmYzG6srhJ3SQD9PRQlguJ8aulZSx6Hlg9hY3twRA6lh
mgRaPGxJNYd8sGidCBLohcU7AXZexy6W/Ybm1QX5Nbc6F0wUlJ3J2IUDwez0xy6j
8j93SfrVT7E7I/qnXgYAd6myQOVAFrm9ojGRQ/N91G5XPpCK5lS9oE5o/pqxmegj
eNRyqvr2zXusG8UzQln6Ry7BJoGc1Gi72+J0Z2p/Iaqr8LWuJ5NQiCMBxFPqgZfG
hbeXo8d54ibZhqkEecljaEQnzMT7rmpGygpUQ+Yv+ELPseo6fzkY/RCErXDgaVVU
o8cVs6AtxTTtO9IE3zXjxEddVXM6/i8GsYIvBTyAlXdzPeWWat2m/45IBTJA0SOL
kLePghhMiXKyYQVhU7bXDhcX4oE7QxNhurIGQ91yeEt2rE1nhqUfQNSziyEziKcW
sE7CWQcwh1i1Uf4mkDLvm+x6tQXFPqkHR6uE6gx//9KDrFwc3E0IHadhJHg0bOAa
eCJrRMkG6fL5hoykl9z6vhAaerkCPxx1KkYpDUOJswYPcGT61f5c8UDKUcsrh78C
AwEAAaOBpTCBojAJBgNVHRMEAjAAMB0GA1UdDgQWBBT+3870rdfdhN4ITNLLWg6b
zIeFjTBUBgNVHSMETTBLgBSHp8V1NwsUbL9GBIwqUuld2lHc5qEdpBswGTEXMBUG
A1UEAwwOdnBuLmplbmtpbnMuaW+CFAgBqm0bMUBPe5x1VFR4tTZlO3yzMBMGA1Ud
JQQMMAoGCCsGAQUFBwMCMAsGA1UdDwQEAwIHgDANBgkqhkiG9w0BAQsFAAOCAgEA
pYXHtjq0EybgYDTELNsv2/SB+R1QnZPjrQASf4PTUWMiswd7HLvvDPoqEQIpHa+9
X/Qx39k5wffDxD+RNZR6db2FGkF3laQt+X5a3+iaKkgsUK/zQB4lQfvl6xzntHTf
3bihDdqVqD854qrpBhXVz7NW098U6PBIXmTBnGuPWwMwhUp6JVV6KhT3eMfpcFrd
5C/ySwO1TnszOj7Zwjy4On8Pi2n+gbRQJlEAL5XxIzKv1OyHRlciIjvt0wwXk/7x
KMrrWDgH00YY6c9qW0D0OPXmOuJNBALFReThgxMaSGsQlakEPNmtz64NPpqnbNNb
P+5q+EtETSWFJcjcbJQNeoSS114FXHutCU7srO+TYygcHMNdvAi/S6s+UuSA1Yo/
sTjXAdL7HDTZLlgii8uIRlEMh4kX1QYL2hpckfsCiSUr6w/QnYJivHz90+nB8tXg
wdLCUMjI81kq7EbuqeXdNEQW/cgKrvvgADBrsfTW+TtauqUyyyoXDAXCZtMwNCem
Sgxm79/Q+FBQGTwoJEO0SftN5qYuRJ1wIg3x4hg6XKt0z0yjgPw2oBpVXfxqES9H
0hVPLAMUFplFsT7nUMJ/52D9UpoGClRLZarhS4mo6F6E/5uY8A+nTekzITWTXPF1
fMJOeLcEDo8FGVhoDZrHzTa8da1jnf3kBWr661AGNHk=
-----END CERTIFICATE-----
