Certificate:
    Data:
        Version: 3 (0x2)
        Serial Number:
            25:87:1e:01:33:85:7e:2c:9b:17:5f:fd:ff:0c:1b:3a
        Signature Algorithm: sha256WithRSAEncryption
        Issuer: CN=vpn.jenkins.io
        Validity
            Not Before: Dec 16 16:25:46 2020 GMT
            Not After : Dec  1 16:25:46 2023 GMT
        Subject: CN=dduportal
        Subject Public Key Info:
            Public Key Algorithm: rsaEncryption
                RSA Public-Key: (4096 bit)
                Modulus:
                    00:dd:df:a0:fa:53:1b:27:50:a4:9f:67:11:34:c5:
                    5c:59:6e:3a:b9:aa:64:c1:76:ce:58:00:aa:95:b6:
                    a3:0a:f2:a4:b9:de:bc:81:7d:b4:8b:d0:15:8f:53:
                    01:a5:ed:5c:52:31:24:38:0b:ee:ee:cf:5d:90:2e:
                    32:f6:88:da:be:35:4d:b1:36:30:86:4c:ee:01:38:
                    c8:96:77:eb:1b:df:d1:b2:0d:8d:fc:9e:a7:e4:6f:
                    b5:00:be:39:1a:53:bc:b5:7d:3e:35:27:fc:b0:ca:
                    3c:32:d0:36:6f:fc:7c:47:8a:f7:62:92:dd:00:85:
                    aa:e8:f6:3d:05:da:fb:c7:18:c0:89:0e:98:c0:0c:
                    fb:a7:4b:3c:ac:16:30:4d:16:65:18:f4:d6:ce:e9:
                    29:ea:52:d4:2f:00:3b:97:0b:5e:bf:74:34:c1:5b:
                    eb:63:b8:d3:63:55:7b:6e:21:5d:28:53:20:fe:99:
                    60:bf:8d:51:c7:52:64:b6:38:8a:1b:76:23:b4:1e:
                    3a:ad:19:a5:56:8b:de:f9:b2:ae:e5:80:1f:87:a9:
                    6e:45:e5:5e:20:a6:7d:c7:ef:04:71:3d:f6:f0:f6:
                    cc:d3:40:ce:6b:e5:fe:37:f3:8d:47:52:ea:ce:7e:
                    9a:66:c3:3e:0c:5b:27:97:63:c5:a5:65:6c:4e:ea:
                    6f:5d:c8:0f:70:a6:b4:12:f5:57:83:b4:43:e1:fd:
                    a8:17:3e:26:b0:6d:11:93:44:6c:15:02:53:0c:65:
                    ec:51:d7:b1:70:e8:3d:e5:a3:d6:2f:e4:b8:23:14:
                    17:83:fc:d8:a7:7c:c5:db:ac:95:b6:77:5b:bb:e2:
                    e0:ed:09:db:b8:83:03:66:c9:1b:33:72:f2:ef:17:
                    6e:fe:89:42:70:b1:fd:07:66:cd:ad:c4:ac:1b:5c:
                    f8:4d:8b:09:3b:0c:1e:57:b6:79:a1:61:95:eb:18:
                    36:3b:84:98:42:63:11:da:df:c3:74:bd:73:fe:ee:
                    25:2c:f0:92:28:5a:29:49:79:b7:01:64:91:62:11:
                    90:33:bb:29:7a:ec:37:99:ae:3b:19:87:a4:c5:59:
                    de:8f:41:5a:2a:b6:f6:20:68:1e:d2:25:f7:6e:99:
                    bc:4a:2f:b1:b2:b1:e0:e3:56:86:8c:45:b7:fd:97:
                    7d:34:52:3a:a5:92:a4:55:aa:b1:c4:ed:11:35:e6:
                    b6:a2:5f:3c:49:f8:9e:77:67:1f:c5:e6:81:bd:80:
                    a9:c1:e4:80:91:44:98:a0:6e:c2:8e:87:39:30:24:
                    44:04:01:e2:e8:12:b2:26:d5:4e:d7:20:3a:ef:d7:
                    43:e5:00:eb:ea:3f:e6:03:52:43:87:32:10:84:60:
                    87:78:11
                Exponent: 65537 (0x10001)
        X509v3 extensions:
            X509v3 Basic Constraints: 
                CA:FALSE
            X509v3 Subject Key Identifier: 
                30:24:51:9F:15:D8:8D:0D:D5:0A:5D:AC:D7:60:D7:FC:D8:90:5E:0C
            X509v3 Authority Key Identifier: 
                keyid:87:A7:C5:75:37:0B:14:6C:BF:46:04:8C:2A:52:E9:5D:DA:51:DC:E6
                DirName:/CN=vpn.jenkins.io
                serial:08:01:AA:6D:1B:31:40:4F:7B:9C:75:54:54:78:B5:36:65:3B:7C:B3

            X509v3 Extended Key Usage: 
                TLS Web Client Authentication
            X509v3 Key Usage: 
                Digital Signature
    Signature Algorithm: sha256WithRSAEncryption
         70:e9:67:98:6b:af:42:7a:41:0f:4d:9e:58:26:49:49:c0:8d:
         50:e9:a6:56:bc:f0:38:cc:64:68:e6:89:3a:0c:37:dd:7f:a9:
         57:9d:36:a6:28:5d:b1:31:9a:bd:38:f5:c1:fa:e3:bf:e4:dd:
         54:9f:3d:2d:2e:e3:a6:82:9f:f5:19:9b:a9:67:2c:b8:b5:ed:
         05:cf:a7:7f:2b:df:81:23:94:96:5b:a1:38:8e:36:8e:7a:3e:
         d2:b4:db:37:58:f6:9f:1a:e0:2e:27:0f:e8:8d:52:c3:53:83:
         cc:73:a0:15:55:e0:e4:1f:d6:6a:11:72:09:9b:3e:2a:2f:d8:
         03:91:25:dc:ce:ca:74:41:6e:fb:a7:03:d3:fb:3d:e3:9c:2c:
         10:5c:a2:ad:39:8e:77:4c:dc:94:13:e1:7b:83:2a:8f:34:48:
         33:34:09:d0:bb:82:d9:a7:5d:2d:99:90:00:b1:eb:47:30:e3:
         17:b4:55:9d:9f:86:e5:62:18:4c:6b:55:3f:39:6c:b3:bf:68:
         3d:a2:b3:1d:72:40:21:39:52:0d:bd:e3:a1:cc:e3:33:68:83:
         ac:e9:8a:52:86:ca:81:72:9f:42:14:02:f9:4b:36:c3:03:c8:
         a0:4e:28:b6:af:3d:d2:a0:e6:4d:cd:86:9d:8f:2d:88:ec:bb:
         55:90:ba:8a:fa:c4:1b:65:e3:f3:41:d6:89:93:47:82:e3:8a:
         d1:e1:59:4b:5a:0d:a6:12:eb:57:63:a2:b8:6f:b4:a0:1a:9b:
         fb:fb:87:5f:43:d2:7f:4f:54:cb:dc:83:98:ac:2f:b8:42:ed:
         90:23:39:68:fb:3e:b8:d5:be:37:57:f1:f5:38:77:3c:b3:60:
         d5:95:fb:b8:0f:cb:c9:cd:0a:c5:dc:ab:78:4c:3a:f3:b8:bd:
         e8:44:85:11:3c:65:77:00:21:ae:34:9e:73:b0:0f:33:18:00:
         8e:19:2d:42:b9:08:60:62:a0:9f:11:f8:52:1f:41:5d:08:98:
         89:8d:ff:c3:6e:39:1c:27:b0:f9:bc:46:7b:d9:a6:91:47:b3:
         ea:56:80:5f:a1:c0:47:aa:51:2f:84:b7:1f:1d:44:68:08:02:
         b7:13:93:7b:ad:b7:3e:55:a5:35:34:86:13:79:3c:6f:7a:6f:
         fc:55:56:60:d5:d9:ad:57:5d:88:54:55:b0:ef:bf:f9:93:87:
         ea:97:ae:f6:03:f0:8c:93:6b:88:80:03:73:b8:9b:0b:ae:7f:
         29:db:d1:47:73:df:b4:87:68:09:98:1e:72:d2:d3:74:79:85:
         2c:25:38:82:e6:8f:50:80:ad:9a:23:24:e2:ea:c6:f0:5e:85:
         df:29:66:3e:2e:ca:08:1d
-----BEGIN CERTIFICATE-----
MIIFXTCCA0WgAwIBAgIQJYceATOFfiybF1/9/wwbOjANBgkqhkiG9w0BAQsFADAZ
MRcwFQYDVQQDDA52cG4uamVua2lucy5pbzAeFw0yMDEyMTYxNjI1NDZaFw0yMzEy
MDExNjI1NDZaMBQxEjAQBgNVBAMMCWRkdXBvcnRhbDCCAiIwDQYJKoZIhvcNAQEB
BQADggIPADCCAgoCggIBAN3foPpTGydQpJ9nETTFXFluOrmqZMF2zlgAqpW2owry
pLnevIF9tIvQFY9TAaXtXFIxJDgL7u7PXZAuMvaI2r41TbE2MIZM7gE4yJZ36xvf
0bINjfyep+RvtQC+ORpTvLV9PjUn/LDKPDLQNm/8fEeK92KS3QCFquj2PQXa+8cY
wIkOmMAM+6dLPKwWME0WZRj01s7pKepS1C8AO5cLXr90NMFb62O402NVe24hXShT
IP6ZYL+NUcdSZLY4iht2I7QeOq0ZpVaL3vmyruWAH4epbkXlXiCmfcfvBHE99vD2
zNNAzmvl/jfzjUdS6s5+mmbDPgxbJ5djxaVlbE7qb13ID3CmtBL1V4O0Q+H9qBc+
JrBtEZNEbBUCUwxl7FHXsXDoPeWj1i/kuCMUF4P82Kd8xduslbZ3W7vi4O0J27iD
A2bJGzNy8u8Xbv6JQnCx/Qdmza3ErBtc+E2LCTsMHle2eaFhlesYNjuEmEJjEdrf
w3S9c/7uJSzwkihaKUl5twFkkWIRkDO7KXrsN5muOxmHpMVZ3o9BWiq29iBoHtIl
926ZvEovsbKx4ONWhoxFt/2XfTRSOqWSpFWqscTtETXmtqJfPEn4nndnH8Xmgb2A
qcHkgJFEmKBuwo6HOTAkRAQB4ugSsibVTtcgOu/XQ+UA6+o/5gNSQ4cyEIRgh3gR
AgMBAAGjgaUwgaIwCQYDVR0TBAIwADAdBgNVHQ4EFgQUMCRRnxXYjQ3VCl2s12DX
/NiQXgwwVAYDVR0jBE0wS4AUh6fFdTcLFGy/RgSMKlLpXdpR3OahHaQbMBkxFzAV
BgNVBAMMDnZwbi5qZW5raW5zLmlvghQIAaptGzFAT3ucdVRUeLU2ZTt8szATBgNV
HSUEDDAKBggrBgEFBQcDAjALBgNVHQ8EBAMCB4AwDQYJKoZIhvcNAQELBQADggIB
AHDpZ5hrr0J6QQ9NnlgmSUnAjVDppla88DjMZGjmiToMN91/qVedNqYoXbExmr04
9cH647/k3VSfPS0u46aCn/UZm6lnLLi17QXPp38r34EjlJZboTiONo56PtK02zdY
9p8a4C4nD+iNUsNTg8xzoBVV4OQf1moRcgmbPiov2AORJdzOynRBbvunA9P7PeOc
LBBcoq05jndM3JQT4XuDKo80SDM0CdC7gtmnXS2ZkACx60cw4xe0VZ2fhuViGExr
VT85bLO/aD2isx1yQCE5Ug2946HM4zNog6zpilKGyoFyn0IUAvlLNsMDyKBOKLav
PdKg5k3Nhp2PLYjsu1WQuor6xBtl4/NB1omTR4LjitHhWUtaDaYS61djorhvtKAa
m/v7h19D0n9PVMvcg5isL7hC7ZAjOWj7PrjVvjdX8fU4dzyzYNWV+7gPy8nNCsXc
q3hMOvO4vehEhRE8ZXcAIa40nnOwDzMYAI4ZLUK5CGBioJ8R+FIfQV0ImImN/8Nu
ORwnsPm8RnvZppFHs+pWgF+hwEeqUS+Etx8dRGgIArcTk3uttz5VpTU0hhN5PG96
b/xVVmDV2a1XXYhUVbDvv/mTh+qXrvYD8IyTa4iAA3O4mwuufynb0Udz37SHaAmY
HnLS03R5hSwlOILmj1CArZojJOLqxvBehd8pZj4uyggd
-----END CERTIFICATE-----
