Certificate:
    Data:
        Version: 3 (0x2)
        Serial Number:
            27:e4:3a:71:71:a5:d0:c8:9d:eb:18:dd:3a:ea:2d:cb
        Signature Algorithm: sha256WithRSAEncryption
        Issuer: CN=vpn.jenkins.io
        Validity
            Not Before: Aug 28 06:41:57 2019 GMT
            Not After : Aug 12 06:41:57 2022 GMT
        Subject: CN=slide_o_mix
        Subject Public Key Info:
            Public Key Algorithm: rsaEncryption
                RSA Public-Key: (4096 bit)
                Modulus:
                    00:e2:26:a5:3f:1b:f2:65:2b:d1:c6:ec:5b:61:68:
                    df:49:ae:4f:47:de:55:3d:67:f7:5d:7e:d7:98:7f:
                    41:23:1f:9b:53:99:c1:b8:45:47:92:f5:73:b1:6c:
                    13:44:0c:e8:ff:c1:08:5a:07:84:91:96:0d:d7:3c:
                    37:58:e7:3e:e4:8f:f6:40:f3:41:d0:e3:32:58:c4:
                    2d:3a:dd:8d:94:db:2f:34:19:42:7e:56:e7:42:4d:
                    b1:98:79:c4:62:99:1f:d5:c0:ec:83:f3:0e:11:16:
                    6f:b2:fd:64:f8:fd:b6:ed:66:3c:a9:90:61:68:e6:
                    9d:0c:5f:b6:d1:db:4b:f6:a8:97:7f:2c:35:17:10:
                    45:b1:97:cd:d4:9d:41:37:83:a2:39:cc:b2:19:5f:
                    84:95:84:00:b8:7b:9c:af:6b:a0:5a:7f:b4:b7:6c:
                    3b:87:10:6f:bb:87:46:49:c2:d9:ac:20:e3:65:09:
                    97:14:7a:2b:ce:8a:e0:af:9b:93:f0:59:7b:ac:74:
                    fc:7c:7c:90:c4:6c:29:f7:53:54:85:34:34:d7:44:
                    a7:cc:0c:29:12:a0:8f:d5:1f:66:af:5b:9e:ca:cf:
                    79:06:8e:67:f7:6b:41:97:ea:76:2d:db:33:5a:66:
                    44:be:21:90:8e:16:8f:bc:c3:3f:2d:9f:55:92:6f:
                    c1:91:20:42:9d:48:a7:91:34:e2:76:86:e0:22:86:
                    20:10:75:5d:57:77:ef:78:a2:60:19:6b:13:5a:86:
                    6b:20:32:f3:30:1a:e2:1b:c1:d5:3e:15:c3:61:8a:
                    0a:2e:53:fa:d1:82:2f:6c:c4:29:d7:ba:93:53:2c:
                    a9:4e:e2:ef:38:4e:9d:92:d0:14:f0:76:a8:f9:ca:
                    06:54:a5:5c:2a:3e:70:68:5c:4b:ba:ac:2a:3c:e7:
                    4b:12:97:29:57:33:5c:85:41:da:4a:09:e3:cf:5d:
                    66:57:bf:8d:a5:ec:78:2d:ce:ef:5b:37:e4:8a:fa:
                    b0:f4:84:51:06:c2:d2:36:02:6a:21:66:86:1c:76:
                    4e:2f:95:55:c8:ab:da:9a:3f:81:f3:f1:ee:e6:92:
                    8b:cd:bf:5d:72:91:6f:4a:f4:6e:a2:3b:8a:6b:ff:
                    64:b9:b5:b9:d5:84:53:ad:26:8a:c8:fd:77:29:b4:
                    bf:88:b8:af:c4:09:2d:c2:64:5a:da:45:e0:38:af:
                    be:a2:20:52:25:47:26:c0:ac:12:79:db:ae:1f:de:
                    25:2b:5b:f9:d2:d2:bc:69:63:fb:10:ad:e2:31:0c:
                    b3:c4:d5:9e:c3:55:36:e2:c7:f0:5c:8b:ea:34:12:
                    87:d5:e7:63:18:ff:17:97:7e:64:40:a8:0e:57:b8:
                    33:5a:5f
                Exponent: 65537 (0x10001)
        X509v3 extensions:
            X509v3 Basic Constraints: 
                CA:FALSE
            X509v3 Subject Key Identifier: 
                73:47:81:4D:38:DB:E0:0A:4C:CF:F7:7D:55:0D:C6:BC:F7:6B:76:8C
            X509v3 Authority Key Identifier: 
                keyid:87:A7:C5:75:37:0B:14:6C:BF:46:04:8C:2A:52:E9:5D:DA:51:DC:E6
                DirName:/CN=vpn.jenkins.io
                serial:08:01:AA:6D:1B:31:40:4F:7B:9C:75:54:54:78:B5:36:65:3B:7C:B3

            X509v3 Extended Key Usage: 
                TLS Web Client Authentication
            X509v3 Key Usage: 
                Digital Signature
    Signature Algorithm: sha256WithRSAEncryption
         2b:be:24:bb:0c:97:74:30:87:94:6c:2e:b2:01:90:6f:50:18:
         c2:89:e3:6a:45:c5:31:30:c3:e0:d0:74:82:33:11:a0:f1:58:
         14:2d:b3:cc:05:e0:4b:36:c0:da:53:29:f9:e7:bc:42:f3:db:
         4c:21:82:aa:58:80:b3:7a:8c:15:6c:b6:3a:c6:2e:25:cc:61:
         a6:ff:02:97:af:cf:30:c5:75:ce:5e:a3:e5:c5:b9:8a:f6:c6:
         10:8e:9b:0d:b3:e8:8b:9a:f1:d8:44:6d:7b:90:10:08:98:b8:
         24:a6:1c:a0:74:3c:c9:63:9c:7a:8a:a7:fc:b4:c8:3d:7c:85:
         fa:da:58:a5:c9:ff:50:a0:9a:6c:c3:75:4c:08:82:5f:33:0e:
         e1:8c:95:2a:81:eb:5b:86:cd:6e:0f:e4:46:e9:c7:ea:67:a2:
         8d:0d:60:86:03:8b:ee:d3:d3:6d:90:99:d5:a9:00:e7:e4:8b:
         1f:e8:93:32:68:94:e0:33:67:fc:95:c0:a6:34:6d:19:ef:4a:
         93:ff:4f:3e:93:09:6a:4d:a2:51:a6:e5:ec:2b:d0:85:6b:2d:
         bb:74:67:17:63:2d:9a:25:e9:ec:de:66:9d:da:0c:3e:af:17:
         72:74:6f:73:a5:55:20:da:10:79:c4:03:22:f5:84:02:80:a7:
         20:0d:62:46:c3:8a:51:e0:85:6f:97:1c:ed:07:6c:ac:dc:ea:
         10:69:ca:a4:a5:9a:cb:ba:df:b1:f5:48:6a:d5:71:d7:e6:a9:
         fd:c4:64:85:08:1b:94:ee:0e:2b:bd:8f:d8:3e:cf:88:9d:f5:
         36:93:a4:a0:94:84:27:2a:92:c3:25:01:2f:8d:be:84:23:6a:
         46:e6:c6:c4:c0:8e:40:27:4c:a5:58:df:39:15:b5:fb:fe:fb:
         2f:c7:1b:20:fc:6d:41:7f:d6:fa:26:b8:62:15:4f:3d:a7:31:
         f0:65:80:4a:5b:ca:1c:55:15:cd:ac:90:5d:12:2d:d8:6c:87:
         75:e3:75:47:03:cf:2b:83:0b:99:4a:76:a3:8d:3e:3a:4c:4f:
         ac:cb:95:70:a0:31:8b:21:3b:e6:62:09:ae:7a:8d:f8:eb:f3:
         2d:7d:59:09:3c:7e:03:70:12:50:b0:de:dc:64:2e:4c:2d:d0:
         cb:5e:bf:14:b2:03:73:bc:be:b5:b9:65:95:a3:b6:f6:86:9b:
         20:c4:7a:36:21:0b:40:b9:4b:35:66:07:0d:8d:59:13:b4:0d:
         e5:e8:64:c1:f3:9b:c7:c2:34:02:5e:7a:df:46:ac:d2:e8:21:
         25:fe:4c:85:ad:bb:47:cd:b9:c3:52:0d:27:0e:3a:6a:fb:72:
         bc:25:ac:1c:70:77:ca:23
-----BEGIN CERTIFICATE-----
MIIFXzCCA0egAwIBAgIQJ+Q6cXGl0Mid6xjdOuotyzANBgkqhkiG9w0BAQsFADAZ
MRcwFQYDVQQDDA52cG4uamVua2lucy5pbzAeFw0xOTA4MjgwNjQxNTdaFw0yMjA4
MTIwNjQxNTdaMBYxFDASBgNVBAMMC3NsaWRlX29fbWl4MIICIjANBgkqhkiG9w0B
AQEFAAOCAg8AMIICCgKCAgEA4ialPxvyZSvRxuxbYWjfSa5PR95VPWf3XX7XmH9B
Ix+bU5nBuEVHkvVzsWwTRAzo/8EIWgeEkZYN1zw3WOc+5I/2QPNB0OMyWMQtOt2N
lNsvNBlCflbnQk2xmHnEYpkf1cDsg/MOERZvsv1k+P227WY8qZBhaOadDF+20dtL
9qiXfyw1FxBFsZfN1J1BN4OiOcyyGV+ElYQAuHucr2ugWn+0t2w7hxBvu4dGScLZ
rCDjZQmXFHorzorgr5uT8Fl7rHT8fHyQxGwp91NUhTQ010SnzAwpEqCP1R9mr1ue
ys95Bo5n92tBl+p2LdszWmZEviGQjhaPvMM/LZ9Vkm/BkSBCnUinkTTidobgIoYg
EHVdV3fveKJgGWsTWoZrIDLzMBriG8HVPhXDYYoKLlP60YIvbMQp17qTUyypTuLv
OE6dktAU8Hao+coGVKVcKj5waFxLuqwqPOdLEpcpVzNchUHaSgnjz11mV7+Npex4
Lc7vWzfkivqw9IRRBsLSNgJqIWaGHHZOL5VVyKvamj+B8/Hu5pKLzb9dcpFvSvRu
ojuKa/9kubW51YRTrSaKyP13KbS/iLivxAktwmRa2kXgOK++oiBSJUcmwKwSeduu
H94lK1v50tK8aWP7EK3iMQyzxNWew1U24sfwXIvqNBKH1edjGP8Xl35kQKgOV7gz
Wl8CAwEAAaOBpTCBojAJBgNVHRMEAjAAMB0GA1UdDgQWBBRzR4FNONvgCkzP931V
Dca892t2jDBUBgNVHSMETTBLgBSHp8V1NwsUbL9GBIwqUuld2lHc5qEdpBswGTEX
MBUGA1UEAwwOdnBuLmplbmtpbnMuaW+CFAgBqm0bMUBPe5x1VFR4tTZlO3yzMBMG
A1UdJQQMMAoGCCsGAQUFBwMCMAsGA1UdDwQEAwIHgDANBgkqhkiG9w0BAQsFAAOC
AgEAK74kuwyXdDCHlGwusgGQb1AYwonjakXFMTDD4NB0gjMRoPFYFC2zzAXgSzbA
2lMp+ee8QvPbTCGCqliAs3qMFWy2OsYuJcxhpv8Cl6/PMMV1zl6j5cW5ivbGEI6b
DbPoi5rx2ERte5AQCJi4JKYcoHQ8yWOceoqn/LTIPXyF+tpYpcn/UKCabMN1TAiC
XzMO4YyVKoHrW4bNbg/kRunH6meijQ1ghgOL7tPTbZCZ1akA5+SLH+iTMmiU4DNn
/JXApjRtGe9Kk/9PPpMJak2iUabl7CvQhWstu3RnF2MtmiXp7N5mndoMPq8XcnRv
c6VVINoQecQDIvWEAoCnIA1iRsOKUeCFb5cc7QdsrNzqEGnKpKWay7rfsfVIatVx
1+ap/cRkhQgblO4OK72P2D7PiJ31NpOkoJSEJyqSwyUBL42+hCNqRubGxMCOQCdM
pVjfORW1+/77L8cbIPxtQX/W+ia4YhVPPacx8GWASlvKHFUVzayQXRIt2GyHdeN1
RwPPK4MLmUp2o40+OkxPrMuVcKAxiyE75mIJrnqN+OvzLX1ZCTx+A3ASULDe3GQu
TC3Qy16/FLIDc7y+tblllaO29oabIMR6NiELQLlLNWYHDY1ZE7QN5ehkwfObx8I0
Al5630as0ughJf5Mha27R825w1INJw46avtyvCWsHHB3yiM=
-----END CERTIFICATE-----
