Certificate:
    Data:
        Version: 3 (0x2)
        Serial Number:
            38:6e:e1:56:5e:54:f1:fc:82:19:8d:81:ec:e6:08:93
        Signature Algorithm: sha256WithRSAEncryption
        Issuer: CN=vpn.jenkins.io
        Validity
            Not Before: Mar 13 14:05:53 2019 GMT
            Not After : Feb 25 14:05:53 2022 GMT
        Subject: CN=olblak
        Subject Public Key Info:
            Public Key Algorithm: rsaEncryption
                RSA Public-Key: (4096 bit)
                Modulus:
                    00:dd:c4:16:29:70:15:35:61:04:08:4c:f1:11:7a:
                    20:11:b8:b3:0f:4a:82:36:28:e3:4a:d5:00:76:f4:
                    54:09:da:2e:52:ac:87:05:15:79:e4:a5:5f:04:ff:
                    73:45:fe:d3:35:ba:02:f6:08:a2:cb:17:28:58:a8:
                    00:8d:a9:12:9a:46:03:e2:c7:01:94:ce:8e:00:35:
                    b9:be:65:7f:fe:76:ea:e8:1d:3a:0b:94:42:dc:b9:
                    2f:19:79:a8:4b:d1:88:5b:95:a5:bb:e6:58:86:31:
                    71:69:2e:6a:f3:32:6b:af:5d:48:1d:34:25:1d:a2:
                    b3:c1:c9:a0:49:1b:45:78:19:81:a4:52:57:b5:0d:
                    e8:85:34:ef:b3:fa:c8:c5:c6:47:8c:bd:4a:07:22:
                    c1:57:86:68:94:fa:08:20:57:a2:8b:7b:f4:43:ea:
                    96:c3:44:ad:43:d2:ab:0c:25:e4:ea:b0:3f:f2:5f:
                    44:7f:78:b3:af:c0:45:e0:e1:99:31:4b:03:f3:bf:
                    bf:1f:f2:c1:5d:93:3b:54:6d:16:ef:74:4d:af:5f:
                    f1:3b:3f:89:d0:12:61:13:00:57:98:2e:b2:32:f5:
                    5e:57:2f:63:08:e4:e0:5f:ef:cb:89:6c:05:dc:21:
                    72:fd:7c:f0:6b:bb:51:1d:23:32:6b:34:26:7f:b0:
                    a1:63:0b:69:e2:be:f5:34:62:8f:f5:c0:8a:0f:6a:
                    0d:02:46:5d:c3:9e:34:be:5a:8e:57:62:14:48:95:
                    63:1f:d4:aa:e6:84:78:5c:45:d2:ec:bb:7a:ce:14:
                    fa:2e:55:ea:1d:ef:0d:ec:a5:4d:df:76:09:e9:1c:
                    34:16:6d:5d:12:cb:95:2a:24:a7:35:10:20:d9:17:
                    2a:cc:36:0a:ae:ec:b9:e6:f5:1d:4d:c7:8c:e0:3c:
                    92:21:c3:2c:31:c1:d4:8a:65:cc:10:fd:0a:2e:84:
                    94:91:cf:c9:a7:bb:29:f0:17:54:ce:f0:98:93:10:
                    f2:23:1c:1b:c7:78:71:69:8c:d2:ca:e8:73:88:67:
                    41:4f:70:18:1b:32:f8:3c:cc:d1:54:ae:55:10:1d:
                    25:ab:2c:99:4c:a4:63:1e:84:15:d4:12:1a:42:5d:
                    bf:00:1b:96:b9:3d:a2:e9:4f:ce:80:2e:8e:b1:17:
                    e1:10:77:86:06:59:13:42:d7:f8:d8:86:c1:48:e2:
                    14:72:73:7b:ec:c4:8f:1b:15:b9:b9:60:25:53:3e:
                    97:19:27:9e:fc:b5:73:21:42:6b:41:6b:85:65:de:
                    e5:8f:01:dd:28:40:fb:99:72:51:38:76:36:09:04:
                    32:19:8e:7e:10:29:f4:18:c8:ea:09:80:d2:52:c3:
                    11:ed:a7
                Exponent: 65537 (0x10001)
        X509v3 extensions:
            X509v3 Basic Constraints: 
                CA:FALSE
            X509v3 Subject Key Identifier: 
                4B:95:74:DC:94:A2:C5:1D:62:BF:F9:A9:3E:8D:EC:7B:68:3B:5E:4F
            X509v3 Authority Key Identifier: 
                keyid:87:A7:C5:75:37:0B:14:6C:BF:46:04:8C:2A:52:E9:5D:DA:51:DC:E6
                DirName:/CN=vpn.jenkins.io
                serial:08:01:AA:6D:1B:31:40:4F:7B:9C:75:54:54:78:B5:36:65:3B:7C:B3

            X509v3 Extended Key Usage: 
                TLS Web Client Authentication
            X509v3 Key Usage: 
                Digital Signature
    Signature Algorithm: sha256WithRSAEncryption
         4e:14:ba:2a:62:db:0c:70:2f:80:bc:0c:5c:38:5d:da:e9:d8:
         8e:d3:f4:3d:48:92:1e:72:c2:42:a7:4f:62:76:35:da:ef:e3:
         53:82:57:a7:90:9c:91:63:31:7e:eb:1b:b8:07:21:8f:88:f3:
         29:9a:4b:aa:f0:bb:2a:44:6b:ca:c9:7d:81:bd:97:dc:df:54:
         22:62:4a:72:44:0d:17:a3:df:16:78:c6:72:3c:b0:6e:5f:d5:
         9c:61:fa:82:68:2a:64:11:0f:8a:f1:9e:e5:c4:41:b1:d1:2a:
         ae:6e:62:c2:78:c9:5e:d0:5e:3d:fe:a9:06:8e:a5:fb:67:aa:
         e4:75:32:60:4d:5e:b1:53:61:fd:26:79:a7:a6:54:b7:b9:b9:
         8b:7d:8d:c8:64:93:43:c9:38:62:81:28:b6:7d:ff:87:d1:4d:
         bb:09:97:a7:b8:73:b4:2f:26:12:ff:91:7b:ed:bb:97:d5:bc:
         ec:f8:05:47:d8:42:49:98:3c:11:aa:ae:06:14:3a:6e:80:aa:
         3b:df:c0:51:00:71:a4:a1:c1:8f:b2:4b:6a:bf:d2:3f:6d:7d:
         28:1a:f0:fa:ff:ee:79:e6:c4:05:e1:d2:dc:2c:ff:10:e7:de:
         04:da:cc:ab:d5:ef:d7:5e:76:ad:c8:5a:86:5a:74:d7:2e:a4:
         a6:23:d6:e3:15:6c:b1:42:e8:13:9e:ab:da:05:5a:a1:e4:b3:
         12:82:b8:52:56:de:28:a1:91:e6:7e:71:82:8e:48:b6:76:04:
         11:c0:11:28:a9:ee:10:b4:67:c4:3c:b4:d8:06:6c:eb:85:b3:
         8b:73:99:7e:9b:e4:48:74:6a:96:0d:86:d1:93:dc:7b:ba:d4:
         ff:63:04:ba:bd:d9:2c:03:b4:15:af:c7:3c:9a:d0:3f:de:ad:
         03:fa:3f:97:73:9e:99:48:57:24:fb:f9:7b:26:23:8b:d0:7d:
         6f:33:a0:64:58:fb:0b:aa:62:b8:1a:1a:ac:9a:0e:b0:84:22:
         ca:5c:d4:ba:d8:9d:82:77:b4:08:4d:34:36:01:56:eb:19:b9:
         9a:6a:c1:46:cb:62:28:8f:23:c2:c7:3d:9b:a7:8a:15:90:23:
         7b:a4:29:71:7f:9d:79:1f:b9:cc:b4:98:95:9e:29:67:94:0d:
         5c:cc:92:04:fc:74:53:62:9c:d8:ca:f7:57:30:d2:30:f8:dc:
         12:48:9d:57:08:dd:d1:b7:84:d2:6d:47:d9:6c:f0:a7:dd:e4:
         f6:72:78:58:e7:f8:e5:26:b3:44:9e:38:58:d5:ff:06:60:76:
         c8:05:d7:0a:73:b2:08:08:6a:33:58:9e:7b:c6:1e:e1:b1:05:
         b4:6a:5f:e2:13:f8:aa:94
-----BEGIN CERTIFICATE-----
MIIFWjCCA0KgAwIBAgIQOG7hVl5U8fyCGY2B7OYIkzANBgkqhkiG9w0BAQsFADAZ
MRcwFQYDVQQDDA52cG4uamVua2lucy5pbzAeFw0xOTAzMTMxNDA1NTNaFw0yMjAy
MjUxNDA1NTNaMBExDzANBgNVBAMMBm9sYmxhazCCAiIwDQYJKoZIhvcNAQEBBQAD
ggIPADCCAgoCggIBAN3EFilwFTVhBAhM8RF6IBG4sw9KgjYo40rVAHb0VAnaLlKs
hwUVeeSlXwT/c0X+0zW6AvYIossXKFioAI2pEppGA+LHAZTOjgA1ub5lf/526ugd
OguUQty5Lxl5qEvRiFuVpbvmWIYxcWkuavMya69dSB00JR2is8HJoEkbRXgZgaRS
V7UN6IU077P6yMXGR4y9SgciwVeGaJT6CCBXoot79EPqlsNErUPSqwwl5OqwP/Jf
RH94s6/AReDhmTFLA/O/vx/ywV2TO1RtFu90Ta9f8Ts/idASYRMAV5gusjL1Xlcv
Ywjk4F/vy4lsBdwhcv188Gu7UR0jMms0Jn+woWMLaeK+9TRij/XAig9qDQJGXcOe
NL5ajldiFEiVYx/UquaEeFxF0uy7es4U+i5V6h3vDeylTd92CekcNBZtXRLLlSok
pzUQINkXKsw2Cq7sueb1HU3HjOA8kiHDLDHB1IplzBD9Ci6ElJHPyae7KfAXVM7w
mJMQ8iMcG8d4cWmM0sroc4hnQU9wGBsy+DzM0VSuVRAdJassmUykYx6EFdQSGkJd
vwAblrk9oulPzoAujrEX4RB3hgZZE0LX+NiGwUjiFHJze+zEjxsVublgJVM+lxkn
nvy1cyFCa0FrhWXe5Y8B3ShA+5lyUTh2NgkEMhmOfhAp9BjI6gmA0lLDEe2nAgMB
AAGjgaUwgaIwCQYDVR0TBAIwADAdBgNVHQ4EFgQUS5V03JSixR1iv/mpPo3se2g7
Xk8wVAYDVR0jBE0wS4AUh6fFdTcLFGy/RgSMKlLpXdpR3OahHaQbMBkxFzAVBgNV
BAMMDnZwbi5qZW5raW5zLmlvghQIAaptGzFAT3ucdVRUeLU2ZTt8szATBgNVHSUE
DDAKBggrBgEFBQcDAjALBgNVHQ8EBAMCB4AwDQYJKoZIhvcNAQELBQADggIBAE4U
uipi2wxwL4C8DFw4Xdrp2I7T9D1Ikh5ywkKnT2J2Ndrv41OCV6eQnJFjMX7rG7gH
IY+I8ymaS6rwuypEa8rJfYG9l9zfVCJiSnJEDRej3xZ4xnI8sG5f1Zxh+oJoKmQR
D4rxnuXEQbHRKq5uYsJ4yV7QXj3+qQaOpftnquR1MmBNXrFTYf0meaemVLe5uYt9
jchkk0PJOGKBKLZ9/4fRTbsJl6e4c7QvJhL/kXvtu5fVvOz4BUfYQkmYPBGqrgYU
Om6AqjvfwFEAcaShwY+yS2q/0j9tfSga8Pr/7nnmxAXh0tws/xDn3gTazKvV79de
dq3IWoZadNcupKYj1uMVbLFC6BOeq9oFWqHksxKCuFJW3iihkeZ+cYKOSLZ2BBHA
ESip7hC0Z8Q8tNgGbOuFs4tzmX6b5Eh0apYNhtGT3Hu61P9jBLq92SwDtBWvxzya
0D/erQP6P5dznplIVyT7+XsmI4vQfW8zoGRY+wuqYrgaGqyaDrCEIspc1LrYnYJ3
tAhNNDYBVusZuZpqwUbLYiiPI8LHPZunihWQI3ukKXF/nXkfucy0mJWeKWeUDVzM
kgT8dFNinNjK91cw0jD43BJInVcI3dG3hNJtR9ls8Kfd5PZyeFjn+OUms0SeOFjV
/wZgdsgF1wpzsggIajNYnnvGHuGxBbRqX+IT+KqU
-----END CERTIFICATE-----
