Certificate:
    Data:
        Version: 3 (0x2)
        Serial Number:
            3a:9d:35:e2:38:e9:8d:09:17:c7:af:24:24:d9:88:59
    Signature Algorithm: sha256WithRSAEncryption
        Issuer: CN=vpn.jenkins.io
        Validity
            Not Before: Dec 13 14:38:54 2021 GMT
            Not After : Nov 27 14:38:54 2024 GMT
        Subject: CN=abayer
        Subject Public Key Info:
            Public Key Algorithm: rsaEncryption
                Public-Key: (4096 bit)
                Modulus:
                    00:eb:ba:66:1c:cb:31:e4:c8:8c:9f:4e:30:ee:91:
                    0a:15:32:48:f9:c2:d0:fe:f2:7c:1b:df:3e:13:ba:
                    26:27:6c:1e:50:ce:a4:99:08:79:45:59:3c:d0:25:
                    e5:e9:83:a7:a2:ae:dd:f8:2b:a2:a7:e8:8f:33:aa:
                    6c:96:04:54:24:ff:48:af:fd:16:ab:01:ab:69:9c:
                    29:8c:c6:0b:a5:41:5c:d2:5e:c4:b7:96:a7:5b:b6:
                    9d:1f:59:2c:f8:92:89:29:89:ac:d5:0e:bf:82:8a:
                    d9:39:32:63:b9:cd:fa:bb:48:d5:00:c6:ec:38:28:
                    00:74:be:31:ab:cf:ac:6c:bd:36:77:93:b6:ee:2f:
                    1e:4a:46:dd:0f:8e:e5:84:f7:61:da:57:2a:f0:51:
                    8d:0f:57:51:33:08:ee:8e:34:b3:d7:1d:d4:61:32:
                    fc:9f:9f:6f:b7:74:5a:c9:6d:0e:11:1d:7e:09:0c:
                    6b:a9:70:b8:42:dd:bd:e1:2f:bb:bc:2d:87:81:cb:
                    0b:ac:d3:4d:6b:75:24:57:94:2e:bd:11:34:96:13:
                    86:f5:31:16:b1:b7:2d:75:e8:2e:3a:e4:0a:e0:ca:
                    d2:dd:6c:d9:77:b5:df:70:e1:32:ef:77:fc:c0:f7:
                    3c:82:78:2e:e9:75:8a:a3:31:e9:40:f3:23:f9:29:
                    f9:22:41:d1:a6:39:b4:c1:04:d4:63:59:f2:92:80:
                    ba:11:e8:48:cd:c4:f5:88:74:75:32:f4:f8:8c:37:
                    98:d7:70:6c:e3:c3:57:71:0a:10:57:ce:75:33:f8:
                    3b:06:5b:75:4c:d7:9b:ee:27:20:4a:35:7d:96:b5:
                    0b:42:ef:62:71:7a:42:b1:f4:b7:ee:5c:a4:5c:b3:
                    05:da:ff:07:e8:a0:90:0a:e8:8f:e4:1f:5d:48:6d:
                    0b:5f:17:bf:bf:f6:a3:73:77:f7:dd:1b:72:5c:c3:
                    82:e0:71:b3:cb:25:ee:02:62:d7:ad:26:b6:3f:12:
                    2c:d7:cc:22:45:df:3f:eb:89:e8:94:3c:92:52:86:
                    78:8f:5c:df:3f:5f:3a:40:61:0c:55:70:6f:ca:37:
                    42:7b:59:af:cd:46:0b:0c:f7:e6:7f:9e:3a:15:54:
                    2d:97:ab:42:b1:47:4a:4e:84:17:3a:df:5b:90:61:
                    18:f8:6a:23:c3:1d:b1:09:8a:48:22:ec:13:ac:b6:
                    f1:31:85:55:84:f3:76:ca:e2:14:2c:54:ee:58:ae:
                    9b:e2:b9:70:7b:9e:bc:85:5c:3e:bb:86:58:5a:0d:
                    31:bf:ca:da:3e:7d:1f:d2:f4:b0:c4:ec:fe:9f:f8:
                    48:8a:23:5a:4d:ac:1d:1c:de:68:e5:a9:3d:01:02:
                    f8:12:d9
                Exponent: 65537 (0x10001)
        X509v3 extensions:
            X509v3 Basic Constraints: 
                CA:FALSE
            X509v3 Subject Key Identifier: 
                F3:6A:B5:FA:6E:61:3C:F0:E1:2B:77:73:48:35:30:27:BC:82:C9:B9
            X509v3 Authority Key Identifier: 
                keyid:87:A7:C5:75:37:0B:14:6C:BF:46:04:8C:2A:52:E9:5D:DA:51:DC:E6
                DirName:/CN=vpn.jenkins.io
                serial:08:01:AA:6D:1B:31:40:4F:7B:9C:75:54:54:78:B5:36:65:3B:7C:B3

            X509v3 Extended Key Usage: 
                TLS Web Client Authentication
            X509v3 Key Usage: 
                Digital Signature
    Signature Algorithm: sha256WithRSAEncryption
         5c:e0:e5:b8:79:b6:ce:a1:ea:30:51:1e:54:11:e9:16:ec:63:
         7e:31:23:6e:ff:eb:ae:22:b0:90:09:49:91:e4:f7:d4:03:36:
         f9:d5:ff:a0:83:c7:fc:d2:ae:a8:09:5f:97:26:b5:31:c8:eb:
         82:f5:fc:0e:7a:e0:f1:90:32:dc:43:d9:04:6f:e3:b6:99:87:
         6e:6e:14:14:00:b1:0f:bd:92:aa:60:f6:21:58:4a:ca:6d:42:
         6c:54:7f:86:c9:94:0a:01:5f:c6:2d:f5:74:02:70:39:a6:e4:
         66:7d:ff:8b:0d:27:83:c2:5c:3a:80:1a:30:f7:13:a4:6c:0e:
         0f:ea:d3:13:7c:69:6b:cb:ef:b4:9f:a1:71:cc:06:3f:b0:a5:
         85:43:93:c8:56:f2:40:91:ac:ba:5b:1c:a1:e4:83:a8:b2:45:
         d2:b7:30:de:68:a4:ec:40:06:13:c6:fc:9a:bd:d4:8c:38:f1:
         e1:6d:29:5f:af:30:6e:a6:79:b7:c7:6a:a2:f9:31:46:cb:18:
         53:d0:be:02:34:d7:a3:fc:5f:6d:de:c2:33:6c:29:db:d6:af:
         6f:7b:27:de:61:f9:35:67:34:e0:53:b8:30:ea:d8:41:b7:ab:
         4f:8b:65:86:d5:63:fe:83:07:b9:19:34:36:09:9c:39:a8:1c:
         39:92:e0:07:5e:51:8b:74:95:10:2e:c2:24:08:95:25:a2:83:
         8d:18:ee:8b:da:cf:15:7c:b0:21:c3:63:9b:8f:71:5c:ea:4e:
         73:55:95:27:f5:87:53:9d:fb:46:98:f1:2c:b3:91:99:66:8c:
         55:39:f1:57:14:e5:7d:03:18:34:44:b8:94:99:74:8b:56:e1:
         8c:ec:79:d8:63:4b:75:9b:b9:74:a7:da:59:d6:56:c7:bb:68:
         f8:6c:cc:34:8e:8d:8c:09:06:6a:c5:90:0e:69:57:7a:56:88:
         84:13:c8:62:56:5d:15:ac:50:d7:50:e8:3f:c3:97:82:dd:00:
         a2:4d:2f:8c:97:3e:94:f2:6b:04:59:34:75:8e:0c:eb:15:b5:
         17:dc:dd:d1:88:38:6a:6f:ab:05:81:65:1c:b5:3d:ca:7e:e3:
         48:52:d5:c9:60:5f:2e:18:59:da:6b:ea:79:49:c3:f6:d4:b8:
         39:73:79:fe:14:f7:d6:a1:e8:2d:1b:f1:ee:86:dc:8a:e1:cd:
         c3:de:1f:de:f5:a0:f0:a5:08:b1:cd:a8:30:4d:19:ab:5f:f4:
         aa:e5:03:52:94:34:fc:44:ef:fb:3c:e2:41:98:f3:3c:3e:18:
         25:e2:69:18:3d:aa:9b:b5:29:8f:0f:62:c6:1e:53:6e:cb:95:
         bf:03:8b:e9:bd:93:03:4f
-----BEGIN CERTIFICATE-----
MIIFWjCCA0KgAwIBAgIQOp014jjpjQkXx68kJNmIWTANBgkqhkiG9w0BAQsFADAZ
MRcwFQYDVQQDDA52cG4uamVua2lucy5pbzAeFw0yMTEyMTMxNDM4NTRaFw0yNDEx
MjcxNDM4NTRaMBExDzANBgNVBAMMBmFiYXllcjCCAiIwDQYJKoZIhvcNAQEBBQAD
ggIPADCCAgoCggIBAOu6ZhzLMeTIjJ9OMO6RChUySPnC0P7yfBvfPhO6JidsHlDO
pJkIeUVZPNAl5emDp6Ku3fgroqfojzOqbJYEVCT/SK/9FqsBq2mcKYzGC6VBXNJe
xLeWp1u2nR9ZLPiSiSmJrNUOv4KK2TkyY7nN+rtI1QDG7DgoAHS+MavPrGy9NneT
tu4vHkpG3Q+O5YT3YdpXKvBRjQ9XUTMI7o40s9cd1GEy/J+fb7d0WsltDhEdfgkM
a6lwuELdveEvu7wth4HLC6zTTWt1JFeULr0RNJYThvUxFrG3LXXoLjrkCuDK0t1s
2Xe133DhMu93/MD3PIJ4Lul1iqMx6UDzI/kp+SJB0aY5tMEE1GNZ8pKAuhHoSM3E
9Yh0dTL0+Iw3mNdwbOPDV3EKEFfOdTP4OwZbdUzXm+4nIEo1fZa1C0LvYnF6QrH0
t+5cpFyzBdr/B+igkAroj+QfXUhtC18Xv7/2o3N3990bclzDguBxs8sl7gJi160m
tj8SLNfMIkXfP+uJ6JQ8klKGeI9c3z9fOkBhDFVwb8o3QntZr81GCwz35n+eOhVU
LZerQrFHSk6EFzrfW5BhGPhqI8MdsQmKSCLsE6y28TGFVYTzdsriFCxU7lium+K5
cHuevIVcPruGWFoNMb/K2j59H9L0sMTs/p/4SIojWk2sHRzeaOWpPQEC+BLZAgMB
AAGjgaUwgaIwCQYDVR0TBAIwADAdBgNVHQ4EFgQU82q1+m5hPPDhK3dzSDUwJ7yC
ybkwVAYDVR0jBE0wS4AUh6fFdTcLFGy/RgSMKlLpXdpR3OahHaQbMBkxFzAVBgNV
BAMMDnZwbi5qZW5raW5zLmlvghQIAaptGzFAT3ucdVRUeLU2ZTt8szATBgNVHSUE
DDAKBggrBgEFBQcDAjALBgNVHQ8EBAMCB4AwDQYJKoZIhvcNAQELBQADggIBAFzg
5bh5ts6h6jBRHlQR6RbsY34xI27/664isJAJSZHk99QDNvnV/6CDx/zSrqgJX5cm
tTHI64L1/A564PGQMtxD2QRv47aZh25uFBQAsQ+9kqpg9iFYSsptQmxUf4bJlAoB
X8Yt9XQCcDmm5GZ9/4sNJ4PCXDqAGjD3E6RsDg/q0xN8aWvL77SfoXHMBj+wpYVD
k8hW8kCRrLpbHKHkg6iyRdK3MN5opOxABhPG/Jq91Iw48eFtKV+vMG6mebfHaqL5
MUbLGFPQvgI016P8X23ewjNsKdvWr297J95h+TVnNOBTuDDq2EG3q0+LZYbVY/6D
B7kZNDYJnDmoHDmS4AdeUYt0lRAuwiQIlSWig40Y7ovazxV8sCHDY5uPcVzqTnNV
lSf1h1Od+0aY8SyzkZlmjFU58VcU5X0DGDREuJSZdItW4YzsedhjS3WbuXSn2lnW
Vse7aPhszDSOjYwJBmrFkA5pV3pWiIQTyGJWXRWsUNdQ6D/Dl4LdAKJNL4yXPpTy
awRZNHWODOsVtRfc3dGIOGpvqwWBZRy1Pcp+40hS1clgXy4YWdpr6nlJw/bUuDlz
ef4U99ah6C0b8e6G3IrhzcPeH971oPClCLHNqDBNGatf9KrlA1KUNPxE7/s84kGY
8zw+GCXiaRg9qpu1KY8PYsYeU27Llb8Di+m9kwNP
-----END CERTIFICATE-----
