Certificate:
    Data:
        Version: 3 (0x2)
        Serial Number:
            47:45:d8:a5:79:93:91:b3:9f:61:ad:90:ba:eb:5b:39
        Signature Algorithm: sha256WithRSAEncryption
        Issuer: CN=vpn.jenkins.io
        Validity
            Not Before: Nov 12 09:04:25 2019 GMT
            Not After : Oct 27 09:04:25 2022 GMT
        Subject: CN=aheritier
        Subject Public Key Info:
            Public Key Algorithm: rsaEncryption
                RSA Public-Key: (4096 bit)
                Modulus:
                    00:e3:04:57:36:f1:af:02:bb:07:fb:9c:d3:e1:af:
                    3d:eb:40:be:98:5e:97:57:b7:a9:3a:2c:84:b0:3e:
                    1b:91:6b:5a:ff:ef:bf:9b:a4:a6:f8:de:34:c9:55:
                    f9:e5:e8:40:1b:3e:a7:08:fa:a8:a4:7e:3d:20:3b:
                    e8:ad:df:08:9c:45:58:d2:13:cd:2f:b7:c3:e2:aa:
                    82:77:ec:48:46:15:09:05:ce:11:fc:28:7f:30:63:
                    d3:06:ce:97:ca:eb:57:c5:f6:e1:f9:8a:c7:f5:78:
                    c5:01:cf:06:14:83:f0:23:8b:e5:eb:dc:56:21:0e:
                    b3:07:3c:de:28:05:66:83:13:b9:10:2d:0a:ca:71:
                    3d:0e:e2:95:cd:bb:26:3e:e4:ba:2f:3f:42:08:88:
                    a3:34:73:c3:09:f6:2f:f9:a1:4f:c8:9b:09:c8:41:
                    1b:63:3d:ce:ee:87:c5:19:32:00:08:d0:03:62:c9:
                    20:af:e2:33:e9:2f:72:19:4c:5b:c6:90:ef:2c:45:
                    8d:bc:e7:cf:c2:40:c4:b9:72:d3:12:6e:44:51:df:
                    e0:c8:a1:a4:af:2c:78:23:02:66:17:9d:87:af:7f:
                    99:e4:51:5e:0b:2c:a1:ec:86:a8:2d:9f:80:19:7f:
                    4b:9c:d4:4b:28:bf:a6:6d:af:78:35:3d:cd:42:42:
                    1e:41:99:3b:6b:c0:f5:aa:b6:b5:a2:d9:8f:81:04:
                    4f:17:55:1d:98:96:d9:5d:9f:fc:42:54:be:ab:b2:
                    5f:60:80:01:aa:72:0c:58:44:42:24:ee:52:75:eb:
                    78:25:39:f7:46:12:04:6b:c4:6d:ad:eb:e0:cf:97:
                    0c:e5:e6:39:27:92:dd:41:f5:ac:83:bd:00:4d:b3:
                    ba:95:c7:e2:da:1d:01:82:fc:88:52:04:cb:da:c7:
                    b5:f1:ee:78:3c:2d:e1:cd:a5:9e:8e:74:98:56:06:
                    e2:18:16:49:56:a2:e7:a7:73:5c:6c:dc:01:ad:33:
                    87:d4:14:10:0b:ae:b5:59:cc:06:00:8d:b2:54:8b:
                    16:02:9e:98:ed:6d:21:75:59:65:c7:3d:d0:00:ec:
                    f4:8d:51:fe:0a:35:b1:e2:a1:d3:22:a2:80:35:1b:
                    2f:c6:4e:58:cc:6c:94:7c:cd:6c:ab:32:33:6f:9f:
                    3b:46:9a:05:99:89:67:ee:17:19:c3:32:e6:f5:bd:
                    2b:5b:da:4f:c7:51:c3:30:ea:92:06:7d:46:f8:c9:
                    b8:4a:e8:30:f4:8b:47:87:71:1a:a2:a3:ab:e7:70:
                    93:7e:9d:1e:38:72:f3:2f:21:60:ea:12:66:d9:74:
                    0b:da:54:51:89:38:53:35:b2:42:5d:bb:7d:df:43:
                    28:b6:b7
                Exponent: 65537 (0x10001)
        X509v3 extensions:
            X509v3 Basic Constraints: 
                CA:FALSE
            X509v3 Subject Key Identifier: 
                78:09:ED:09:E1:BB:57:D8:75:FD:63:55:51:4D:14:5C:F3:D9:74:C0
            X509v3 Authority Key Identifier: 
                keyid:87:A7:C5:75:37:0B:14:6C:BF:46:04:8C:2A:52:E9:5D:DA:51:DC:E6
                DirName:/CN=vpn.jenkins.io
                serial:08:01:AA:6D:1B:31:40:4F:7B:9C:75:54:54:78:B5:36:65:3B:7C:B3

            X509v3 Extended Key Usage: 
                TLS Web Client Authentication
            X509v3 Key Usage: 
                Digital Signature
    Signature Algorithm: sha256WithRSAEncryption
         5b:7a:c5:1d:61:f5:a9:60:57:cf:1d:2b:5e:3c:2b:dc:2b:93:
         74:5c:c2:c3:72:96:ac:e3:45:a2:a7:86:0c:45:0a:ec:e9:41:
         11:1c:83:d3:77:f5:04:ee:7c:33:d0:43:48:93:73:0c:ca:2a:
         42:59:b9:cc:fd:27:c0:c3:15:b2:2a:50:ab:12:ca:6f:50:1c:
         3c:2b:59:73:1f:86:8b:8c:40:7d:d0:42:03:cf:cd:23:69:f9:
         93:da:ee:db:60:02:b9:0e:af:de:08:5f:ef:4f:09:b7:82:0b:
         9e:8c:93:ec:bd:94:6a:c2:9f:cb:f1:7c:e1:ad:23:82:a8:e2:
         27:34:19:bf:82:85:19:26:73:8f:4e:31:da:02:70:b6:64:4d:
         67:bc:8b:6c:9a:92:19:7b:9c:40:90:62:34:5e:5f:db:28:ea:
         a1:1b:82:62:b4:08:71:ff:d9:1e:cc:55:50:34:ae:98:24:e2:
         76:e4:b1:26:42:a7:c5:50:7b:45:68:28:5b:aa:71:94:1e:47:
         04:6e:b4:a1:d7:d9:43:e0:97:7f:53:0a:50:10:4a:f0:71:98:
         b7:f8:0d:e5:7e:dd:71:8a:9c:07:c3:5b:9a:b8:9e:52:58:53:
         41:32:3a:9a:b3:71:25:7a:26:14:d6:df:5a:ef:06:43:f1:72:
         0f:9f:49:83:c5:83:dc:15:13:f1:f0:29:dc:a3:9d:69:d3:4d:
         fd:c8:c5:ca:83:2c:7b:d4:4c:c7:49:38:aa:a7:08:7f:71:98:
         fe:3a:2a:bc:45:e1:05:90:51:4f:9e:50:67:87:3c:54:e4:d2:
         4b:4c:3a:1b:e6:03:d1:50:4a:54:7f:4b:1f:27:35:90:cc:1b:
         57:a4:8e:91:c6:49:1c:b9:6c:74:d3:97:df:33:00:4f:fb:f8:
         43:57:14:5f:c4:3d:43:73:93:ab:a4:e2:72:2b:76:fc:c8:10:
         77:89:f1:74:c1:dd:da:43:53:4a:74:d2:9a:0a:dd:fa:14:32:
         0c:55:3c:d0:ed:93:e3:64:54:d7:9c:74:fd:c0:6e:7d:6d:a8:
         13:b3:ff:81:15:ad:ec:05:a3:05:65:dc:1d:9f:08:83:d3:19:
         18:a2:d9:48:3b:fc:39:12:ad:15:46:35:c1:5f:01:17:ec:88:
         28:f7:59:e4:27:cb:db:3e:39:38:b6:52:88:f0:25:83:5c:06:
         a4:38:04:a5:4f:c3:1c:db:11:26:5d:3a:26:07:a9:32:d8:7c:
         e3:1d:8e:87:d7:bf:29:41:3c:35:05:98:06:d0:96:ce:34:a8:
         8a:48:fa:24:87:3c:97:9e:83:87:2f:94:44:7e:f6:cf:36:98:
         8c:4f:24:8d:13:a6:e5:d4
-----BEGIN CERTIFICATE-----
MIIFXTCCA0WgAwIBAgIQR0XYpXmTkbOfYa2QuutbOTANBgkqhkiG9w0BAQsFADAZ
MRcwFQYDVQQDDA52cG4uamVua2lucy5pbzAeFw0xOTExMTIwOTA0MjVaFw0yMjEw
MjcwOTA0MjVaMBQxEjAQBgNVBAMMCWFoZXJpdGllcjCCAiIwDQYJKoZIhvcNAQEB
BQADggIPADCCAgoCggIBAOMEVzbxrwK7B/uc0+GvPetAvphel1e3qToshLA+G5Fr
Wv/vv5ukpvjeNMlV+eXoQBs+pwj6qKR+PSA76K3fCJxFWNITzS+3w+KqgnfsSEYV
CQXOEfwofzBj0wbOl8rrV8X24fmKx/V4xQHPBhSD8COL5evcViEOswc83igFZoMT
uRAtCspxPQ7ilc27Jj7kui8/QgiIozRzwwn2L/mhT8ibCchBG2M9zu6HxRkyAAjQ
A2LJIK/iM+kvchlMW8aQ7yxFjbznz8JAxLly0xJuRFHf4MihpK8seCMCZhedh69/
meRRXgssoeyGqC2fgBl/S5zUSyi/pm2veDU9zUJCHkGZO2vA9aq2taLZj4EETxdV
HZiW2V2f/EJUvquyX2CAAapyDFhEQiTuUnXreCU590YSBGvEba3r4M+XDOXmOSeS
3UH1rIO9AE2zupXH4todAYL8iFIEy9rHtfHueDwt4c2lno50mFYG4hgWSVai56dz
XGzcAa0zh9QUEAuutVnMBgCNslSLFgKemO1tIXVZZcc90ADs9I1R/go1seKh0yKi
gDUbL8ZOWMxslHzNbKsyM2+fO0aaBZmJZ+4XGcMy5vW9K1vaT8dRwzDqkgZ9RvjJ
uEroMPSLR4dxGqKjq+dwk36dHjhy8y8hYOoSZtl0C9pUUYk4UzWyQl27fd9DKLa3
AgMBAAGjgaUwgaIwCQYDVR0TBAIwADAdBgNVHQ4EFgQUeAntCeG7V9h1/WNVUU0U
XPPZdMAwVAYDVR0jBE0wS4AUh6fFdTcLFGy/RgSMKlLpXdpR3OahHaQbMBkxFzAV
BgNVBAMMDnZwbi5qZW5raW5zLmlvghQIAaptGzFAT3ucdVRUeLU2ZTt8szATBgNV
HSUEDDAKBggrBgEFBQcDAjALBgNVHQ8EBAMCB4AwDQYJKoZIhvcNAQELBQADggIB
AFt6xR1h9algV88dK148K9wrk3RcwsNylqzjRaKnhgxFCuzpQREcg9N39QTufDPQ
Q0iTcwzKKkJZucz9J8DDFbIqUKsSym9QHDwrWXMfhouMQH3QQgPPzSNp+ZPa7ttg
ArkOr94IX+9PCbeCC56Mk+y9lGrCn8vxfOGtI4Ko4ic0Gb+ChRkmc49OMdoCcLZk
TWe8i2yakhl7nECQYjReX9so6qEbgmK0CHH/2R7MVVA0rpgk4nbksSZCp8VQe0Vo
KFuqcZQeRwRutKHX2UPgl39TClAQSvBxmLf4DeV+3XGKnAfDW5q4nlJYU0EyOpqz
cSV6JhTW31rvBkPxcg+fSYPFg9wVE/HwKdyjnWnTTf3IxcqDLHvUTMdJOKqnCH9x
mP46KrxF4QWQUU+eUGeHPFTk0ktMOhvmA9FQSlR/Sx8nNZDMG1ekjpHGSRy5bHTT
l98zAE/7+ENXFF/EPUNzk6uk4nIrdvzIEHeJ8XTB3dpDU0p00poK3foUMgxVPNDt
k+NkVNecdP3Abn1tqBOz/4EVrewFowVl3B2fCIPTGRii2Ug7/DkSrRVGNcFfARfs
iCj3WeQny9s+OTi2UojwJYNcBqQ4BKVPwxzbESZdOiYHqTLYfOMdjofXvylBPDUF
mAbQls40qIpI+iSHPJeeg4cvlER+9s82mIxPJI0TpuXU
-----END CERTIFICATE-----
