Certificate:
    Data:
        Version: 3 (0x2)
        Serial Number:
            4a:41:80:3b:d5:61:7c:fc:f2:ac:01:f6:7d:1d:76:54
        Signature Algorithm: sha256WithRSAEncryption
        Issuer: CN=vpn.jenkins.io
        Validity
            Not Before: Feb 14 16:50:59 2025 GMT
            Not After : Jan 30 16:50:59 2028 GMT
        Subject: CN=swapna_01
        Subject Public Key Info:
            Public Key Algorithm: rsaEncryption
                Public-Key: (4096 bit)
                Modulus:
                    00:d1:97:2d:75:71:6d:c5:d7:35:af:2b:d2:7c:ba:
                    26:1f:06:a0:d4:c9:3a:aa:64:fa:c2:ba:56:a8:c1:
                    9f:3e:24:87:89:a6:f0:8b:76:ff:51:d7:3e:c5:bd:
                    bd:d4:5b:2e:69:7f:9f:b5:6a:96:ce:a6:d9:bc:95:
                    4f:7e:12:bf:14:33:5f:e8:d2:66:38:1a:bb:ba:43:
                    03:2f:c8:cb:5a:af:ca:a5:b8:5f:de:22:a8:f5:3c:
                    8a:1f:f7:26:fb:36:e8:b8:76:e9:9b:90:6c:ec:cf:
                    ea:e5:05:eb:26:c2:22:4f:5e:d8:30:d4:1f:00:3b:
                    04:91:59:e9:62:a6:97:44:62:19:a8:d8:79:c4:9d:
                    a2:65:c4:31:67:9a:f2:97:c8:99:19:4f:f7:5c:fe:
                    67:6c:a8:8f:35:bb:50:de:9f:61:1e:ab:b2:21:62:
                    b5:31:79:56:5c:82:d6:de:89:9e:b1:0c:a6:f3:5e:
                    10:60:68:6f:63:92:d4:56:ef:6e:33:2b:3d:1e:fd:
                    c0:8d:4c:dd:28:70:59:62:19:17:95:87:38:57:af:
                    c4:5b:ff:ac:fa:3e:17:34:97:e5:48:ca:69:7d:6a:
                    97:07:60:39:b9:32:e3:1f:df:b2:19:08:37:14:64:
                    28:44:24:6e:78:9c:7d:09:11:bd:3d:cb:50:60:f2:
                    b4:62:29:d9:af:71:71:3c:a4:4d:68:33:b7:c4:b6:
                    d1:fe:da:9c:6b:c2:44:ad:00:e0:d0:3a:bc:85:f6:
                    62:e6:b3:a0:32:98:65:14:8d:f0:e2:91:53:d7:9a:
                    8a:c4:2d:7b:4b:ac:35:9f:5e:41:0b:99:a1:d6:ca:
                    a8:17:6b:40:82:ce:82:84:5e:a7:0d:ed:94:b3:18:
                    51:c6:dc:44:63:3e:7b:ab:8a:96:66:c6:18:12:cc:
                    64:b8:09:54:02:72:ba:64:a4:c6:a1:8b:29:f4:85:
                    c6:a0:ce:d7:5e:e1:ff:70:c7:6e:c5:5a:82:0f:2a:
                    34:13:27:38:c6:18:e4:ce:f1:07:52:1b:9f:b4:0c:
                    b6:ba:7e:72:69:5c:40:08:a8:9f:4e:84:3a:e6:7c:
                    f1:5a:05:53:5b:51:45:49:a7:e8:0b:b2:fa:fc:bf:
                    57:42:5e:a9:ac:9e:ef:c8:cc:8a:57:17:e7:77:e3:
                    e6:16:a7:8f:5c:a6:1b:68:03:f0:a4:09:8c:bd:50:
                    a9:36:7d:f0:e3:a0:30:2d:d8:d9:3c:18:a1:92:21:
                    81:77:e5:71:86:60:c1:01:5e:26:c4:c7:a9:9a:68:
                    f9:91:4b:54:11:ee:9f:45:ae:b6:3b:04:cb:dc:30:
                    78:58:8c:ab:fe:22:31:a6:71:a0:c5:0a:b6:a4:f0:
                    73:33:2f
                Exponent: 65537 (0x10001)
        X509v3 extensions:
            X509v3 Basic Constraints: 
                CA:FALSE
            X509v3 Subject Key Identifier: 
                23:5F:78:CB:14:22:10:FE:3C:D2:F8:13:09:B1:16:0F:DF:41:E8:91
            X509v3 Authority Key Identifier: 
                keyid:87:A7:C5:75:37:0B:14:6C:BF:46:04:8C:2A:52:E9:5D:DA:51:DC:E6
                DirName:/CN=vpn.jenkins.io
                serial:08:01:AA:6D:1B:31:40:4F:7B:9C:75:54:54:78:B5:36:65:3B:7C:B3
            X509v3 Extended Key Usage: 
                TLS Web Client Authentication
            X509v3 Key Usage: 
                Digital Signature
    Signature Algorithm: sha256WithRSAEncryption
    Signature Value:
        59:cd:00:6e:9c:d2:53:47:8e:ae:c0:16:98:b5:23:da:c5:c7:
        ea:b6:69:13:5f:70:a7:7e:29:92:05:37:47:a4:c7:54:31:4d:
        65:64:80:e7:33:80:21:93:1f:73:10:ab:65:9c:ec:f0:4d:ec:
        b8:b5:4d:58:b0:e7:69:24:4b:d4:52:31:82:c6:22:7a:17:9d:
        04:5a:9e:a7:64:f7:7f:84:a7:b1:f4:d0:b3:04:a2:e3:6f:f8:
        c3:d0:d0:01:42:9a:1d:8b:da:ae:1a:35:c1:73:32:a4:d6:17:
        05:68:27:b2:bb:fe:22:8d:ce:f3:ed:c8:e5:61:bb:45:29:15:
        00:79:29:bd:6a:dc:3b:79:2b:32:ff:9d:f3:be:f5:b5:26:c3:
        f0:7f:aa:3b:69:96:7c:94:25:ed:c0:fd:79:f8:26:2f:03:1f:
        55:83:87:89:ac:09:7d:09:fa:1a:fc:b7:7e:51:19:44:f9:9b:
        0b:5e:de:21:b1:96:c8:09:47:68:8d:2d:b1:46:5f:07:6d:07:
        3d:f6:34:d1:d6:df:18:72:02:d0:35:31:b7:d8:d1:a9:2c:00:
        b3:ac:6d:65:22:bb:40:aa:96:6e:1a:38:b1:a6:58:c1:c8:0c:
        90:c2:2b:97:4d:e4:cc:58:63:0e:d8:7b:56:7c:05:9b:e6:62:
        cc:c7:d1:5c:46:04:b0:42:69:12:90:83:46:a5:e8:e4:48:90:
        9c:92:08:f0:53:f3:9b:77:f8:6a:9b:79:f1:13:6e:0b:ec:4e:
        c0:fc:a3:f8:bd:11:3a:e4:d1:b2:3d:4e:4b:84:af:09:97:96:
        b1:b7:28:3f:02:de:63:f1:83:f6:61:12:aa:c8:eb:00:f3:3c:
        b0:01:de:f6:57:96:da:b2:46:3e:3f:17:c6:3f:b0:b0:c0:60:
        1b:1b:b5:15:91:9a:c3:7d:06:e0:55:53:a9:8b:46:18:a3:85:
        f9:90:ae:a8:b4:82:c6:f8:5b:c5:2e:88:b1:6f:f9:2c:1f:e8:
        5a:8a:72:40:9a:03:b1:1a:08:4d:07:d7:2d:4e:5f:3b:08:ed:
        22:5d:ac:42:6d:68:80:38:f6:fb:18:42:ec:00:3f:4a:d0:74:
        1d:17:72:fd:20:60:64:e4:eb:4a:54:f8:44:cc:b9:da:76:cd:
        18:58:82:ea:8e:7b:8a:b3:32:e5:9c:26:6c:28:1f:14:6c:39:
        67:a5:95:d2:a0:14:b5:e6:77:01:11:db:55:a8:b5:b5:d4:30:
        e3:d0:24:03:95:c9:a7:9b:e9:b2:94:87:ee:b6:ff:f4:b6:54:
        c8:32:57:ec:ff:b0:e9:ba:d2:d3:33:34:4e:37:41:85:30:40:
        5e:98:a2:5b:b5:9f:3a:f0
-----BEGIN CERTIFICATE-----
MIIFXTCCA0WgAwIBAgIQSkGAO9VhfPzyrAH2fR12VDANBgkqhkiG9w0BAQsFADAZ
MRcwFQYDVQQDDA52cG4uamVua2lucy5pbzAeFw0yNTAyMTQxNjUwNTlaFw0yODAx
MzAxNjUwNTlaMBQxEjAQBgNVBAMMCXN3YXBuYV8wMTCCAiIwDQYJKoZIhvcNAQEB
BQADggIPADCCAgoCggIBANGXLXVxbcXXNa8r0ny6Jh8GoNTJOqpk+sK6VqjBnz4k
h4mm8It2/1HXPsW9vdRbLml/n7Vqls6m2byVT34SvxQzX+jSZjgau7pDAy/Iy1qv
yqW4X94iqPU8ih/3Jvs26Lh26ZuQbOzP6uUF6ybCIk9e2DDUHwA7BJFZ6WKml0Ri
GajYecSdomXEMWea8pfImRlP91z+Z2yojzW7UN6fYR6rsiFitTF5VlyC1t6JnrEM
pvNeEGBob2OS1FbvbjMrPR79wI1M3ShwWWIZF5WHOFevxFv/rPo+FzSX5UjKaX1q
lwdgObky4x/fshkINxRkKEQkbnicfQkRvT3LUGDytGIp2a9xcTykTWgzt8S20f7a
nGvCRK0A4NA6vIX2YuazoDKYZRSN8OKRU9eaisQte0usNZ9eQQuZodbKqBdrQILO
goRepw3tlLMYUcbcRGM+e6uKlmbGGBLMZLgJVAJyumSkxqGLKfSFxqDO117h/3DH
bsVagg8qNBMnOMYY5M7xB1Ibn7QMtrp+cmlcQAion06EOuZ88VoFU1tRRUmn6Auy
+vy/V0Jeqaye78jMilcX53fj5hanj1ymG2gD8KQJjL1QqTZ98OOgMC3Y2TwYoZIh
gXflcYZgwQFeJsTHqZpo+ZFLVBHun0WutjsEy9wweFiMq/4iMaZxoMUKtqTwczMv
AgMBAAGjgaUwgaIwCQYDVR0TBAIwADAdBgNVHQ4EFgQUI194yxQiEP480vgTCbEW
D99B6JEwVAYDVR0jBE0wS4AUh6fFdTcLFGy/RgSMKlLpXdpR3OahHaQbMBkxFzAV
BgNVBAMMDnZwbi5qZW5raW5zLmlvghQIAaptGzFAT3ucdVRUeLU2ZTt8szATBgNV
HSUEDDAKBggrBgEFBQcDAjALBgNVHQ8EBAMCB4AwDQYJKoZIhvcNAQELBQADggIB
AFnNAG6c0lNHjq7AFpi1I9rFx+q2aRNfcKd+KZIFN0ekx1QxTWVkgOczgCGTH3MQ
q2Wc7PBN7Li1TViw52kkS9RSMYLGInoXnQRanqdk93+Ep7H00LMEouNv+MPQ0AFC
mh2L2q4aNcFzMqTWFwVoJ7K7/iKNzvPtyOVhu0UpFQB5Kb1q3Dt5KzL/nfO+9bUm
w/B/qjtplnyUJe3A/Xn4Ji8DH1WDh4msCX0J+hr8t35RGUT5mwte3iGxlsgJR2iN
LbFGXwdtBz32NNHW3xhyAtA1MbfY0aksALOsbWUiu0Cqlm4aOLGmWMHIDJDCK5dN
5MxYYw7Ye1Z8BZvmYszH0VxGBLBCaRKQg0al6ORIkJySCPBT85t3+GqbefETbgvs
TsD8o/i9ETrk0bI9TkuErwmXlrG3KD8C3mPxg/ZhEqrI6wDzPLAB3vZXltqyRj4/
F8Y/sLDAYBsbtRWRmsN9BuBVU6mLRhijhfmQrqi0gsb4W8UuiLFv+Swf6FqKckCa
A7EaCE0H1y1OXzsI7SJdrEJtaIA49vsYQuwAP0rQdB0Xcv0gYGTk60pU+ETMudp2
zRhYguqOe4qzMuWcJmwoHxRsOWelldKgFLXmdwER21WotbXUMOPQJAOVyaeb6bKU
h+62//S2VMgyV+z/sOm60tMzNE43QYUwQF6Yolu1nzrw
-----END CERTIFICATE-----
