Certificate:
    Data:
        Version: 3 (0x2)
        Serial Number:
            50:90:10:71:4d:ce:43:aa:1b:60:b7:78:40:17:d1:65
        Signature Algorithm: sha256WithRSAEncryption
        Issuer: CN=vpn.jenkins.io
        Validity
            Not Before: Jan 15 08:43:58 2020 GMT
            Not After : Dec 30 08:43:58 2022 GMT
        Subject: CN=halkeye
        Subject Public Key Info:
            Public Key Algorithm: rsaEncryption
                RSA Public-Key: (4096 bit)
                Modulus:
                    00:d8:a0:ad:9c:e8:f7:f8:e4:66:a5:ab:75:ba:e7:
                    4b:53:42:9e:4b:10:0a:54:21:7e:c8:d4:db:02:32:
                    16:48:29:da:d1:22:46:e1:b3:ad:74:c3:be:bd:52:
                    90:d0:01:8a:8f:56:fe:0b:73:20:26:a5:88:0c:91:
                    36:5b:e3:ee:66:4a:6c:dc:7c:b6:57:09:a0:c6:83:
                    e2:22:1c:04:74:e0:10:7f:bc:86:8c:e5:98:28:55:
                    cf:df:2f:ba:74:ca:74:a5:e4:6b:6e:f6:04:b5:71:
                    c2:cd:f3:23:f3:00:ad:c0:36:5b:f2:7f:3c:18:31:
                    b2:e5:51:7e:b1:c1:0d:ea:92:b0:d5:10:43:d9:11:
                    6e:e3:71:87:2b:85:7f:77:a5:3b:92:32:6e:d8:3a:
                    27:26:a1:7a:da:4a:27:41:f2:09:39:21:38:43:4d:
                    92:13:9b:71:f7:8d:ed:df:ad:fd:da:a5:c0:84:04:
                    64:7c:f6:bb:cd:14:77:c9:2c:b8:f6:42:ba:a3:6d:
                    2b:15:c0:16:72:a8:a2:fb:1b:aa:c7:06:5f:3a:14:
                    7f:1d:3e:8f:bc:35:ba:c6:df:92:e9:3a:8f:05:01:
                    e1:52:25:b1:27:9d:25:d1:e0:f0:23:a9:61:cc:35:
                    fa:33:04:9f:6c:de:94:1c:05:0a:3a:ed:31:fb:a3:
                    27:1f:3c:a5:06:c7:19:9d:37:24:6f:e6:17:20:71:
                    a1:8a:ae:45:b6:03:ff:cb:c1:80:bc:a9:e1:35:6c:
                    c8:2d:a1:e7:5d:41:bd:37:16:39:ad:3f:15:e6:05:
                    0e:8c:33:8c:1e:85:19:d0:ac:36:66:6c:72:07:b4:
                    2f:91:8d:ea:a4:f6:65:b8:88:4a:e4:11:6a:79:e6:
                    f1:dd:d7:c9:63:e1:5a:69:da:88:6d:3e:a0:bb:7a:
                    12:54:47:ea:bd:54:46:ef:34:93:42:75:b3:24:32:
                    fd:8f:c0:70:01:24:2a:a7:0b:a4:a2:b5:cf:15:c6:
                    99:92:84:74:08:fd:b1:3c:46:6c:24:ad:c3:65:af:
                    29:f1:62:ad:dc:0f:c0:d6:37:ac:1c:f7:f5:23:6f:
                    d9:8f:c5:a0:12:49:df:cb:e4:1f:f0:b2:5b:cd:1c:
                    2f:bc:96:57:5a:2d:a8:26:09:93:46:d8:57:95:7b:
                    b1:cb:4c:83:93:c6:bb:26:24:14:5c:a7:e4:3f:bd:
                    fd:af:5a:91:7b:e6:57:34:49:99:fe:83:f5:cb:97:
                    f2:07:3f:a7:0a:bd:67:c5:12:65:70:18:5c:56:e6:
                    8b:f7:ef:c7:f3:a0:4f:22:4d:70:8f:95:30:a2:4e:
                    a4:ec:b1:66:1c:ce:91:62:f0:9c:39:4b:41:8c:bd:
                    ed:c2:51
                Exponent: 65537 (0x10001)
        X509v3 extensions:
            X509v3 Basic Constraints: 
                CA:FALSE
            X509v3 Subject Key Identifier: 
                18:3B:2A:BF:E1:CA:89:B3:4B:A5:96:DE:B2:B0:BD:01:BA:3D:69:1A
            X509v3 Authority Key Identifier: 
                keyid:87:A7:C5:75:37:0B:14:6C:BF:46:04:8C:2A:52:E9:5D:DA:51:DC:E6
                DirName:/CN=vpn.jenkins.io
                serial:08:01:AA:6D:1B:31:40:4F:7B:9C:75:54:54:78:B5:36:65:3B:7C:B3

            X509v3 Extended Key Usage: 
                TLS Web Client Authentication
            X509v3 Key Usage: 
                Digital Signature
    Signature Algorithm: sha256WithRSAEncryption
         82:7c:d9:bb:12:2b:d3:f4:eb:79:35:fa:7b:9e:c6:1a:bb:c7:
         f5:06:4a:45:28:85:a7:32:90:26:ec:26:46:6a:4f:7b:d9:91:
         39:bc:e5:1c:17:b2:07:e2:3c:e9:22:da:d3:37:53:68:1d:f8:
         ee:97:89:7c:03:b4:7a:43:29:73:34:44:87:8d:47:04:b8:1e:
         83:fd:d1:d3:32:3b:1a:3a:bb:51:5f:50:a0:ca:6c:ec:8f:42:
         b1:f0:04:b8:6f:6f:23:4f:55:a6:b4:90:8b:2e:d2:d8:4d:3b:
         29:35:0c:bd:24:44:af:2c:41:a2:2f:ef:67:23:81:19:f1:dd:
         5b:23:b6:c2:4b:f2:a5:32:6c:d6:fa:2b:0a:41:50:12:9a:14:
         40:53:48:8e:fb:4c:e0:f0:56:53:d1:9d:ec:25:cd:05:42:01:
         fa:2a:a5:75:14:1f:cb:cc:52:c9:63:40:7e:aa:bf:f7:56:1d:
         32:29:63:54:ae:32:2a:2a:70:93:58:ba:e8:69:2b:ce:c9:33:
         a0:ad:6d:ae:ae:10:f5:e1:b4:c2:24:f6:0a:38:ca:e7:06:8b:
         d2:6b:a3:21:41:5b:61:61:b4:18:31:dc:5d:cf:01:75:29:5f:
         ed:cc:aa:7f:90:b6:13:b7:04:9a:fd:5f:be:77:16:a0:db:80:
         d1:0b:12:b7:0e:af:29:7e:45:d7:40:9c:7c:9c:32:ea:4a:cb:
         eb:95:ca:ee:79:ea:81:c8:a5:cc:3f:5f:d0:5d:0a:b0:57:92:
         5f:e3:cc:b7:78:31:d1:e4:72:f0:a3:6b:55:03:aa:4a:10:2b:
         f2:55:70:f6:0c:84:eb:c1:0a:a9:05:9b:9e:70:a3:5f:23:82:
         cd:df:38:ed:bc:78:9a:aa:30:e9:7c:c2:cc:ab:fd:01:82:46:
         a7:48:a4:a5:53:40:12:74:19:e3:e2:0c:ce:0c:20:07:64:46:
         33:d5:4c:38:f7:01:06:a6:38:66:a9:77:9b:29:d8:42:50:2f:
         58:db:6a:c7:00:11:da:30:16:7f:af:35:f2:58:44:d4:9b:61:
         36:57:b7:d1:d8:bf:40:7a:e9:a4:e0:4c:76:75:80:f7:b1:e8:
         56:31:84:68:cf:47:3e:ad:f0:f7:dd:1b:e9:7c:57:4b:3b:bc:
         62:bc:a3:89:dc:00:6d:6d:f9:7b:66:47:9d:90:bb:b7:2b:2e:
         43:0a:f2:93:1e:ca:e9:4c:36:e0:ef:bd:cd:64:00:48:cf:f9:
         b9:a6:40:22:3b:fe:30:c5:15:1f:12:5d:f7:23:2a:10:16:0a:
         18:1c:ed:00:41:6c:74:8d:df:48:85:98:16:e8:19:cb:a5:be:
         db:c3:1b:57:7d:84:d1:cd
-----BEGIN CERTIFICATE-----
MIIFWzCCA0OgAwIBAgIQUJAQcU3OQ6obYLd4QBfRZTANBgkqhkiG9w0BAQsFADAZ
MRcwFQYDVQQDDA52cG4uamVua2lucy5pbzAeFw0yMDAxMTUwODQzNThaFw0yMjEy
MzAwODQzNThaMBIxEDAOBgNVBAMMB2hhbGtleWUwggIiMA0GCSqGSIb3DQEBAQUA
A4ICDwAwggIKAoICAQDYoK2c6Pf45Galq3W650tTQp5LEApUIX7I1NsCMhZIKdrR
Ikbhs610w769UpDQAYqPVv4LcyAmpYgMkTZb4+5mSmzcfLZXCaDGg+IiHAR04BB/
vIaM5ZgoVc/fL7p0ynSl5Gtu9gS1ccLN8yPzAK3ANlvyfzwYMbLlUX6xwQ3qkrDV
EEPZEW7jcYcrhX93pTuSMm7YOicmoXraSidB8gk5IThDTZITm3H3je3frf3apcCE
BGR89rvNFHfJLLj2QrqjbSsVwBZyqKL7G6rHBl86FH8dPo+8NbrG35LpOo8FAeFS
JbEnnSXR4PAjqWHMNfozBJ9s3pQcBQo67TH7oycfPKUGxxmdNyRv5hcgcaGKrkW2
A//LwYC8qeE1bMgtoeddQb03FjmtPxXmBQ6MM4wehRnQrDZmbHIHtC+Rjeqk9mW4
iErkEWp55vHd18lj4Vpp2ohtPqC7ehJUR+q9VEbvNJNCdbMkMv2PwHABJCqnC6Si
tc8VxpmShHQI/bE8RmwkrcNlrynxYq3cD8DWN6wc9/Ujb9mPxaASSd/L5B/wslvN
HC+8lldaLagmCZNG2FeVe7HLTIOTxrsmJBRcp+Q/vf2vWpF75lc0SZn+g/XLl/IH
P6cKvWfFEmVwGFxW5ov378fzoE8iTXCPlTCiTqTssWYczpFi8Jw5S0GMve3CUQID
AQABo4GlMIGiMAkGA1UdEwQCMAAwHQYDVR0OBBYEFBg7Kr/hyomzS6WW3rKwvQG6
PWkaMFQGA1UdIwRNMEuAFIenxXU3CxRsv0YEjCpS6V3aUdzmoR2kGzAZMRcwFQYD
VQQDDA52cG4uamVua2lucy5pb4IUCAGqbRsxQE97nHVUVHi1NmU7fLMwEwYDVR0l
BAwwCgYIKwYBBQUHAwIwCwYDVR0PBAQDAgeAMA0GCSqGSIb3DQEBCwUAA4ICAQCC
fNm7EivT9Ot5Nfp7nsYau8f1BkpFKIWnMpAm7CZGak972ZE5vOUcF7IH4jzpItrT
N1NoHfjul4l8A7R6QylzNESHjUcEuB6D/dHTMjsaOrtRX1Cgymzsj0Kx8AS4b28j
T1WmtJCLLtLYTTspNQy9JESvLEGiL+9nI4EZ8d1bI7bCS/KlMmzW+isKQVASmhRA
U0iO+0zg8FZT0Z3sJc0FQgH6KqV1FB/LzFLJY0B+qr/3Vh0yKWNUrjIqKnCTWLro
aSvOyTOgrW2urhD14bTCJPYKOMrnBovSa6MhQVthYbQYMdxdzwF1KV/tzKp/kLYT
twSa/V++dxag24DRCxK3Dq8pfkXXQJx8nDLqSsvrlcrueeqByKXMP1/QXQqwV5Jf
48y3eDHR5HLwo2tVA6pKECvyVXD2DITrwQqpBZuecKNfI4LN3zjtvHiaqjDpfMLM
q/0BgkanSKSlU0ASdBnj4gzODCAHZEYz1Uw49wEGpjhmqXebKdhCUC9Y22rHABHa
MBZ/rzXyWETUm2E2V7fR2L9Aeumk4Ex2dYD3sehWMYRoz0c+rfD33RvpfFdLO7xi
vKOJ3ABtbfl7ZkedkLu3Ky5DCvKTHsrpTDbg773NZABIz/m5pkAiO/4wxRUfEl33
IyoQFgoYHO0AQWx0jd9IhZgW6BnLpb7bwxtXfYTRzQ==
-----END CERTIFICATE-----
