Certificate:
    Data:
        Version: 3 (0x2)
        Serial Number:
            50:a5:44:09:24:8c:c2:c2:e8:b3:9b:b9:34:c7:d2:fb
        Signature Algorithm: sha256WithRSAEncryption
        Issuer: CN=vpn.jenkins.io
        Validity
            Not Before: Nov 20 08:45:14 2019 GMT
            Not After : Nov  4 08:45:14 2022 GMT
        Subject: CN=olivergondza
        Subject Public Key Info:
            Public Key Algorithm: rsaEncryption
                RSA Public-Key: (4096 bit)
                Modulus:
                    00:a9:88:e3:89:28:ee:82:ff:09:76:45:44:0c:58:
                    39:24:9a:21:d5:c5:cc:c2:4c:06:63:0e:c1:4c:b7:
                    b1:5b:09:65:13:aa:c6:51:35:40:1f:bf:91:ad:23:
                    d9:3d:2d:48:42:a3:f9:92:7d:cd:9b:da:cd:27:51:
                    8f:ea:13:5b:cf:cd:b6:54:4c:5b:dd:5a:9d:85:81:
                    69:04:fe:bd:9d:58:58:2a:cc:35:bf:0f:ab:2b:ac:
                    54:91:65:97:8c:d4:42:4d:4a:cd:ae:e1:72:81:19:
                    49:f9:37:5c:21:b5:b5:6b:e1:6e:95:5b:a7:56:d0:
                    56:09:cf:b4:49:d3:67:f1:96:e9:cc:d3:43:34:e0:
                    d9:59:13:6e:67:66:f1:b2:fa:c6:32:26:f9:fe:95:
                    bc:a7:dc:a0:ee:8f:b3:0f:85:56:ef:76:d3:6d:39:
                    c5:95:53:b8:d0:86:6b:3c:b3:08:3f:d6:3e:4d:5c:
                    32:4a:3a:64:91:df:73:16:cf:c9:88:3b:86:45:72:
                    47:01:fb:7a:ac:26:8d:ad:42:6b:1a:d1:88:cd:b1:
                    f2:45:25:c5:4b:10:f6:5b:7d:df:85:4e:2f:0e:ed:
                    89:c5:63:ea:7e:b0:96:b0:20:4f:9c:4e:97:da:8d:
                    37:c6:33:ad:06:52:99:f7:3a:f9:27:b6:d9:c7:f3:
                    14:8c:47:43:63:9c:c9:07:05:9d:3d:f7:a4:6a:67:
                    53:57:e4:12:08:de:08:dc:aa:28:b4:41:a3:08:e1:
                    c6:0a:8e:f0:8d:70:40:d9:8b:02:ae:fb:d3:37:3f:
                    06:72:fb:ae:9c:a0:1f:5b:c4:ee:b7:81:42:af:54:
                    2f:4c:13:61:e9:8e:c0:8a:9b:24:15:99:39:c5:00:
                    81:66:5e:3b:8c:ec:d8:1f:df:cd:24:3f:66:96:b1:
                    b0:2e:c9:40:e8:10:7c:8f:87:14:98:10:c5:34:83:
                    49:ed:85:5a:fa:4f:08:2c:ba:a1:81:57:86:99:a4:
                    72:e6:26:ba:72:96:58:26:46:85:0a:52:cd:2b:77:
                    fa:b3:51:28:3e:c6:2b:fb:d0:f9:de:53:51:68:a5:
                    a1:01:a9:75:72:f1:0b:21:af:bd:fa:a3:24:4e:48:
                    ec:a2:67:0e:30:fe:f0:ed:5d:78:44:6d:6d:84:fa:
                    f1:fc:63:6e:64:cd:60:45:77:0c:de:00:a9:f4:61:
                    63:2e:9c:74:bb:50:89:a6:9d:ea:d6:4b:6f:6a:33:
                    fb:e1:93:bf:c2:9f:13:ba:2d:d4:d9:04:20:c0:f2:
                    a7:9e:10:6b:e3:8c:2d:b8:92:d5:82:30:49:91:97:
                    83:ba:fd:60:bc:fa:0c:97:e1:57:60:f2:80:b9:7e:
                    cd:b1:69
                Exponent: 65537 (0x10001)
        X509v3 extensions:
            X509v3 Basic Constraints: 
                CA:FALSE
            X509v3 Subject Key Identifier: 
                BD:72:42:69:6E:59:BB:40:83:5B:29:24:12:B9:F0:40:C8:DB:0D:F0
            X509v3 Authority Key Identifier: 
                keyid:87:A7:C5:75:37:0B:14:6C:BF:46:04:8C:2A:52:E9:5D:DA:51:DC:E6
                DirName:/CN=vpn.jenkins.io
                serial:08:01:AA:6D:1B:31:40:4F:7B:9C:75:54:54:78:B5:36:65:3B:7C:B3

            X509v3 Extended Key Usage: 
                TLS Web Client Authentication
            X509v3 Key Usage: 
                Digital Signature
    Signature Algorithm: sha256WithRSAEncryption
         83:67:52:a5:8a:04:a9:c6:0a:68:46:05:6c:65:c1:10:73:55:
         0c:df:65:6b:f9:fc:d4:aa:15:64:cb:36:63:0c:cb:d5:20:f4:
         64:f9:81:f2:86:5b:a1:a5:5b:41:89:f2:87:bc:f1:e3:56:95:
         b9:a8:db:5b:1e:ab:3f:80:1c:d9:40:c6:bd:7a:e6:69:92:75:
         0d:a7:ff:68:53:7f:88:85:03:1b:2b:6e:0b:64:85:0a:38:72:
         7e:af:39:ac:16:c3:a9:d8:3b:a6:16:91:5c:25:71:6b:1d:bf:
         30:23:ef:47:e7:ee:4e:6c:d7:b1:c2:5c:4c:f3:17:4b:7c:d8:
         5b:98:35:98:34:d1:00:64:d7:f5:e6:fa:b9:0e:6d:d3:4b:ce:
         ce:83:35:b7:13:0c:e7:ee:a0:2d:9a:db:14:4f:4a:8f:34:28:
         6e:57:69:27:8a:ab:d5:36:32:71:ae:b3:60:92:0f:c0:7d:60:
         34:58:1e:ec:5c:cb:ba:fb:fb:d0:1c:2a:6b:d1:b7:ec:c2:fe:
         0d:37:66:18:ed:c4:9c:94:82:eb:68:fb:23:2b:42:58:63:12:
         2a:ab:66:b2:49:6f:3c:05:8d:2b:98:8c:c4:d9:b8:f0:86:7a:
         e1:c0:09:c5:a4:26:ee:3d:46:75:60:10:c6:a7:5c:46:77:89:
         62:b2:24:8c:7d:6d:33:ee:de:f8:15:fe:23:67:bc:8b:a3:7d:
         f8:14:c7:a3:f1:27:e3:20:39:01:ab:5e:f5:5d:45:6a:54:a8:
         84:0d:e9:ed:2c:e1:a3:8b:31:f2:b2:26:c3:0d:ee:20:3c:43:
         a0:ee:34:cc:1c:55:af:44:37:74:00:2f:bd:f9:91:31:b3:78:
         b2:33:fc:2a:e0:59:b5:e4:e7:8b:53:eb:d3:f8:8f:55:a6:2f:
         a7:42:48:39:c2:65:e1:ed:c3:81:0d:c3:5e:92:a4:f5:f9:93:
         cb:e1:4d:d7:13:84:d2:24:c0:01:ab:71:82:84:10:19:c9:ab:
         50:2b:57:4d:a9:9a:cb:23:5b:e2:f8:be:75:12:72:c0:c3:9f:
         7c:46:0d:c3:cc:e8:ef:55:3d:f5:bf:c6:84:b7:19:67:ee:36:
         ae:9c:65:66:f8:b0:36:f5:47:b8:03:c7:02:ee:8f:22:cc:43:
         c8:72:ff:0a:d6:cc:4d:75:b3:b4:13:f5:b3:5b:60:11:92:55:
         ac:64:e5:4a:00:b3:cb:1f:f8:cd:84:9a:20:70:0a:ac:7f:60:
         6a:aa:9f:ab:56:32:8f:75:1d:c8:81:d9:1d:a0:68:88:69:9d:
         d5:b9:72:a4:b4:71:59:2a:02:11:83:57:69:70:34:dc:da:97:
         73:82:b2:30:70:03:0c:cc
-----BEGIN CERTIFICATE-----
MIIFYDCCA0igAwIBAgIQUKVECSSMwsLos5u5NMfS+zANBgkqhkiG9w0BAQsFADAZ
MRcwFQYDVQQDDA52cG4uamVua2lucy5pbzAeFw0xOTExMjAwODQ1MTRaFw0yMjEx
MDQwODQ1MTRaMBcxFTATBgNVBAMMDG9saXZlcmdvbmR6YTCCAiIwDQYJKoZIhvcN
AQEBBQADggIPADCCAgoCggIBAKmI44ko7oL/CXZFRAxYOSSaIdXFzMJMBmMOwUy3
sVsJZROqxlE1QB+/ka0j2T0tSEKj+ZJ9zZvazSdRj+oTW8/NtlRMW91anYWBaQT+
vZ1YWCrMNb8PqyusVJFll4zUQk1Kza7hcoEZSfk3XCG1tWvhbpVbp1bQVgnPtEnT
Z/GW6czTQzTg2VkTbmdm8bL6xjIm+f6VvKfcoO6Psw+FVu920205xZVTuNCGazyz
CD/WPk1cMko6ZJHfcxbPyYg7hkVyRwH7eqwmja1CaxrRiM2x8kUlxUsQ9lt934VO
Lw7ticVj6n6wlrAgT5xOl9qNN8YzrQZSmfc6+Se22cfzFIxHQ2OcyQcFnT33pGpn
U1fkEgjeCNyqKLRBowjhxgqO8I1wQNmLAq770zc/BnL7rpygH1vE7reBQq9UL0wT
YemOwIqbJBWZOcUAgWZeO4zs2B/fzSQ/ZpaxsC7JQOgQfI+HFJgQxTSDSe2FWvpP
CCy6oYFXhpmkcuYmunKWWCZGhQpSzSt3+rNRKD7GK/vQ+d5TUWiloQGpdXLxCyGv
vfqjJE5I7KJnDjD+8O1deERtbYT68fxjbmTNYEV3DN4AqfRhYy6cdLtQiaad6tZL
b2oz++GTv8KfE7ot1NkEIMDyp54Qa+OMLbiS1YIwSZGXg7r9YLz6DJfhV2DygLl+
zbFpAgMBAAGjgaUwgaIwCQYDVR0TBAIwADAdBgNVHQ4EFgQUvXJCaW5Zu0CDWykk
ErnwQMjbDfAwVAYDVR0jBE0wS4AUh6fFdTcLFGy/RgSMKlLpXdpR3OahHaQbMBkx
FzAVBgNVBAMMDnZwbi5qZW5raW5zLmlvghQIAaptGzFAT3ucdVRUeLU2ZTt8szAT
BgNVHSUEDDAKBggrBgEFBQcDAjALBgNVHQ8EBAMCB4AwDQYJKoZIhvcNAQELBQAD
ggIBAINnUqWKBKnGCmhGBWxlwRBzVQzfZWv5/NSqFWTLNmMMy9Ug9GT5gfKGW6Gl
W0GJ8oe88eNWlbmo21seqz+AHNlAxr165mmSdQ2n/2hTf4iFAxsrbgtkhQo4cn6v
OawWw6nYO6YWkVwlcWsdvzAj70fn7k5s17HCXEzzF0t82FuYNZg00QBk1/Xm+rkO
bdNLzs6DNbcTDOfuoC2a2xRPSo80KG5XaSeKq9U2MnGus2CSD8B9YDRYHuxcy7r7
+9AcKmvRt+zC/g03ZhjtxJyUguto+yMrQlhjEiqrZrJJbzwFjSuYjMTZuPCGeuHA
CcWkJu49RnVgEManXEZ3iWKyJIx9bTPu3vgV/iNnvIujffgUx6PxJ+MgOQGrXvVd
RWpUqIQN6e0s4aOLMfKyJsMN7iA8Q6DuNMwcVa9EN3QAL735kTGzeLIz/CrgWbXk
54tT69P4j1WmL6dCSDnCZeHtw4ENw16SpPX5k8vhTdcThNIkwAGrcYKEEBnJq1Ar
V02pmssjW+L4vnUScsDDn3xGDcPM6O9VPfW/xoS3GWfuNq6cZWb4sDb1R7gDxwLu
jyLMQ8hy/wrWzE11s7QT9bNbYBGSVaxk5UoAs8sf+M2EmiBwCqx/YGqqn6tWMo91
HciB2R2gaIhpndW5cqS0cVkqAhGDV2lwNNzal3OCsjBwAwzM
-----END CERTIFICATE-----
