Certificate:
    Data:
        Version: 3 (0x2)
        Serial Number:
            57:96:10:4b:c5:bb:a0:17:55:c9:71:00:82:5f:c7:c5
        Signature Algorithm: sha256WithRSAEncryption
        Issuer: CN=vpn.jenkins.io
        Validity
            Not Before: Apr 17 13:23:58 2019 GMT
            Not After : Apr  1 13:23:58 2022 GMT
        Subject: CN=wfollonier
        Subject Public Key Info:
            Public Key Algorithm: rsaEncryption
                RSA Public-Key: (4096 bit)
                Modulus:
                    00:b2:27:81:86:1a:38:81:cc:54:47:10:18:27:e2:
                    6b:93:34:38:db:4b:23:17:e7:cd:c3:89:6b:15:5d:
                    dc:62:0c:5f:86:18:96:57:17:da:74:59:a8:f1:5a:
                    2e:8a:2d:1b:fd:13:ea:25:d5:33:af:5f:7b:91:32:
                    50:35:04:ac:b0:17:5a:cf:a5:6a:13:61:b3:c5:ae:
                    90:81:b9:f1:ce:36:20:0f:b4:00:93:6d:dd:01:f1:
                    fb:24:09:1c:a8:05:76:8a:17:9c:bf:0b:89:aa:89:
                    0c:33:01:8b:52:06:39:d1:09:39:0d:f9:49:ea:51:
                    56:cd:a5:18:5b:3a:72:44:9f:e9:e5:c3:60:d8:86:
                    2c:6b:d3:6e:92:7e:5c:70:ee:7b:18:1f:b4:3e:83:
                    c9:0c:5c:e4:d2:cc:e1:bd:c9:ab:f0:aa:92:90:22:
                    ac:59:34:8a:3d:9c:de:34:c4:30:9e:b9:d2:01:2d:
                    23:bd:7d:0d:e2:7e:19:4a:96:9a:3c:85:c5:92:db:
                    e6:7b:6a:63:91:c7:09:ca:b9:77:a7:a1:22:31:c8:
                    c9:d8:93:bd:7f:92:99:0b:5f:5f:62:d4:3f:46:b3:
                    96:e2:d2:8b:ed:8d:41:56:cf:af:7f:cb:02:b0:2a:
                    40:55:ab:68:1b:67:e9:97:0a:c4:13:0d:ba:16:a3:
                    bd:dd:1c:78:a3:c2:f0:3e:f0:4c:4e:90:1c:38:d2:
                    75:f9:47:94:6c:7c:32:3a:f8:8e:ea:25:da:04:6f:
                    e1:63:35:26:27:1b:02:e7:27:c9:6d:0e:22:98:ae:
                    6d:d7:b9:9f:31:d4:68:58:bf:52:b2:8c:cb:4f:e0:
                    94:c5:7b:7b:d4:47:1e:99:1f:a0:d7:9e:65:f7:82:
                    65:b5:ca:05:f6:c2:d9:a2:8b:b9:5b:76:34:4d:a6:
                    fe:43:0a:e9:38:d7:4f:f3:cd:24:b4:ba:11:88:f4:
                    a2:c9:94:3c:c4:ae:cd:d4:bf:cc:19:10:7b:c2:0e:
                    f4:2c:6b:1d:c6:87:d6:b0:f2:9d:c6:8a:a3:5c:42:
                    f8:b1:e5:22:9e:84:2d:26:98:84:ca:a5:eb:d8:23:
                    7b:a8:f1:fb:14:77:4a:96:88:39:d2:a3:56:1e:14:
                    fc:bf:b8:dd:4a:52:7c:38:02:a8:7a:b0:ea:c5:fe:
                    73:72:d9:fa:59:83:18:5b:d5:8e:e6:44:f6:fa:0f:
                    69:24:09:cd:ca:e4:48:1e:c6:18:32:51:a1:43:50:
                    5f:10:37:92:2c:f1:01:40:f6:b7:2f:e2:1e:53:ef:
                    c6:17:7f:94:1e:90:13:d2:6b:77:9a:10:07:a5:e0:
                    72:d8:51:cf:fd:9c:d7:2f:3f:05:92:4a:b6:88:3a:
                    df:90:cd
                Exponent: 65537 (0x10001)
        X509v3 extensions:
            X509v3 Basic Constraints: 
                CA:FALSE
            X509v3 Subject Key Identifier: 
                A0:A2:E8:D6:E4:ED:46:1F:46:51:4E:CB:4E:41:00:DA:63:C9:F2:7F
            X509v3 Authority Key Identifier: 
                keyid:87:A7:C5:75:37:0B:14:6C:BF:46:04:8C:2A:52:E9:5D:DA:51:DC:E6
                DirName:/CN=vpn.jenkins.io
                serial:08:01:AA:6D:1B:31:40:4F:7B:9C:75:54:54:78:B5:36:65:3B:7C:B3

            X509v3 Extended Key Usage: 
                TLS Web Client Authentication
            X509v3 Key Usage: 
                Digital Signature
    Signature Algorithm: sha256WithRSAEncryption
         04:66:e4:24:ff:5b:75:70:4a:3d:24:b5:fb:f6:ff:17:b9:3a:
         14:79:4a:37:66:01:37:b7:a6:78:d1:55:c1:44:fa:ea:c5:73:
         43:dd:1d:a1:1f:e1:d3:b8:ba:aa:57:82:38:9a:4a:9d:16:eb:
         c6:8e:ce:99:70:d9:bb:a9:2b:e8:f2:47:cf:e5:f9:20:79:13:
         71:52:2e:7e:69:75:00:d7:29:36:e4:3b:5b:6e:36:42:6d:f8:
         37:02:19:d2:b2:8c:e4:e8:56:f9:3c:37:c3:60:20:8b:07:74:
         66:08:0a:54:94:a0:b0:35:5c:ef:19:34:06:68:b2:dc:a7:f2:
         f3:3a:21:82:27:82:78:93:e7:47:25:11:f5:09:62:5d:65:92:
         98:85:93:c6:d4:59:6f:d9:9e:4c:8a:88:ea:93:10:25:88:fd:
         86:a9:72:6d:34:8c:0f:9a:75:6e:b5:e9:bb:e6:c2:a7:82:e0:
         6a:a0:7a:db:0f:4a:5e:e8:8c:30:a4:f2:4a:1a:53:22:90:78:
         32:a4:60:ea:d2:09:77:b0:63:b0:a4:3d:c5:a4:7a:c5:08:d0:
         16:6f:11:71:d4:d4:2f:23:13:d2:9e:90:3d:2d:6d:87:c2:fc:
         c3:e3:94:2d:7f:c8:b9:13:81:d7:40:77:b0:ef:be:03:ee:37:
         cf:42:a9:2b:bf:82:da:e6:e7:c6:2c:88:b3:81:1c:7d:58:14:
         eb:41:93:da:35:ae:bf:d3:5e:2f:be:14:64:72:95:e9:fa:e0:
         5d:79:37:87:91:91:fb:6d:e7:a4:69:fd:5f:09:9d:aa:ff:55:
         3b:29:0f:c7:61:18:80:e4:a0:fd:e8:08:a8:bd:94:9f:84:ed:
         4c:8e:da:d3:79:a0:29:3e:eb:3e:53:8b:0f:7a:8c:45:b3:36:
         15:26:ac:d3:68:31:4c:b1:93:26:13:f5:1b:4a:05:f9:3b:3d:
         ff:21:d6:db:13:eb:17:08:3c:6f:a0:5c:ca:af:df:cc:a1:91:
         d1:fb:7f:aa:41:fe:3e:2b:bd:fe:16:da:c1:45:5e:dc:49:07:
         8c:44:a7:60:c5:73:f9:b5:23:56:c6:7f:9d:f7:fd:47:2b:10:
         b6:b6:bd:0f:f5:14:a6:e7:03:63:c1:76:b0:49:bc:47:e9:fe:
         bb:45:65:0e:f1:14:a5:80:e8:b7:92:50:d3:54:9b:c9:43:ef:
         4e:a1:05:0e:05:19:01:ce:5e:25:d0:49:d4:97:86:5d:77:49:
         1b:14:a8:a0:d2:59:05:b0:07:13:b9:24:48:a3:27:9d:ef:1c:
         37:ac:3b:7e:b5:53:db:4a:10:01:19:63:d5:bd:05:a2:04:0a:
         e5:09:88:fa:e2:01:f0:12
-----BEGIN CERTIFICATE-----
MIIFXjCCA0agAwIBAgIQV5YQS8W7oBdVyXEAgl/HxTANBgkqhkiG9w0BAQsFADAZ
MRcwFQYDVQQDDA52cG4uamVua2lucy5pbzAeFw0xOTA0MTcxMzIzNThaFw0yMjA0
MDExMzIzNThaMBUxEzARBgNVBAMMCndmb2xsb25pZXIwggIiMA0GCSqGSIb3DQEB
AQUAA4ICDwAwggIKAoICAQCyJ4GGGjiBzFRHEBgn4muTNDjbSyMX583DiWsVXdxi
DF+GGJZXF9p0WajxWi6KLRv9E+ol1TOvX3uRMlA1BKywF1rPpWoTYbPFrpCBufHO
NiAPtACTbd0B8fskCRyoBXaKF5y/C4mqiQwzAYtSBjnRCTkN+UnqUVbNpRhbOnJE
n+nlw2DYhixr026Sflxw7nsYH7Q+g8kMXOTSzOG9yavwqpKQIqxZNIo9nN40xDCe
udIBLSO9fQ3ifhlKlpo8hcWS2+Z7amORxwnKuXenoSIxyMnYk71/kpkLX19i1D9G
s5bi0ovtjUFWz69/ywKwKkBVq2gbZ+mXCsQTDboWo73dHHijwvA+8ExOkBw40nX5
R5RsfDI6+I7qJdoEb+FjNSYnGwLnJ8ltDiKYrm3XuZ8x1GhYv1KyjMtP4JTFe3vU
Rx6ZH6DXnmX3gmW1ygX2wtmii7lbdjRNpv5DCuk410/zzSS0uhGI9KLJlDzErs3U
v8wZEHvCDvQsax3Gh9aw8p3GiqNcQvix5SKehC0mmITKpevYI3uo8fsUd0qWiDnS
o1YeFPy/uN1KUnw4Aqh6sOrF/nNy2fpZgxhb1Y7mRPb6D2kkCc3K5EgexhgyUaFD
UF8QN5Is8QFA9rcv4h5T78YXf5QekBPSa3eaEAel4HLYUc/9nNcvPwWSSraIOt+Q
zQIDAQABo4GlMIGiMAkGA1UdEwQCMAAwHQYDVR0OBBYEFKCi6Nbk7UYfRlFOy05B
ANpjyfJ/MFQGA1UdIwRNMEuAFIenxXU3CxRsv0YEjCpS6V3aUdzmoR2kGzAZMRcw
FQYDVQQDDA52cG4uamVua2lucy5pb4IUCAGqbRsxQE97nHVUVHi1NmU7fLMwEwYD
VR0lBAwwCgYIKwYBBQUHAwIwCwYDVR0PBAQDAgeAMA0GCSqGSIb3DQEBCwUAA4IC
AQAEZuQk/1t1cEo9JLX79v8XuToUeUo3ZgE3t6Z40VXBRPrqxXND3R2hH+HTuLqq
V4I4mkqdFuvGjs6ZcNm7qSvo8kfP5fkgeRNxUi5+aXUA1yk25DtbbjZCbfg3AhnS
sozk6Fb5PDfDYCCLB3RmCApUlKCwNVzvGTQGaLLcp/LzOiGCJ4J4k+dHJRH1CWJd
ZZKYhZPG1Flv2Z5MiojqkxAliP2GqXJtNIwPmnVutem75sKnguBqoHrbD0pe6Iww
pPJKGlMikHgypGDq0gl3sGOwpD3FpHrFCNAWbxFx1NQvIxPSnpA9LW2HwvzD45Qt
f8i5E4HXQHew774D7jfPQqkrv4La5ufGLIizgRx9WBTrQZPaNa6/014vvhRkcpXp
+uBdeTeHkZH7beekaf1fCZ2q/1U7KQ/HYRiA5KD96AiovZSfhO1MjtrTeaApPus+
U4sPeoxFszYVJqzTaDFMsZMmE/UbSgX5Oz3/IdbbE+sXCDxvoFzKr9/MoZHR+3+q
Qf4+K73+FtrBRV7cSQeMRKdgxXP5tSNWxn+d9/1HKxC2tr0P9RSm5wNjwXawSbxH
6f67RWUO8RSlgOi3klDTVJvJQ+9OoQUOBRkBzl4l0EnUl4Zdd0kbFKig0lkFsAcT
uSRIoyed7xw3rDt+tVPbShABGWPVvQWiBArlCYj64gHwEg==
-----END CERTIFICATE-----
