Certificate:
    Data:
        Version: 3 (0x2)
        Serial Number:
            5a:66:8b:1d:da:e2:d8:98:11:d7:78:5e:6d:14:bc:95
        Signature Algorithm: sha256WithRSAEncryption
        Issuer: CN=vpn.jenkins.io
        Validity
            Not Before: Apr  7 07:58:11 2020 GMT
            Not After : Mar 23 07:58:11 2023 GMT
        Subject: CN=jequals5
        Subject Public Key Info:
            Public Key Algorithm: rsaEncryption
                RSA Public-Key: (4096 bit)
                Modulus:
                    00:e8:b7:63:63:b7:6b:37:de:c5:09:a9:f9:0b:d5:
                    2b:e8:12:4b:e1:7f:c4:63:92:3c:98:f5:7b:1e:2d:
                    c2:cd:88:26:90:d7:57:0d:90:29:a8:60:a4:ce:e4:
                    38:28:1e:de:e3:3e:53:ff:0e:fa:fd:43:e4:de:2f:
                    12:3c:1d:d6:f6:aa:2f:78:86:be:58:23:0a:0f:d0:
                    ea:e5:df:33:8e:96:84:9f:f4:7d:c8:5d:ff:1a:47:
                    33:20:df:14:22:e5:4b:e8:69:10:19:18:d8:35:d7:
                    32:54:b1:b3:0d:1b:7d:77:67:83:b7:54:6d:a8:8c:
                    e6:ad:80:1b:59:6e:53:cd:56:f9:5e:b5:1a:21:6b:
                    7e:79:65:99:40:46:64:c4:f8:48:a6:db:f7:a6:a6:
                    4b:38:23:a9:b9:60:f2:ce:39:44:d7:25:53:01:ad:
                    cf:cb:21:2d:2a:ef:78:d2:53:96:cf:43:97:4b:ea:
                    ad:4f:78:01:28:25:52:1d:f4:c4:0a:95:b3:59:b1:
                    39:3e:5a:ec:ef:10:2f:6c:38:41:89:07:a0:42:de:
                    7e:13:a9:d2:65:e7:d4:01:bd:f3:56:da:ea:44:2f:
                    8d:bd:38:f3:da:f8:49:4c:07:2a:1a:f5:a6:d7:36:
                    04:8b:4c:5b:23:fe:80:28:55:7f:63:92:b6:5f:84:
                    80:2c:5d:2f:73:2a:48:c6:be:5a:08:f5:ee:fc:ac:
                    43:16:e2:25:c8:ab:c4:0e:49:c5:61:e3:75:4a:2a:
                    05:82:2c:c1:af:4d:bd:24:5a:a7:5c:dd:ca:c4:77:
                    6c:fe:cd:83:1e:9e:75:53:18:8f:4a:3f:5f:35:25:
                    f8:90:8b:f6:6d:64:4c:7c:77:67:62:6e:13:f5:21:
                    69:d9:af:88:88:75:95:27:93:d5:53:ee:86:09:60:
                    ce:93:2b:ad:8d:ca:20:09:3a:d9:92:27:be:a3:20:
                    e9:93:dd:2c:ae:88:d8:dd:45:b8:4d:1e:25:75:4c:
                    00:e1:d1:f1:35:9b:05:46:09:6d:f6:69:fb:dc:31:
                    73:bc:90:91:73:ec:37:c5:87:6c:ca:c0:6d:20:73:
                    db:61:b4:91:60:fa:4e:85:39:8f:77:9f:94:fe:0f:
                    ae:49:ca:e8:7a:8b:b7:02:ec:08:45:0c:e8:e0:33:
                    db:f2:02:aa:fe:8e:13:5d:86:75:2d:d6:ee:9c:01:
                    77:f5:32:b3:76:29:c2:af:27:4c:82:27:01:e4:b5:
                    63:ee:02:31:14:86:59:bb:ea:78:7e:57:a3:35:00:
                    eb:f1:bb:f5:29:40:44:38:ef:a7:59:79:57:43:98:
                    22:e7:d0:1f:ef:2d:9b:f0:82:62:32:22:09:56:bd:
                    73:11:75
                Exponent: 65537 (0x10001)
        X509v3 extensions:
            X509v3 Basic Constraints: 
                CA:FALSE
            X509v3 Subject Key Identifier: 
                A6:55:D5:FC:F1:CA:4C:62:E2:CE:62:48:A4:FC:18:F1:C7:79:19:81
            X509v3 Authority Key Identifier: 
                keyid:87:A7:C5:75:37:0B:14:6C:BF:46:04:8C:2A:52:E9:5D:DA:51:DC:E6
                DirName:/CN=vpn.jenkins.io
                serial:08:01:AA:6D:1B:31:40:4F:7B:9C:75:54:54:78:B5:36:65:3B:7C:B3

            X509v3 Extended Key Usage: 
                TLS Web Client Authentication
            X509v3 Key Usage: 
                Digital Signature
    Signature Algorithm: sha256WithRSAEncryption
         61:3c:87:8a:fc:29:cb:98:d2:10:84:45:b3:76:43:28:9e:b7:
         a7:94:fe:1b:54:71:88:74:bb:55:6c:9f:5a:b7:73:7b:3f:85:
         e1:02:fe:b2:1f:72:33:a8:05:6d:e5:5c:fb:f7:b5:05:90:68:
         91:d2:cf:5d:a7:6f:c1:0a:b9:39:c4:d5:17:c8:32:27:af:94:
         8d:52:9f:c0:3b:24:ec:74:b8:2b:dd:fb:07:da:9b:67:a1:6c:
         b5:8b:44:25:a8:d0:28:e6:9d:17:f8:01:9b:72:3e:27:c5:59:
         57:82:43:60:1a:f5:26:e4:3c:e2:b6:c0:7a:2a:6e:66:ad:ac:
         94:f8:7a:1c:e7:29:e9:01:78:03:f7:10:08:4b:71:96:7f:52:
         09:c8:d5:58:0f:ca:cd:88:74:7f:f3:e4:c2:f3:db:af:d4:96:
         2e:7d:9a:3c:79:78:81:3c:97:ed:8d:b0:b4:e9:bf:43:fc:51:
         52:c6:6b:d7:84:64:e5:8a:25:fc:ec:cf:3e:40:da:6e:ba:db:
         df:e3:62:98:c9:17:55:c3:ff:db:28:5d:92:c3:00:9d:49:42:
         7c:dc:ae:0a:66:d2:a0:3c:c7:7a:7a:68:d6:dd:66:89:ef:65:
         1b:03:6c:1a:15:c4:08:f0:0c:b0:84:7f:a3:9b:a2:6b:f4:a0:
         78:1c:86:c5:15:0c:ed:5b:c9:82:e0:f6:48:5b:32:79:32:26:
         3e:a3:5d:6e:47:4f:4c:d6:79:57:29:60:e4:c5:67:03:28:75:
         34:4e:f7:74:fc:5b:cc:e5:be:93:c2:13:4f:a0:6f:82:3e:de:
         ea:88:7f:8b:28:9a:2f:33:66:7b:0e:27:a0:71:73:0e:53:a8:
         7a:02:4b:e2:d5:7b:ba:ba:2f:79:02:23:59:e3:da:12:24:d2:
         49:7d:49:af:d4:44:b8:c4:7e:18:63:e8:8e:eb:35:d4:fc:0b:
         70:fd:66:2f:0f:35:bc:92:b8:b4:d9:ec:78:2d:24:23:25:d1:
         e2:84:e2:5a:21:e2:8c:bd:66:46:78:ef:76:5f:d4:3e:3e:1b:
         6a:15:b6:d1:b8:c9:54:87:76:14:59:23:3c:03:8b:66:e6:87:
         7d:61:fe:95:54:c2:ac:44:34:96:1c:73:f5:e1:ce:27:06:70:
         08:0f:88:e1:fe:8c:8b:54:15:9f:40:a6:bc:e5:88:16:f8:67:
         67:9a:01:7b:56:1c:95:e4:d4:51:e8:a3:6f:ed:9d:c2:f4:f3:
         0d:dc:a4:5c:31:dd:fb:8c:da:1f:81:d5:56:ae:78:6c:b8:ab:
         10:76:56:7d:4f:ce:3f:fc:68:99:b4:77:48:ee:de:a2:08:d4:
         b0:f8:5f:61:f8:a1:3a:aa
-----BEGIN CERTIFICATE-----
MIIFXDCCA0SgAwIBAgIQWmaLHdri2JgR13hebRS8lTANBgkqhkiG9w0BAQsFADAZ
MRcwFQYDVQQDDA52cG4uamVua2lucy5pbzAeFw0yMDA0MDcwNzU4MTFaFw0yMzAz
MjMwNzU4MTFaMBMxETAPBgNVBAMMCGplcXVhbHM1MIICIjANBgkqhkiG9w0BAQEF
AAOCAg8AMIICCgKCAgEA6LdjY7drN97FCan5C9Ur6BJL4X/EY5I8mPV7Hi3CzYgm
kNdXDZApqGCkzuQ4KB7e4z5T/w76/UPk3i8SPB3W9qoveIa+WCMKD9Dq5d8zjpaE
n/R9yF3/GkczIN8UIuVL6GkQGRjYNdcyVLGzDRt9d2eDt1RtqIzmrYAbWW5TzVb5
XrUaIWt+eWWZQEZkxPhIptv3pqZLOCOpuWDyzjlE1yVTAa3PyyEtKu940lOWz0OX
S+qtT3gBKCVSHfTECpWzWbE5Plrs7xAvbDhBiQegQt5+E6nSZefUAb3zVtrqRC+N
vTjz2vhJTAcqGvWm1zYEi0xbI/6AKFV/Y5K2X4SALF0vcypIxr5aCPXu/KxDFuIl
yKvEDknFYeN1SioFgizBr029JFqnXN3KxHds/s2DHp51UxiPSj9fNSX4kIv2bWRM
fHdnYm4T9SFp2a+IiHWVJ5PVU+6GCWDOkyutjcogCTrZkie+oyDpk90srojY3UW4
TR4ldUwA4dHxNZsFRglt9mn73DFzvJCRc+w3xYdsysBtIHPbYbSRYPpOhTmPd5+U
/g+uScroeou3AuwIRQzo4DPb8gKq/o4TXYZ1LdbunAF39TKzdinCrydMgicB5LVj
7gIxFIZZu+p4flejNQDr8bv1KUBEOO+nWXlXQ5gi59Af7y2b8IJiMiIJVr1zEXUC
AwEAAaOBpTCBojAJBgNVHRMEAjAAMB0GA1UdDgQWBBSmVdX88cpMYuLOYkik/Bjx
x3kZgTBUBgNVHSMETTBLgBSHp8V1NwsUbL9GBIwqUuld2lHc5qEdpBswGTEXMBUG
A1UEAwwOdnBuLmplbmtpbnMuaW+CFAgBqm0bMUBPe5x1VFR4tTZlO3yzMBMGA1Ud
JQQMMAoGCCsGAQUFBwMCMAsGA1UdDwQEAwIHgDANBgkqhkiG9w0BAQsFAAOCAgEA
YTyHivwpy5jSEIRFs3ZDKJ63p5T+G1RxiHS7VWyfWrdzez+F4QL+sh9yM6gFbeVc
+/e1BZBokdLPXadvwQq5OcTVF8gyJ6+UjVKfwDsk7HS4K937B9qbZ6FstYtEJajQ
KOadF/gBm3I+J8VZV4JDYBr1JuQ84rbAeipuZq2slPh6HOcp6QF4A/cQCEtxln9S
CcjVWA/KzYh0f/PkwvPbr9SWLn2aPHl4gTyX7Y2wtOm/Q/xRUsZr14Rk5Yol/OzP
PkDabrrb3+NimMkXVcP/2yhdksMAnUlCfNyuCmbSoDzHenpo1t1mie9lGwNsGhXE
CPAMsIR/o5uia/SgeByGxRUM7VvJguD2SFsyeTImPqNdbkdPTNZ5Vylg5MVnAyh1
NE73dPxbzOW+k8ITT6Bvgj7e6oh/iyiaLzNmew4noHFzDlOoegJL4tV7uroveQIj
WePaEiTSSX1Jr9REuMR+GGPojus11PwLcP1mLw81vJK4tNnseC0kIyXR4oTiWiHi
jL1mRnjvdl/UPj4bahW20bjJVId2FFkjPAOLZuaHfWH+lVTCrEQ0lhxz9eHOJwZw
CA+I4f6Mi1QVn0CmvOWIFvhnZ5oBe1YcleTUUeijb+2dwvTzDdykXDHd+4zaH4HV
Vq54bLirEHZWfU/OP/xombR3SO7eogjUsPhfYfihOqo=
-----END CERTIFICATE-----
