Certificate:
    Data:
        Version: 3 (0x2)
        Serial Number:
            6b:21:f3:46:4b:d2:60:7f:fc:cf:9f:91:8e:98:01:56
    Signature Algorithm: sha256WithRSAEncryption
        Issuer: CN=vpn.jenkins.io
        Validity
            Not Before: Dec 13 14:38:01 2021 GMT
            Not After : Nov 27 14:38:01 2024 GMT
        Subject: CN=smerle
        Subject Public Key Info:
            Public Key Algorithm: rsaEncryption
                Public-Key: (4096 bit)
                Modulus:
                    00:ad:60:5c:94:ba:4f:51:d8:bf:42:94:a0:19:a5:
                    04:32:ab:6a:78:6a:8a:59:b1:c8:1b:de:71:a6:fa:
                    fa:ef:d0:8d:a2:cc:49:f9:16:bf:a8:59:b0:dc:b9:
                    c4:c4:70:f3:f5:97:8a:68:1b:8e:13:0f:e3:ec:1c:
                    aa:5d:a5:0c:ed:0d:a4:a9:e1:5a:96:b3:dd:02:71:
                    62:54:9c:d1:51:3b:1c:43:18:03:a9:48:09:cf:98:
                    61:fd:24:4a:e7:ca:b8:3e:25:61:63:80:b5:4c:e3:
                    0f:9c:82:3a:e0:30:41:29:02:97:3a:7a:23:69:fc:
                    be:42:8a:d0:87:74:64:e0:05:bf:fd:23:10:4d:b2:
                    63:c2:9b:90:86:62:fa:3c:d2:58:e5:76:03:11:ff:
                    44:61:88:f9:5e:8d:00:07:38:24:36:96:de:fa:ec:
                    7e:12:e4:a2:87:76:e3:fe:4e:e4:a6:ff:69:69:cb:
                    c7:6a:c9:65:2a:a6:71:33:23:08:4c:2a:b2:b1:c6:
                    a1:92:9f:61:0c:59:e5:a0:e5:7b:c8:41:8e:a5:86:
                    85:25:45:24:ee:78:31:67:38:f6:1b:8b:73:92:0f:
                    7d:bd:72:2e:5e:a8:9a:77:c6:29:f8:e0:6b:d4:43:
                    11:6f:d1:c0:db:fb:25:5c:3f:7e:21:df:0c:ca:b7:
                    50:7d:6f:e1:5a:6c:b3:ef:43:11:e0:bb:3e:b3:c8:
                    ee:25:0f:03:c3:1c:59:aa:5d:61:af:89:cf:5d:72:
                    a7:a5:6d:4e:27:b6:34:62:c5:8a:5f:8e:28:1a:aa:
                    ef:60:a0:7a:a0:bd:55:20:5e:28:4b:2f:56:93:35:
                    8e:9b:68:a8:91:d2:38:e9:0c:e2:21:93:ac:c0:33:
                    34:6d:1b:6b:8f:f1:cb:9e:69:97:a5:17:b9:01:36:
                    9c:48:77:17:47:1b:96:63:b6:10:02:82:4d:7d:36:
                    f2:78:2f:15:79:78:3e:34:11:0f:23:ed:97:4d:ea:
                    69:87:93:0b:79:43:63:35:e1:98:e7:d8:a4:06:9f:
                    a7:53:0d:99:e5:3a:41:13:3b:ae:99:74:68:4e:97:
                    86:50:32:6a:ef:d4:5f:68:27:08:9e:47:f7:3e:cf:
                    62:89:76:c3:9a:c8:18:42:16:65:01:f4:e0:77:93:
                    26:e7:f1:58:9d:5e:a1:26:cc:b6:ba:c0:54:04:27:
                    59:7d:45:b6:03:0b:a7:0e:23:cc:72:ae:4d:96:8c:
                    d6:2d:67:be:a6:5b:da:b0:c5:41:d5:4b:ac:f3:be:
                    f8:bf:2b:54:3b:87:b0:9a:d1:1f:b6:a9:08:21:72:
                    ee:c1:46:38:7e:d2:3d:bf:1a:3e:28:c9:5e:b3:ae:
                    8c:34:5f
                Exponent: 65537 (0x10001)
        X509v3 extensions:
            X509v3 Basic Constraints: 
                CA:FALSE
            X509v3 Subject Key Identifier: 
                F6:71:F7:7F:12:D1:95:C5:1D:AB:EE:3B:45:B5:11:9D:66:9C:E0:0A
            X509v3 Authority Key Identifier: 
                keyid:87:A7:C5:75:37:0B:14:6C:BF:46:04:8C:2A:52:E9:5D:DA:51:DC:E6
                DirName:/CN=vpn.jenkins.io
                serial:08:01:AA:6D:1B:31:40:4F:7B:9C:75:54:54:78:B5:36:65:3B:7C:B3

            X509v3 Extended Key Usage: 
                TLS Web Client Authentication
            X509v3 Key Usage: 
                Digital Signature
    Signature Algorithm: sha256WithRSAEncryption
         8b:27:24:fe:b2:6e:d9:7a:78:38:74:0c:04:5e:fc:3d:be:a0:
         d2:db:d4:75:7e:56:92:ad:2b:c5:fa:d0:38:4b:51:3e:60:f9:
         58:c3:99:62:b0:d5:c8:33:42:83:7e:f8:4f:9a:76:2a:ce:fb:
         8b:f0:fd:cc:89:d3:d8:54:8e:c3:a2:f6:87:a9:03:4b:2a:ef:
         a1:59:d7:aa:15:bd:c8:05:61:f1:9b:1e:8a:ce:a2:61:5d:e1:
         f7:a3:0f:c6:95:b9:27:ef:6b:1b:b6:bc:56:2b:0f:1a:46:a3:
         0f:0d:d5:11:a1:87:bc:51:43:67:a0:88:46:77:5d:e1:27:b2:
         3f:3d:12:30:08:ad:56:77:f3:b4:28:32:ac:79:f0:8c:7a:e6:
         bd:6a:97:52:34:c4:d0:dc:c1:f3:36:d8:39:37:f2:b5:68:19:
         c4:19:ef:8d:fa:b1:04:98:71:41:31:bb:08:09:87:46:66:cf:
         84:c9:c7:83:87:98:13:27:55:8b:73:58:48:a2:50:9e:0b:bc:
         50:5a:66:1f:ff:e1:d0:b7:e3:f2:96:9c:72:24:f7:3c:e8:13:
         1c:5c:f7:76:96:e4:ea:9e:54:ce:40:7f:83:c8:02:f4:b8:65:
         3f:8a:cf:f6:af:53:1b:9c:8f:42:70:0c:9a:02:ea:d2:9d:85:
         5c:f7:01:0d:28:7d:4b:f8:2d:4c:70:da:b2:a1:18:a0:94:41:
         2f:48:21:af:2c:26:06:7f:6e:b4:32:cc:ef:bb:e4:9e:0e:90:
         c5:a8:ec:3f:0c:a7:c2:da:2e:e2:7a:86:13:fa:84:7f:0b:a2:
         9e:5e:41:1a:17:18:d2:00:b4:91:57:3c:e1:fb:c5:51:b3:d6:
         15:e8:22:a3:8f:2d:b7:a2:7f:fd:54:73:ae:57:41:0d:b6:50:
         67:47:7c:cb:39:ec:5c:bd:80:72:06:6f:dd:5d:45:f9:35:d5:
         5e:01:5d:4a:a8:83:83:6a:15:9c:eb:57:7c:7e:3b:7d:1b:95:
         57:99:73:5c:42:4d:b6:1a:89:8f:6e:2b:04:44:fb:47:b9:b1:
         10:b2:e0:39:69:af:6e:75:19:e6:89:2c:ee:d7:77:4a:c4:95:
         fe:f3:0c:14:73:fe:60:a0:83:ac:cc:07:7e:9a:4a:0e:c4:99:
         c8:7e:7e:ba:13:36:8c:10:f0:1a:96:bd:0e:99:75:22:c3:13:
         d1:bd:95:19:b5:c9:2a:07:99:8b:d1:36:20:bc:43:7a:83:1d:
         5c:ca:00:46:03:17:fc:b6:33:2b:f9:20:10:70:20:98:9d:2d:
         4a:5a:f2:ad:1d:96:ee:79:54:81:fb:e1:9f:79:fd:48:ff:14:
         ae:ea:fc:35:a4:bb:a4:55
-----BEGIN CERTIFICATE-----
MIIFWjCCA0KgAwIBAgIQayHzRkvSYH/8z5+RjpgBVjANBgkqhkiG9w0BAQsFADAZ
MRcwFQYDVQQDDA52cG4uamVua2lucy5pbzAeFw0yMTEyMTMxNDM4MDFaFw0yNDEx
MjcxNDM4MDFaMBExDzANBgNVBAMMBnNtZXJsZTCCAiIwDQYJKoZIhvcNAQEBBQAD
ggIPADCCAgoCggIBAK1gXJS6T1HYv0KUoBmlBDKranhqilmxyBvecab6+u/QjaLM
SfkWv6hZsNy5xMRw8/WXimgbjhMP4+wcql2lDO0NpKnhWpaz3QJxYlSc0VE7HEMY
A6lICc+YYf0kSufKuD4lYWOAtUzjD5yCOuAwQSkClzp6I2n8vkKK0Id0ZOAFv/0j
EE2yY8KbkIZi+jzSWOV2AxH/RGGI+V6NAAc4JDaW3vrsfhLkood24/5O5Kb/aWnL
x2rJZSqmcTMjCEwqsrHGoZKfYQxZ5aDle8hBjqWGhSVFJO54MWc49huLc5IPfb1y
Ll6omnfGKfjga9RDEW/RwNv7JVw/fiHfDMq3UH1v4Vpss+9DEeC7PrPI7iUPA8Mc
WapdYa+Jz11yp6VtTie2NGLFil+OKBqq72CgeqC9VSBeKEsvVpM1jptoqJHSOOkM
4iGTrMAzNG0ba4/xy55pl6UXuQE2nEh3F0cblmO2EAKCTX028ngvFXl4PjQRDyPt
l03qaYeTC3lDYzXhmOfYpAafp1MNmeU6QRM7rpl0aE6XhlAyau/UX2gnCJ5H9z7P
Yol2w5rIGEIWZQH04HeTJufxWJ1eoSbMtrrAVAQnWX1FtgMLpw4jzHKuTZaM1i1n
vqZb2rDFQdVLrPO++L8rVDuHsJrRH7apCCFy7sFGOH7SPb8aPijJXrOujDRfAgMB
AAGjgaUwgaIwCQYDVR0TBAIwADAdBgNVHQ4EFgQU9nH3fxLRlcUdq+47RbURnWac
4AowVAYDVR0jBE0wS4AUh6fFdTcLFGy/RgSMKlLpXdpR3OahHaQbMBkxFzAVBgNV
BAMMDnZwbi5qZW5raW5zLmlvghQIAaptGzFAT3ucdVRUeLU2ZTt8szATBgNVHSUE
DDAKBggrBgEFBQcDAjALBgNVHQ8EBAMCB4AwDQYJKoZIhvcNAQELBQADggIBAIsn
JP6ybtl6eDh0DARe/D2+oNLb1HV+VpKtK8X60DhLUT5g+VjDmWKw1cgzQoN++E+a
dirO+4vw/cyJ09hUjsOi9oepA0sq76FZ16oVvcgFYfGbHorOomFd4fejD8aVuSfv
axu2vFYrDxpGow8N1RGhh7xRQ2egiEZ3XeEnsj89EjAIrVZ387QoMqx58Ix65r1q
l1I0xNDcwfM22Dk38rVoGcQZ7436sQSYcUExuwgJh0Zmz4TJx4OHmBMnVYtzWEii
UJ4LvFBaZh//4dC34/KWnHIk9zzoExxc93aW5OqeVM5Af4PIAvS4ZT+Kz/avUxuc
j0JwDJoC6tKdhVz3AQ0ofUv4LUxw2rKhGKCUQS9IIa8sJgZ/brQyzO+75J4OkMWo
7D8Mp8LaLuJ6hhP6hH8Lop5eQRoXGNIAtJFXPOH7xVGz1hXoIqOPLbeif/1Uc65X
QQ22UGdHfMs57Fy9gHIGb91dRfk11V4BXUqog4NqFZzrV3x+O30blVeZc1xCTbYa
iY9uKwRE+0e5sRCy4Dlpr251GeaJLO7Xd0rElf7zDBRz/mCgg6zMB36aSg7Emch+
froTNowQ8BqWvQ6ZdSLDE9G9lRm1ySoHmYvRNiC8Q3qDHVzKAEYDF/y2Myv5IBBw
IJidLUpa8q0dlu55VIH74Z95/Uj/FK7q/DWku6RV
-----END CERTIFICATE-----
