Certificate:
    Data:
        Version: 3 (0x2)
        Serial Number:
            6c:2f:51:18:fd:48:c0:06:30:73:1a:5b:24:cc:32:7b
        Signature Algorithm: sha256WithRSAEncryption
        Issuer: CN=vpn.jenkins.io
        Validity
            Not Before: Sep  8 09:37:06 2024 GMT
            Not After : Aug 24 09:37:06 2027 GMT
        Subject: CN=timja
        Subject Public Key Info:
            Public Key Algorithm: rsaEncryption
                Public-Key: (4096 bit)
                Modulus:
                    00:c2:64:1a:d0:ea:e8:32:e7:f6:ea:30:d7:1b:ef:
                    13:b0:b5:0b:c2:29:cd:2d:f7:df:b2:62:56:28:15:
                    61:ad:3b:96:86:37:d0:ab:58:4d:bf:68:15:b0:ab:
                    84:ca:45:ea:75:c8:28:5e:db:57:ed:f6:6e:8b:4f:
                    dd:78:ac:82:64:3b:5a:83:90:de:34:81:aa:d4:ef:
                    a7:bc:32:51:d9:4d:67:88:73:c8:ff:41:17:80:f7:
                    82:34:99:34:86:83:11:6a:3d:ac:b8:6a:67:45:9b:
                    88:36:23:a0:05:70:53:b1:d4:fb:3c:b3:ab:d4:6d:
                    e6:f1:31:f4:bb:2c:24:a6:63:27:cf:f5:36:c2:b0:
                    c5:34:46:1c:1f:bd:cd:9b:c9:16:ea:a4:dc:cb:7c:
                    2d:f6:4d:0c:9b:1a:86:64:8f:b9:c4:5a:57:2c:f3:
                    fb:99:6b:f6:b0:58:af:13:4d:45:08:05:95:a4:7a:
                    0a:c8:f6:50:19:2b:5f:b7:a7:fc:89:76:b5:0c:24:
                    c2:53:a2:9d:e8:d5:bf:53:32:3e:0d:6c:19:1e:46:
                    ef:f5:0c:86:2a:e6:a3:c8:2b:2c:5c:db:cb:1b:fe:
                    30:da:6a:ed:87:49:64:ab:b2:54:3f:16:db:8b:d1:
                    04:e5:c6:95:cc:19:57:d9:41:8e:77:cd:e8:95:5e:
                    fe:ff:76:3d:39:82:93:02:05:99:24:62:44:c7:90:
                    9f:e7:28:32:cd:bd:c2:51:26:85:8e:5c:5e:70:d3:
                    0c:dc:4a:af:23:c7:ee:d6:e0:4a:64:00:e8:32:d2:
                    f0:f7:8d:b5:54:15:71:c2:38:0c:7f:a2:56:30:d3:
                    da:0d:52:a3:ec:40:ea:cd:69:56:0b:f1:31:80:6c:
                    09:75:f9:e0:59:84:09:db:82:33:9c:ad:c1:e2:5f:
                    19:f7:df:3a:67:83:84:e5:49:08:f8:67:6c:c5:6a:
                    fa:65:2f:a8:c6:81:ef:25:23:68:2b:eb:14:b2:35:
                    94:9b:44:17:98:4a:4e:98:dd:54:f5:d6:0f:00:5c:
                    eb:83:3d:3e:1a:87:c9:5f:af:e4:af:d2:5d:46:71:
                    38:88:79:70:26:27:92:58:d9:4b:38:0b:31:df:16:
                    14:50:e4:cc:66:22:bf:44:81:b4:d3:d3:d1:2d:6d:
                    8a:c3:4b:88:c9:8d:3f:a0:48:c1:ee:5c:49:ce:3b:
                    01:01:c4:87:c9:09:09:75:22:76:3c:62:83:79:74:
                    60:8b:3d:14:d7:d3:83:f4:1d:d8:e9:d2:73:bc:32:
                    a2:0f:29:d7:ce:15:82:87:20:c2:06:3e:ff:2e:86:
                    43:15:1b:fe:d3:de:e7:69:93:67:4e:5c:7b:ca:c7:
                    94:88:39
                Exponent: 65537 (0x10001)
        X509v3 extensions:
            X509v3 Basic Constraints: 
                CA:FALSE
            X509v3 Subject Key Identifier: 
                5E:6A:9F:4A:0E:1E:50:8D:ED:6D:07:61:03:85:95:DE:03:1D:A8:DE
            X509v3 Authority Key Identifier: 
                keyid:87:A7:C5:75:37:0B:14:6C:BF:46:04:8C:2A:52:E9:5D:DA:51:DC:E6
                DirName:/CN=vpn.jenkins.io
                serial:08:01:AA:6D:1B:31:40:4F:7B:9C:75:54:54:78:B5:36:65:3B:7C:B3
            X509v3 Extended Key Usage: 
                TLS Web Client Authentication
            X509v3 Key Usage: 
                Digital Signature
    Signature Algorithm: sha256WithRSAEncryption
    Signature Value:
        37:97:de:f5:61:38:f1:fd:eb:1f:0a:6c:fb:cf:93:f0:cf:f6:
        37:b4:c7:98:4c:5e:fa:e9:74:95:c3:fd:63:f7:05:dc:7d:69:
        03:7c:35:45:98:62:b2:67:7b:c1:ec:1b:9f:0d:3d:f3:9b:59:
        1e:71:82:4e:9b:41:b3:8b:32:3a:bf:9f:d4:eb:9b:82:c6:c3:
        3f:28:db:5a:e7:39:b4:a4:62:50:70:1d:ee:21:93:72:e6:e9:
        b3:cf:93:49:34:71:01:80:ee:e2:d0:43:07:cd:48:ad:ca:ff:
        07:41:ed:9d:cf:73:21:a0:b0:47:e2:69:8b:7d:97:11:4a:08:
        12:a4:9d:9c:4b:44:09:ce:ca:95:85:5d:70:22:8e:76:f7:bd:
        46:5c:6e:a2:25:2f:28:c6:55:ba:2b:7b:2a:4f:16:bb:84:33:
        49:cf:a6:2b:bc:9b:b2:f1:f1:f1:d3:5b:1b:5e:fb:27:6f:49:
        02:9c:18:45:ee:ed:4e:e1:c4:1f:63:0c:bf:fd:8b:ee:48:d5:
        46:d1:20:11:2a:38:53:a0:8c:22:3b:2f:fc:52:07:cf:06:ca:
        68:20:93:cb:63:d9:db:87:15:d7:d7:f0:de:78:fa:b5:74:6b:
        20:82:b6:49:89:24:b6:0a:cc:fd:0b:e9:27:32:cd:25:4a:6a:
        2b:17:32:0d:6a:41:61:01:c3:d4:d6:60:d9:45:c8:75:74:42:
        fa:38:61:cf:74:09:67:c3:5d:a8:29:43:40:ed:b4:dd:fd:9a:
        a0:d0:9c:c1:ef:80:3f:f9:7c:51:cb:f1:de:07:24:cd:08:d2:
        35:44:db:7f:e8:54:fb:cc:25:23:67:b0:9f:f9:e0:c7:c6:60:
        d7:90:a4:e1:89:02:03:6f:53:02:bc:2b:0d:34:65:44:6e:d5:
        4e:07:3b:b1:c4:42:97:95:f6:36:b9:d0:2c:d6:bc:c8:dc:d0:
        f1:5f:23:cb:27:97:19:ba:b4:55:ca:fc:b6:73:7d:0a:bb:1a:
        96:60:d1:e0:b0:4a:3d:5c:c9:e2:c7:f4:41:f3:cc:68:ee:23:
        da:0c:64:db:dc:ab:73:1e:8b:cc:1c:ba:af:43:49:8b:96:c6:
        40:94:10:f5:5b:03:5d:ed:4b:c8:e7:ce:dc:49:cc:52:fc:a2:
        7a:b6:ae:95:88:2d:b9:74:11:19:ea:e6:11:45:c8:13:da:ec:
        44:29:90:41:6b:2d:a3:81:44:06:b7:db:b2:5d:3a:2a:d2:42:
        81:8a:66:11:f5:22:1a:b0:e7:af:28:86:82:75:f4:72:9e:05:
        34:0b:7b:82:36:f4:46:f7:f7:bc:56:81:40:e4:56:6c:97:57:
        ca:55:0b:f9:23:2f:c1:5f
-----BEGIN CERTIFICATE-----
MIIFWTCCA0GgAwIBAgIQbC9RGP1IwAYwcxpbJMwyezANBgkqhkiG9w0BAQsFADAZ
MRcwFQYDVQQDDA52cG4uamVua2lucy5pbzAeFw0yNDA5MDgwOTM3MDZaFw0yNzA4
MjQwOTM3MDZaMBAxDjAMBgNVBAMMBXRpbWphMIICIjANBgkqhkiG9w0BAQEFAAOC
Ag8AMIICCgKCAgEAwmQa0OroMuf26jDXG+8TsLULwinNLfffsmJWKBVhrTuWhjfQ
q1hNv2gVsKuEykXqdcgoXttX7fZui0/deKyCZDtag5DeNIGq1O+nvDJR2U1niHPI
/0EXgPeCNJk0hoMRaj2suGpnRZuINiOgBXBTsdT7PLOr1G3m8TH0uywkpmMnz/U2
wrDFNEYcH73Nm8kW6qTcy3wt9k0MmxqGZI+5xFpXLPP7mWv2sFivE01FCAWVpHoK
yPZQGStft6f8iXa1DCTCU6Kd6NW/UzI+DWwZHkbv9QyGKuajyCssXNvLG/4w2mrt
h0lkq7JUPxbbi9EE5caVzBlX2UGOd83olV7+/3Y9OYKTAgWZJGJEx5Cf5ygyzb3C
USaFjlxecNMM3EqvI8fu1uBKZADoMtLw9421VBVxwjgMf6JWMNPaDVKj7EDqzWlW
C/ExgGwJdfngWYQJ24IznK3B4l8Z9986Z4OE5UkI+GdsxWr6ZS+oxoHvJSNoK+sU
sjWUm0QXmEpOmN1U9dYPAFzrgz0+GofJX6/kr9JdRnE4iHlwJieSWNlLOAsx3xYU
UOTMZiK/RIG009PRLW2Kw0uIyY0/oEjB7lxJzjsBAcSHyQkJdSJ2PGKDeXRgiz0U
19OD9B3Y6dJzvDKiDynXzhWChyDCBj7/LoZDFRv+097naZNnTlx7yseUiDkCAwEA
AaOBpTCBojAJBgNVHRMEAjAAMB0GA1UdDgQWBBReap9KDh5Qje1tB2EDhZXeAx2o
3jBUBgNVHSMETTBLgBSHp8V1NwsUbL9GBIwqUuld2lHc5qEdpBswGTEXMBUGA1UE
AwwOdnBuLmplbmtpbnMuaW+CFAgBqm0bMUBPe5x1VFR4tTZlO3yzMBMGA1UdJQQM
MAoGCCsGAQUFBwMCMAsGA1UdDwQEAwIHgDANBgkqhkiG9w0BAQsFAAOCAgEAN5fe
9WE48f3rHwps+8+T8M/2N7THmExe+ul0lcP9Y/cF3H1pA3w1RZhismd7wewbnw09
85tZHnGCTptBs4syOr+f1OubgsbDPyjbWuc5tKRiUHAd7iGTcubps8+TSTRxAYDu
4tBDB81Ircr/B0Htnc9zIaCwR+Jpi32XEUoIEqSdnEtECc7KlYVdcCKOdve9Rlxu
oiUvKMZVuit7Kk8Wu4QzSc+mK7ybsvHx8dNbG177J29JApwYRe7tTuHEH2MMv/2L
7kjVRtEgESo4U6CMIjsv/FIHzwbKaCCTy2PZ24cV19fw3nj6tXRrIIK2SYkktgrM
/QvpJzLNJUpqKxcyDWpBYQHD1NZg2UXIdXRC+jhhz3QJZ8NdqClDQO203f2aoNCc
we+AP/l8Ucvx3gckzQjSNUTbf+hU+8wlI2ewn/ngx8Zg15Ck4YkCA29TArwrDTRl
RG7VTgc7scRCl5X2NrnQLNa8yNzQ8V8jyyeXGbq0Vcr8tnN9CrsalmDR4LBKPVzJ
4sf0QfPMaO4j2gxk29yrcx6LzBy6r0NJi5bGQJQQ9VsDXe1LyOfO3EnMUvyierau
lYgtuXQRGermEUXIE9rsRCmQQWsto4FEBrfbsl06KtJCgYpmEfUiGrDnryiGgnX0
cp4FNAt7gjb0Rvf3vFaBQORWbJdXylUL+SMvwV8=
-----END CERTIFICATE-----
