Certificate:
    Data:
        Version: 3 (0x2)
        Serial Number:
            78:eb:1f:30:59:47:0a:14:cb:0b:39:9d:5b:24:c9:9f
    Signature Algorithm: sha256WithRSAEncryption
        Issuer: CN=vpn.jenkins.io
        Validity
            Not Before: May  3 16:37:31 2022 GMT
            Not After : Apr 17 16:37:31 2025 GMT
        Subject: CN=basil
        Subject Public Key Info:
            Public Key Algorithm: rsaEncryption
                Public-Key: (4096 bit)
                Modulus:
                    00:c0:03:a9:c4:25:4f:6e:de:3a:d3:79:b6:7e:3c:
                    96:9e:2f:a9:39:33:a6:36:9b:93:4a:04:35:cb:15:
                    e3:cb:0d:ee:20:b6:02:41:87:e2:c4:62:f4:ce:99:
                    eb:bb:5b:88:f5:4d:3b:e9:a8:1f:7f:3a:ea:bc:a0:
                    fe:f6:49:05:6f:80:db:ff:78:0a:0c:d9:ef:94:e3:
                    fa:d5:2e:1f:ab:08:86:0a:a1:e5:0a:bb:03:93:dd:
                    d3:0a:4d:10:4e:03:94:85:f5:75:14:a4:2b:f0:5b:
                    a7:7e:7b:e5:94:72:d2:7b:82:99:0a:16:39:7b:5c:
                    a8:1d:95:07:59:6a:eb:ca:53:02:16:ec:c0:ba:de:
                    92:76:8a:ef:5b:6f:8f:6a:ba:ad:df:3d:d7:f0:59:
                    3c:37:6c:67:0c:19:e3:b5:4c:fc:37:f1:0f:2a:58:
                    83:fe:ea:5e:86:6a:01:ec:42:bf:2c:1e:68:a5:af:
                    04:d6:c5:d8:0c:f3:00:95:2c:3f:34:8f:22:d0:38:
                    7e:df:c1:c0:39:dc:d2:e3:c7:73:8a:a7:b3:2d:bb:
                    c6:30:4d:57:cb:61:10:89:7d:78:f0:29:58:d4:d5:
                    8a:07:5c:f2:0a:51:20:b6:6b:62:08:45:be:62:cc:
                    1e:51:28:85:93:80:fd:58:ca:b5:b6:dc:aa:79:c1:
                    6a:2d:c3:2d:53:73:65:71:8e:31:38:82:99:4f:44:
                    a1:aa:f2:f6:11:37:09:6e:63:aa:e0:e3:85:fb:9b:
                    8c:d1:c8:99:6d:aa:35:d2:db:8a:da:11:aa:e0:eb:
                    32:0e:3b:e9:b2:62:2e:e2:58:04:b9:43:8f:65:de:
                    90:22:2b:c8:a2:15:b1:ec:e9:eb:3f:d4:bb:78:5f:
                    e0:58:d4:07:e2:cf:dd:4e:06:13:2d:fe:80:29:39:
                    b6:bb:85:dd:60:f9:ca:fd:6d:e0:fd:72:3d:22:dd:
                    6d:21:9e:09:48:c7:75:12:10:86:25:12:59:e3:a9:
                    0d:f5:53:9f:9d:fe:ec:b5:f1:26:bf:7c:e4:9f:fc:
                    90:1b:f2:66:6c:9a:d5:24:9a:4b:58:6d:fc:2f:7d:
                    80:d2:af:2a:24:1e:88:78:bf:1c:9c:25:2a:cc:cb:
                    be:de:5c:24:64:a3:e7:87:74:fd:a8:d0:23:f3:c0:
                    76:92:dd:0d:02:29:7a:54:2f:4c:ec:4a:95:40:10:
                    0c:c3:42:bf:45:19:88:04:54:53:26:29:98:d7:a5:
                    64:53:cb:a6:5e:fc:c5:85:b4:74:2d:bb:d6:15:ce:
                    d7:0a:b8:01:92:55:7b:70:f8:f7:92:9e:9e:46:50:
                    b1:3a:40:cb:c8:5c:8f:4f:d6:f4:e0:1b:f8:7a:97:
                    1a:e9:77
                Exponent: 65537 (0x10001)
        X509v3 extensions:
            X509v3 Basic Constraints: 
                CA:FALSE
            X509v3 Subject Key Identifier: 
                C0:6E:3D:84:A8:58:23:DA:E7:88:50:3B:5C:FF:CB:3C:D2:CB:7E:30
            X509v3 Authority Key Identifier: 
                keyid:87:A7:C5:75:37:0B:14:6C:BF:46:04:8C:2A:52:E9:5D:DA:51:DC:E6
                DirName:/CN=vpn.jenkins.io
                serial:08:01:AA:6D:1B:31:40:4F:7B:9C:75:54:54:78:B5:36:65:3B:7C:B3

            X509v3 Extended Key Usage: 
                TLS Web Client Authentication
            X509v3 Key Usage: 
                Digital Signature
    Signature Algorithm: sha256WithRSAEncryption
         69:ac:d3:97:65:45:2d:d2:d4:9a:96:bc:76:94:5a:06:66:cb:
         d5:45:da:b3:ef:88:09:2f:0d:67:32:8c:6e:82:79:f2:85:92:
         a1:7a:eb:95:c1:4c:e7:c5:c9:74:8d:6f:dc:cb:1c:68:9b:ce:
         5e:2d:79:7d:57:84:89:83:a3:6e:19:d4:91:37:e8:be:f0:7a:
         69:b5:fb:30:bb:c4:1b:4b:68:c0:85:1d:69:05:a0:0e:45:04:
         47:a6:8d:25:19:48:81:bb:b1:ec:e1:37:bb:64:c1:c4:74:58:
         13:89:70:f6:16:b6:59:75:f8:2e:a5:29:6a:31:51:86:75:08:
         1e:f6:ee:9f:9e:f3:7c:39:16:d2:3f:34:41:f3:27:de:c7:e7:
         1c:2c:36:de:96:43:4a:de:00:61:0a:f0:ea:67:2e:8a:f4:38:
         0c:e8:5f:b8:cd:5c:20:43:7c:de:71:1a:36:72:98:50:72:0e:
         a1:b2:1b:0a:c1:43:89:42:22:1d:4b:ee:87:24:a7:9f:d2:1c:
         3f:f7:d2:2d:36:ce:5b:5f:32:d4:08:c7:2e:d8:ee:27:b2:1f:
         07:67:c3:fa:98:c8:8a:cd:9c:06:97:5e:32:5d:35:7f:d1:2d:
         ac:23:36:2d:9d:d3:4b:1f:dd:17:09:a0:38:80:7b:13:47:10:
         28:ae:60:2a:ab:f7:75:85:74:2f:1f:18:9e:5f:3d:c9:c5:81:
         cd:b4:cd:33:b2:42:a8:c4:d1:5c:58:3e:a6:a0:57:1a:a5:b4:
         48:2b:1e:1f:c4:41:21:50:a6:94:b5:b4:b3:e2:3d:0a:f3:d6:
         98:4d:8e:d4:3d:2b:a6:1e:23:e0:e4:79:db:30:4f:f0:ac:60:
         79:45:18:dc:4b:bb:9b:26:0c:64:42:86:f7:2c:c7:6a:61:ba:
         b0:4c:d1:1c:1e:85:ad:b7:29:1e:e5:30:55:9d:50:8b:2f:f7:
         2b:ba:ca:54:d9:37:ed:6e:cc:9c:8d:23:fe:1a:54:d5:c9:22:
         67:2d:ed:66:ef:0a:6d:b6:7f:51:e3:be:9f:57:e2:ba:b8:0a:
         2e:9b:06:d3:b7:c9:2d:a7:d2:3d:b6:1e:5a:80:f4:cf:7c:8e:
         9e:68:47:77:21:57:a3:af:c4:4b:02:cd:a1:93:77:8c:79:5c:
         ad:01:2f:62:a1:33:76:74:82:71:58:f7:ab:3d:52:dd:6e:b7:
         6a:4a:83:bd:e7:9a:11:d6:c5:44:f9:f2:da:27:d3:33:71:ac:
         1b:ea:81:b6:9f:cd:04:b3:f1:3d:3a:81:a5:04:a3:ce:5a:76:
         29:1e:d6:98:ac:2c:0a:77:36:a3:75:8a:9f:7b:eb:f8:1f:73:
         93:b8:75:9e:0e:3b:fd:90
-----BEGIN CERTIFICATE-----
MIIFWTCCA0GgAwIBAgIQeOsfMFlHChTLCzmdWyTJnzANBgkqhkiG9w0BAQsFADAZ
MRcwFQYDVQQDDA52cG4uamVua2lucy5pbzAeFw0yMjA1MDMxNjM3MzFaFw0yNTA0
MTcxNjM3MzFaMBAxDjAMBgNVBAMMBWJhc2lsMIICIjANBgkqhkiG9w0BAQEFAAOC
Ag8AMIICCgKCAgEAwAOpxCVPbt4603m2fjyWni+pOTOmNpuTSgQ1yxXjyw3uILYC
QYfixGL0zpnru1uI9U076agffzrqvKD+9kkFb4Db/3gKDNnvlOP61S4fqwiGCqHl
CrsDk93TCk0QTgOUhfV1FKQr8FunfnvllHLSe4KZChY5e1yoHZUHWWrrylMCFuzA
ut6SdorvW2+Parqt3z3X8Fk8N2xnDBnjtUz8N/EPKliD/upehmoB7EK/LB5opa8E
1sXYDPMAlSw/NI8i0Dh+38HAOdzS48dziqezLbvGME1Xy2EQiX148ClY1NWKB1zy
ClEgtmtiCEW+YsweUSiFk4D9WMq1ttyqecFqLcMtU3NlcY4xOIKZT0ShqvL2ETcJ
bmOq4OOF+5uM0ciZbao10tuK2hGq4OsyDjvpsmIu4lgEuUOPZd6QIivIohWx7Onr
P9S7eF/gWNQH4s/dTgYTLf6AKTm2u4XdYPnK/W3g/XI9It1tIZ4JSMd1EhCGJRJZ
46kN9VOfnf7stfEmv3zkn/yQG/JmbJrVJJpLWG38L32A0q8qJB6IeL8cnCUqzMu+
3lwkZKPnh3T9qNAj88B2kt0NAil6VC9M7EqVQBAMw0K/RRmIBFRTJimY16VkU8um
XvzFhbR0LbvWFc7XCrgBklV7cPj3kp6eRlCxOkDLyFyPT9b04Bv4epca6XcCAwEA
AaOBpTCBojAJBgNVHRMEAjAAMB0GA1UdDgQWBBTAbj2EqFgj2ueIUDtc/8s80st+
MDBUBgNVHSMETTBLgBSHp8V1NwsUbL9GBIwqUuld2lHc5qEdpBswGTEXMBUGA1UE
AwwOdnBuLmplbmtpbnMuaW+CFAgBqm0bMUBPe5x1VFR4tTZlO3yzMBMGA1UdJQQM
MAoGCCsGAQUFBwMCMAsGA1UdDwQEAwIHgDANBgkqhkiG9w0BAQsFAAOCAgEAaazT
l2VFLdLUmpa8dpRaBmbL1UXas++ICS8NZzKMboJ58oWSoXrrlcFM58XJdI1v3Msc
aJvOXi15fVeEiYOjbhnUkTfovvB6abX7MLvEG0towIUdaQWgDkUER6aNJRlIgbux
7OE3u2TBxHRYE4lw9ha2WXX4LqUpajFRhnUIHvbun57zfDkW0j80QfMn3sfnHCw2
3pZDSt4AYQrw6mcuivQ4DOhfuM1cIEN83nEaNnKYUHIOobIbCsFDiUIiHUvuhySn
n9IcP/fSLTbOW18y1AjHLtjuJ7IfB2fD+pjIis2cBpdeMl01f9EtrCM2LZ3TSx/d
FwmgOIB7E0cQKK5gKqv3dYV0Lx8Ynl89ycWBzbTNM7JCqMTRXFg+pqBXGqW0SCse
H8RBIVCmlLW0s+I9CvPWmE2O1D0rph4j4OR52zBP8KxgeUUY3Eu7myYMZEKG9yzH
amG6sEzRHB6FrbcpHuUwVZ1Qiy/3K7rKVNk37W7MnI0j/hpU1ckiZy3tZu8KbbZ/
UeO+n1fiurgKLpsG07fJLafSPbYeWoD0z3yOnmhHdyFXo6/ESwLNoZN3jHlcrQEv
YqEzdnSCcVj3qz1S3W63akqDveeaEdbFRPny2ifTM3GsG+qBtp/NBLPxPTqBpQSj
zlp2KR7WmKwsCnc2o3WKn3vr+B9zk7h1ng47/ZA=
-----END CERTIFICATE-----
