Certificate:
    Data:
        Version: 3 (0x2)
        Serial Number:
            79:6f:6f:e7:d3:9b:3c:0c:a2:9b:6c:51:f0:98:8d:62
        Signature Algorithm: sha256WithRSAEncryption
        Issuer: CN=vpn.jenkins.io
        Validity
            Not Before: Nov 27 15:30:56 2024 GMT
            Not After : Nov 12 15:30:56 2027 GMT
        Subject: CN=smerle
        Subject Public Key Info:
            Public Key Algorithm: rsaEncryption
                Public-Key: (4096 bit)
                Modulus:
                    00:8f:90:4d:e6:35:f0:1c:6f:ee:b3:86:de:0a:b2:
                    8a:62:ae:fb:47:24:e7:42:5f:f0:8e:33:02:32:74:
                    21:7c:0f:d3:47:96:f0:b0:2e:8f:5c:8e:0f:2e:46:
                    56:cf:76:cf:fc:00:5e:67:21:f3:4a:69:c6:56:8f:
                    8d:97:77:bb:f9:fc:90:9f:4e:7a:63:d6:ab:25:f3:
                    05:bf:34:b7:78:a0:75:a3:09:82:33:a7:e1:b7:c6:
                    2f:b8:04:da:10:85:6b:a2:37:f9:82:a9:05:c0:e1:
                    65:0d:9b:93:48:a9:a5:7d:57:9a:df:36:a2:45:3f:
                    39:2a:55:d2:41:ed:c7:5d:ef:33:65:f2:29:c0:89:
                    df:ba:ac:a6:13:8e:e2:06:cd:3c:b5:1c:34:ef:02:
                    e4:1f:3e:3d:19:2f:a0:f4:bf:87:51:3b:32:e0:73:
                    4d:92:43:44:65:dd:6e:4e:69:80:ce:03:07:c7:ac:
                    df:f5:b1:b6:18:fc:2d:17:95:ca:82:5f:da:e6:26:
                    27:75:70:d9:07:2b:28:a1:f9:af:cd:f9:e5:89:5c:
                    9d:02:08:b0:b3:08:b2:68:70:49:6d:ee:11:f9:9e:
                    b2:58:c1:5c:ea:1d:a1:ea:51:40:fd:79:3e:a5:58:
                    2f:e5:83:e2:f9:12:29:bb:1f:03:39:76:e8:22:53:
                    11:fd:8e:c9:81:53:32:37:20:3e:8d:28:d1:25:2e:
                    97:c2:24:6b:51:08:92:78:6b:7e:76:37:12:e7:b3:
                    70:da:ee:68:b9:91:73:3b:50:6a:da:cb:c8:f0:1c:
                    9c:cb:95:3d:28:f2:21:fa:8b:15:24:0a:f7:50:27:
                    fd:69:95:79:b4:96:c5:4d:a8:b2:fe:41:43:e8:80:
                    67:8f:43:cd:98:00:f4:df:0b:9e:eb:f5:32:c2:05:
                    22:77:c0:f1:09:b2:ad:b7:3a:08:d5:40:dc:2f:1e:
                    3f:0d:8d:b5:b7:01:21:fa:16:09:84:42:be:3d:53:
                    a9:79:5f:79:b4:52:ff:30:48:75:50:61:d0:60:a1:
                    6c:34:c4:e3:f8:10:c3:52:95:7d:db:95:fd:21:7c:
                    9c:fc:d9:e6:2a:f9:bf:a8:29:8b:d8:95:3a:3b:38:
                    5c:aa:dd:fd:7e:5b:5b:a3:4b:ba:50:5e:f4:fb:02:
                    6f:15:e8:bf:50:06:f8:ad:38:b4:84:4f:ac:89:e6:
                    c9:7d:39:60:15:2c:e9:65:c0:e3:70:90:06:e2:02:
                    a8:b1:c0:46:e3:55:80:03:cf:dd:45:e2:06:6c:ee:
                    fd:9c:44:18:c4:78:65:ce:9f:ad:6e:1c:dc:ac:a3:
                    5e:28:29:97:02:22:e1:ee:65:2d:dc:1d:5b:00:8c:
                    0a:e8:0b
                Exponent: 65537 (0x10001)
        X509v3 extensions:
            X509v3 Basic Constraints: 
                CA:FALSE
            X509v3 Subject Key Identifier: 
                82:3E:34:23:0C:48:1F:89:6E:F7:49:77:66:CF:F2:7D:2C:1A:4A:77
            X509v3 Authority Key Identifier: 
                keyid:87:A7:C5:75:37:0B:14:6C:BF:46:04:8C:2A:52:E9:5D:DA:51:DC:E6
                DirName:/CN=vpn.jenkins.io
                serial:08:01:AA:6D:1B:31:40:4F:7B:9C:75:54:54:78:B5:36:65:3B:7C:B3
            X509v3 Extended Key Usage: 
                TLS Web Client Authentication
            X509v3 Key Usage: 
                Digital Signature
    Signature Algorithm: sha256WithRSAEncryption
    Signature Value:
        4c:06:87:26:86:94:d8:9e:4b:7d:02:8b:db:25:c7:1d:62:1e:
        4e:41:72:25:2f:79:f0:a0:99:32:3e:92:4c:a3:5c:d8:f1:cc:
        78:4c:f7:a9:a3:c5:c6:28:ec:2b:6c:26:df:37:80:41:6c:7c:
        a3:ae:85:2d:e5:3f:05:02:68:b0:d8:56:65:82:e9:6e:fe:25:
        74:64:4f:3b:2a:22:ec:fb:57:ad:24:78:ec:aa:10:ec:3d:82:
        d8:f8:52:b7:d8:06:14:d7:20:6a:e9:85:46:64:24:df:ed:5b:
        b8:69:09:2f:aa:cf:51:15:7e:94:8a:01:7a:e1:95:de:a7:1c:
        e4:44:02:15:bd:06:78:e6:5f:ac:ed:d1:06:9c:00:0e:c9:78:
        65:d6:07:7a:6a:d8:51:ff:19:f0:e1:99:c9:3d:99:5a:59:88:
        46:a8:48:36:00:aa:df:94:59:8b:02:0d:1c:54:a0:fb:a4:50:
        09:46:e7:4f:91:47:5c:aa:5a:3f:bf:50:67:2c:55:cf:0c:ed:
        e8:3a:73:a0:1c:63:85:82:e4:bf:a0:1e:4a:8d:dd:12:5a:4a:
        d3:e8:8a:10:63:10:8a:7f:4d:a1:45:58:a7:6d:cb:05:f0:ed:
        7f:ed:25:37:8e:48:f5:7d:6b:45:50:04:ef:e6:a5:35:7c:82:
        94:da:35:ab:c4:4c:2a:79:78:45:3c:20:f4:96:b4:f2:16:42:
        52:a9:9c:d8:6c:03:25:f2:b9:4a:fa:df:49:ad:64:19:7e:f9:
        56:97:1b:be:d1:1b:b1:d7:74:59:a1:63:2d:77:45:34:51:e7:
        9d:ac:03:76:5d:5e:e3:94:61:23:83:5c:c1:7b:5c:c5:97:24:
        2b:f8:e3:1a:7c:52:23:93:76:41:bb:cd:48:64:71:29:1c:75:
        40:c2:ae:10:cc:90:0b:43:4e:e7:06:66:01:fe:3f:6a:c7:2c:
        6f:6f:92:21:db:2d:b2:6c:a9:c3:8d:62:57:7c:dc:03:ed:97:
        dc:a7:28:67:4c:72:06:98:f1:44:e8:3a:b7:79:80:29:c1:14:
        ea:a6:12:47:3f:ec:60:f7:55:cc:47:01:87:98:62:ed:7d:4d:
        21:a8:bb:53:57:36:d9:8b:bd:79:5a:75:8a:df:84:81:ae:8b:
        ed:ba:c5:68:3d:bc:75:ee:c1:74:26:f4:80:74:fa:44:4c:de:
        4d:59:4b:8d:f7:c8:d2:d6:81:a2:0f:1c:5e:d8:8d:b4:5f:37:
        ad:3a:36:d2:50:4a:c2:1d:1b:99:ff:43:60:f8:24:8f:75:a0:
        d4:ed:02:fb:c8:b0:ab:8a:8e:dd:5a:25:5f:95:a0:87:4a:d2:
        7a:66:aa:45:7a:12:dd:7a
-----BEGIN CERTIFICATE-----
MIIFWjCCA0KgAwIBAgIQeW9v59ObPAyim2xR8JiNYjANBgkqhkiG9w0BAQsFADAZ
MRcwFQYDVQQDDA52cG4uamVua2lucy5pbzAeFw0yNDExMjcxNTMwNTZaFw0yNzEx
MTIxNTMwNTZaMBExDzANBgNVBAMMBnNtZXJsZTCCAiIwDQYJKoZIhvcNAQEBBQAD
ggIPADCCAgoCggIBAI+QTeY18Bxv7rOG3gqyimKu+0ck50Jf8I4zAjJ0IXwP00eW
8LAuj1yODy5GVs92z/wAXmch80ppxlaPjZd3u/n8kJ9OemPWqyXzBb80t3igdaMJ
gjOn4bfGL7gE2hCFa6I3+YKpBcDhZQ2bk0ippX1Xmt82okU/OSpV0kHtx13vM2Xy
KcCJ37qsphOO4gbNPLUcNO8C5B8+PRkvoPS/h1E7MuBzTZJDRGXdbk5pgM4DB8es
3/Wxthj8LReVyoJf2uYmJ3Vw2QcrKKH5r8355YlcnQIIsLMIsmhwSW3uEfmesljB
XOodoepRQP15PqVYL+WD4vkSKbsfAzl26CJTEf2OyYFTMjcgPo0o0SUul8Ika1EI
knhrfnY3EuezcNruaLmRcztQatrLyPAcnMuVPSjyIfqLFSQK91An/WmVebSWxU2o
sv5BQ+iAZ49DzZgA9N8Lnuv1MsIFInfA8Qmyrbc6CNVA3C8ePw2NtbcBIfoWCYRC
vj1TqXlfebRS/zBIdVBh0GChbDTE4/gQw1KVfduV/SF8nPzZ5ir5v6gpi9iVOjs4
XKrd/X5bW6NLulBe9PsCbxXov1AG+K04tIRPrInmyX05YBUs6WXA43CQBuICqLHA
RuNVgAPP3UXiBmzu/ZxEGMR4Zc6frW4c3KyjXigplwIi4e5lLdwdWwCMCugLAgMB
AAGjgaUwgaIwCQYDVR0TBAIwADAdBgNVHQ4EFgQUgj40IwxIH4lu90l3Zs/yfSwa
SncwVAYDVR0jBE0wS4AUh6fFdTcLFGy/RgSMKlLpXdpR3OahHaQbMBkxFzAVBgNV
BAMMDnZwbi5qZW5raW5zLmlvghQIAaptGzFAT3ucdVRUeLU2ZTt8szATBgNVHSUE
DDAKBggrBgEFBQcDAjALBgNVHQ8EBAMCB4AwDQYJKoZIhvcNAQELBQADggIBAEwG
hyaGlNieS30Ci9slxx1iHk5BciUvefCgmTI+kkyjXNjxzHhM96mjxcYo7CtsJt83
gEFsfKOuhS3lPwUCaLDYVmWC6W7+JXRkTzsqIuz7V60keOyqEOw9gtj4UrfYBhTX
IGrphUZkJN/tW7hpCS+qz1EVfpSKAXrhld6nHOREAhW9BnjmX6zt0QacAA7JeGXW
B3pq2FH/GfDhmck9mVpZiEaoSDYAqt+UWYsCDRxUoPukUAlG50+RR1yqWj+/UGcs
Vc8M7eg6c6AcY4WC5L+gHkqN3RJaStPoihBjEIp/TaFFWKdtywXw7X/tJTeOSPV9
a0VQBO/mpTV8gpTaNavETCp5eEU8IPSWtPIWQlKpnNhsAyXyuUr630mtZBl++VaX
G77RG7HXdFmhYy13RTRR552sA3ZdXuOUYSODXMF7XMWXJCv44xp8UiOTdkG7zUhk
cSkcdUDCrhDMkAtDTucGZgH+P2rHLG9vkiHbLbJsqcONYld83APtl9ynKGdMcgaY
8UToOrd5gCnBFOqmEkc/7GD3VcxHAYeYYu19TSGou1NXNtmLvXladYrfhIGui+26
xWg9vHXuwXQm9IB0+kRM3k1ZS433yNLWgaIPHF7YjbRfN606NtJQSsIdG5n/Q2D4
JI91oNTtAvvIsKuKjt1aJV+VoIdK0npmqkV6Et16
-----END CERTIFICATE-----
