Certificate:
    Data:
        Version: 3 (0x2)
        Serial Number:
            7e:60:98:d7:d9:7e:84:4b:2d:e0:1b:4f:9f:a8:90:d7
    Signature Algorithm: sha256WithRSAEncryption
        Issuer: CN=vpn.jenkins.io
        Validity
            Not Before: Jan 23 11:05:46 2023 GMT
            Not After : Jan  7 11:05:46 2026 GMT
        Subject: CN=alecharp
        Subject Public Key Info:
            Public Key Algorithm: rsaEncryption
                RSA Public-Key: (4096 bit)
                Modulus:
                    00:b9:34:1d:3f:e9:91:d3:37:d9:50:ec:d9:ab:0e:
                    03:34:fb:e7:ed:01:39:ff:51:2c:28:26:ae:1e:bc:
                    5c:b3:68:9b:81:0e:7b:b5:1a:e7:8f:e5:12:f8:56:
                    59:fc:de:ee:ec:ac:cd:f0:ab:74:99:d6:d6:f6:df:
                    b2:6d:eb:c7:f8:12:c6:79:83:f3:72:42:81:50:5e:
                    29:f8:7d:f3:88:07:9e:a0:36:45:5f:f1:39:d0:0d:
                    85:04:18:43:33:d7:84:14:a9:f1:cd:5e:cf:f4:22:
                    92:4f:20:7a:77:b7:46:6a:a6:bc:5e:2d:89:5d:55:
                    ae:2f:64:9f:d9:67:c1:95:1b:2e:af:52:e8:38:5f:
                    6c:25:f5:ed:2b:cd:56:41:5b:b1:5b:e1:2a:78:f0:
                    8e:5a:ef:f8:cf:71:28:27:41:00:20:8c:9e:f0:47:
                    6e:34:1b:e7:0d:03:32:f8:a2:aa:b3:bd:f7:88:2d:
                    57:cf:38:b0:8e:6c:ad:1a:d6:e4:3f:46:5b:41:1f:
                    a6:d0:59:e2:0d:32:85:af:cb:8c:5d:99:9b:1d:06:
                    76:bb:fa:3a:99:5a:c2:69:db:e0:9b:ff:50:7d:a2:
                    35:e5:f1:8c:57:fa:7d:5e:6f:cd:70:24:a1:81:7f:
                    66:ad:8a:67:e1:82:7b:0c:f1:d6:d0:34:3b:37:23:
                    5d:30:d6:5e:f2:ab:42:af:a0:9f:61:23:54:f5:2f:
                    a7:44:7c:8f:23:7c:ee:af:c9:b5:73:12:02:6d:a7:
                    be:d3:d8:44:8e:01:bb:c3:43:a4:15:7a:d9:60:75:
                    b7:78:0c:5e:19:b8:2a:3d:f1:5f:e3:29:39:13:d4:
                    2c:e0:f1:60:f6:ff:d1:eb:5b:65:7c:b5:e5:69:e2:
                    4d:74:fd:27:90:8c:6e:22:04:53:5e:8c:b1:9f:6d:
                    82:f5:2e:1c:2f:f6:c4:bd:62:ae:6c:f9:2c:3b:20:
                    58:3f:55:8f:d7:68:b9:13:d0:d9:18:a1:e8:32:3e:
                    07:14:aa:d2:5e:ce:12:6a:c1:02:d7:45:35:af:7a:
                    10:75:06:0a:2d:70:84:51:5d:47:24:39:37:dd:86:
                    d6:da:f9:8b:6d:b5:59:82:1f:b8:57:08:d6:d3:d7:
                    70:4a:06:b3:77:35:0b:94:3e:44:be:b3:7d:31:cf:
                    de:f7:40:20:58:11:d0:a2:54:26:95:00:50:d2:22:
                    f9:07:a5:95:72:4b:95:4d:80:6d:80:60:7c:86:bb:
                    17:bf:e6:c8:ba:83:12:2a:c8:89:7d:17:ed:24:f9:
                    09:06:89:12:ba:f2:1c:c7:60:9a:42:70:4c:aa:da:
                    4a:19:17:bc:a7:1c:3d:fd:2a:5c:0f:82:8a:f1:67:
                    20:d5:8f
                Exponent: 65537 (0x10001)
        X509v3 extensions:
            X509v3 Basic Constraints: 
                CA:FALSE
            X509v3 Subject Key Identifier: 
                E4:F2:FA:AA:15:4D:FB:62:46:5B:9A:77:B5:52:59:49:2C:72:C2:81
            X509v3 Authority Key Identifier: 
                keyid:87:A7:C5:75:37:0B:14:6C:BF:46:04:8C:2A:52:E9:5D:DA:51:DC:E6
                DirName:/CN=vpn.jenkins.io
                serial:08:01:AA:6D:1B:31:40:4F:7B:9C:75:54:54:78:B5:36:65:3B:7C:B3

            X509v3 Extended Key Usage: 
                TLS Web Client Authentication
            X509v3 Key Usage: 
                Digital Signature
    Signature Algorithm: sha256WithRSAEncryption
         21:3c:28:22:ef:24:20:8f:04:83:6f:ea:99:36:16:82:da:20:
         d2:25:aa:7f:d0:16:86:c1:a4:e5:c7:3b:22:82:ce:34:e1:30:
         4e:1c:a9:52:cd:46:63:1c:f1:47:87:0c:ad:22:11:e2:1e:cd:
         b1:49:4e:be:20:cb:76:bf:87:99:7c:34:a5:07:2a:d4:09:2a:
         2c:00:ff:30:85:ea:bc:49:f0:f5:ba:21:78:7a:ab:b5:2d:38:
         9d:8f:1c:61:1f:14:3f:3a:65:b7:e8:ef:3a:32:30:7c:b9:47:
         17:60:e4:d9:e2:22:f6:b7:8d:6e:e9:8c:99:d7:b8:03:03:e9:
         e1:0c:25:21:e5:21:e3:f8:22:ae:c6:ba:00:36:6a:85:d3:76:
         58:ca:60:80:40:17:7a:02:33:0c:d3:03:dd:85:b0:a1:ad:1e:
         39:34:73:eb:4a:ca:67:15:e5:83:a8:43:d2:4d:61:0d:9f:0e:
         0f:ec:9e:97:1a:d4:d9:b4:eb:43:33:de:04:6f:8a:62:0d:7e:
         dd:f7:d2:18:06:a5:2c:d5:0e:64:99:b4:94:90:a7:99:85:7d:
         ab:be:16:68:99:0f:2f:56:dc:97:fc:94:15:93:9f:fd:ce:77:
         0e:59:ae:94:71:f8:52:f4:20:47:0d:5f:0a:48:c4:c0:02:74:
         c2:46:e8:94:cb:a1:4d:aa:0b:74:f3:30:f8:08:57:a7:54:a2:
         db:e4:63:fb:6c:29:a9:2c:a9:97:ac:bb:13:0a:02:0b:66:2e:
         87:63:a3:0d:9d:31:03:9d:ec:7a:4d:6f:c6:67:3f:68:2d:e4:
         b7:c8:9f:1c:6e:6c:59:aa:e2:d3:ac:3d:a8:f0:b7:7b:c1:f7:
         ec:ea:63:69:11:b4:71:c5:fb:c2:b1:03:99:cf:c8:41:0e:57:
         15:07:e3:3a:31:20:ac:e5:1d:03:92:07:af:99:99:1b:3f:c4:
         c0:79:bc:e1:79:92:31:0c:52:1a:9a:9b:a1:b0:d7:ac:78:07:
         ee:69:8e:9c:ef:be:28:4d:76:31:6d:4f:e9:f6:62:8d:5e:91:
         69:cd:96:e7:ba:31:49:d3:31:c2:dd:61:ca:14:76:e2:11:b7:
         da:89:97:40:37:d9:5d:77:f7:f5:3f:61:96:17:68:c5:aa:dc:
         54:26:b5:4a:eb:90:f7:69:8d:2d:fc:38:30:35:92:74:0a:e6:
         c4:27:06:69:a4:b3:1a:16:b3:5b:be:db:f7:52:a4:74:eb:99:
         91:59:e2:cb:20:19:64:c2:16:3f:68:f5:ba:1d:c8:29:15:57:
         dd:8e:a6:6f:99:c4:01:82:07:2f:c1:f0:ec:ca:91:fa:d8:a1:
         02:52:72:a8:95:7b:48:b6
-----BEGIN CERTIFICATE-----
MIIFXDCCA0SgAwIBAgIQfmCY19l+hEst4BtPn6iQ1zANBgkqhkiG9w0BAQsFADAZ
MRcwFQYDVQQDDA52cG4uamVua2lucy5pbzAeFw0yMzAxMjMxMTA1NDZaFw0yNjAx
MDcxMTA1NDZaMBMxETAPBgNVBAMMCGFsZWNoYXJwMIICIjANBgkqhkiG9w0BAQEF
AAOCAg8AMIICCgKCAgEAuTQdP+mR0zfZUOzZqw4DNPvn7QE5/1EsKCauHrxcs2ib
gQ57tRrnj+US+FZZ/N7u7KzN8Kt0mdbW9t+ybevH+BLGeYPzckKBUF4p+H3ziAee
oDZFX/E50A2FBBhDM9eEFKnxzV7P9CKSTyB6d7dGaqa8Xi2JXVWuL2Sf2WfBlRsu
r1LoOF9sJfXtK81WQVuxW+EqePCOWu/4z3EoJ0EAIIye8EduNBvnDQMy+KKqs733
iC1XzziwjmytGtbkP0ZbQR+m0FniDTKFr8uMXZmbHQZ2u/o6mVrCadvgm/9QfaI1
5fGMV/p9Xm/NcCShgX9mrYpn4YJ7DPHW0DQ7NyNdMNZe8qtCr6CfYSNU9S+nRHyP
I3zur8m1cxICbae+09hEjgG7w0OkFXrZYHW3eAxeGbgqPfFf4yk5E9Qs4PFg9v/R
61tlfLXlaeJNdP0nkIxuIgRTXoyxn22C9S4cL/bEvWKubPksOyBYP1WP12i5E9DZ
GKHoMj4HFKrSXs4SasEC10U1r3oQdQYKLXCEUV1HJDk33YbW2vmLbbVZgh+4VwjW
09dwSgazdzULlD5EvrN9Mc/e90AgWBHQolQmlQBQ0iL5B6WVckuVTYBtgGB8hrsX
v+bIuoMSKsiJfRftJPkJBokSuvIcx2CaQnBMqtpKGRe8pxw9/SpcD4KK8Wcg1Y8C
AwEAAaOBpTCBojAJBgNVHRMEAjAAMB0GA1UdDgQWBBTk8vqqFU37YkZbmne1UllJ
LHLCgTBUBgNVHSMETTBLgBSHp8V1NwsUbL9GBIwqUuld2lHc5qEdpBswGTEXMBUG
A1UEAwwOdnBuLmplbmtpbnMuaW+CFAgBqm0bMUBPe5x1VFR4tTZlO3yzMBMGA1Ud
JQQMMAoGCCsGAQUFBwMCMAsGA1UdDwQEAwIHgDANBgkqhkiG9w0BAQsFAAOCAgEA
ITwoIu8kII8Eg2/qmTYWgtog0iWqf9AWhsGk5cc7IoLONOEwThypUs1GYxzxR4cM
rSIR4h7NsUlOviDLdr+HmXw0pQcq1AkqLAD/MIXqvEnw9boheHqrtS04nY8cYR8U
Pzplt+jvOjIwfLlHF2Dk2eIi9reNbumMmde4AwPp4QwlIeUh4/girsa6ADZqhdN2
WMpggEAXegIzDNMD3YWwoa0eOTRz60rKZxXlg6hD0k1hDZ8OD+yelxrU2bTrQzPe
BG+KYg1+3ffSGAalLNUOZJm0lJCnmYV9q74WaJkPL1bcl/yUFZOf/c53DlmulHH4
UvQgRw1fCkjEwAJ0wkbolMuhTaoLdPMw+AhXp1Si2+Rj+2wpqSypl6y7EwoCC2Yu
h2OjDZ0xA53sek1vxmc/aC3kt8ifHG5sWari06w9qPC3e8H37OpjaRG0ccX7wrED
mc/IQQ5XFQfjOjEgrOUdA5IHr5mZGz/EwHm84XmSMQxSGpqbobDXrHgH7mmOnO++
KE12MW1P6fZijV6Rac2W57oxSdMxwt1hyhR24hG32omXQDfZXXf39T9hlhdoxarc
VCa1SuuQ92mNLfw4MDWSdArmxCcGaaSzGhazW77b91KkdOuZkVniyyAZZMIWP2j1
uh3IKRVX3Y6mb5nEAYIHL8Hw7MqR+tihAlJyqJV7SLY=
-----END CERTIFICATE-----
