Certificate:
    Data:
        Version: 3 (0x2)
        Serial Number:
            83:3a:d5:ec:04:e1:53:b8:ba:f2:fc:4b:7b:40:55:c1
    Signature Algorithm: sha256WithRSAEncryption
        Issuer: CN=vpn.jenkins.io
        Validity
            Not Before: Apr 12 17:10:10 2022 GMT
            Not After : Mar 27 17:10:10 2025 GMT
        Subject: CN=notmyfault
        Subject Public Key Info:
            Public Key Algorithm: rsaEncryption
                Public-Key: (4096 bit)
                Modulus:
                    00:d8:c6:aa:b4:00:54:04:83:7f:63:74:7f:f4:e9:
                    2b:c1:af:ee:89:c7:a2:c2:9f:dd:c8:82:6e:bd:31:
                    95:bc:0e:01:f8:b7:55:91:b0:46:d1:9b:7e:d5:65:
                    e8:6f:3d:b2:ac:52:6a:c4:2e:bd:d1:11:26:8c:32:
                    8f:36:96:85:0b:81:d3:67:9b:de:c2:88:76:64:b9:
                    59:5d:c5:b0:b0:6f:eb:43:16:9d:81:73:4c:fb:e4:
                    44:b1:08:6e:22:90:9a:6c:ee:3e:14:ff:b9:35:14:
                    15:15:1c:3c:ae:b0:aa:89:49:cd:a3:95:08:11:5f:
                    37:69:d2:76:71:73:9d:df:01:ed:6c:6e:e1:dd:44:
                    03:67:f3:3f:54:38:80:c1:1b:a7:68:f5:a7:dd:9b:
                    f2:86:ba:c9:57:0e:ae:4e:fe:5a:e9:55:6e:a8:b3:
                    74:a4:8f:43:99:69:59:02:03:99:81:46:be:39:f8:
                    12:e9:96:02:27:dd:cf:c5:e8:b8:fb:3f:27:8f:84:
                    fc:50:51:5d:f7:0d:de:fd:8b:05:c8:fa:88:80:2f:
                    93:5b:3b:2e:5b:94:af:a7:83:6f:df:6f:70:49:c3:
                    5e:7d:cd:d5:3d:4a:25:42:ce:0a:6e:52:ef:a9:d9:
                    f9:09:9c:fb:28:e0:11:65:75:b4:e8:0c:e7:f1:cd:
                    18:36:4e:6b:6e:e9:8a:e8:17:42:25:26:db:a3:1a:
                    e0:3b:10:78:4e:e0:93:bb:92:e0:19:0b:c4:73:fd:
                    7b:ff:25:d6:8c:f5:6c:d6:0c:00:80:14:df:91:52:
                    ab:f4:b7:b1:25:9d:5c:6d:7e:7c:b0:83:4c:cb:f3:
                    97:a4:1e:48:05:fb:d2:d3:0a:77:79:b0:5f:aa:8d:
                    d2:e4:11:10:ee:d5:32:5a:15:99:2e:e3:2b:52:fb:
                    8f:a9:57:7a:84:19:8f:dc:79:f1:f3:de:89:4e:ca:
                    69:2f:31:17:6c:75:a7:69:4e:cb:84:f1:2e:2c:b1:
                    07:e1:18:00:15:24:6a:bc:f1:7d:bd:bf:9c:7f:3c:
                    d9:b7:18:5e:89:27:58:be:66:7a:58:2d:e2:0a:ba:
                    cc:47:57:bf:04:f5:13:fc:2b:33:09:9b:d4:3c:08:
                    31:50:d8:ac:4d:30:f5:98:42:26:41:71:da:10:50:
                    d9:06:a5:4d:e6:d6:8c:9b:43:5f:ee:49:f5:94:8e:
                    cf:70:2b:9e:b9:a8:c2:bb:bc:eb:6b:89:5e:b9:d8:
                    aa:c1:75:b3:6e:28:4e:b9:5d:10:bf:11:7a:17:c0:
                    d5:4b:1e:89:b8:1e:b6:f0:17:c6:7f:07:b0:0d:80:
                    7e:d0:e7:9f:4a:c4:86:cb:38:14:d7:ef:ae:09:1f:
                    74:bb:89
                Exponent: 65537 (0x10001)
        X509v3 extensions:
            X509v3 Basic Constraints: 
                CA:FALSE
            X509v3 Subject Key Identifier: 
                2B:25:D8:95:AE:A7:CF:CE:44:DF:5D:30:02:5D:92:F1:32:30:B1:FF
            X509v3 Authority Key Identifier: 
                keyid:87:A7:C5:75:37:0B:14:6C:BF:46:04:8C:2A:52:E9:5D:DA:51:DC:E6
                DirName:/CN=vpn.jenkins.io
                serial:08:01:AA:6D:1B:31:40:4F:7B:9C:75:54:54:78:B5:36:65:3B:7C:B3

            X509v3 Extended Key Usage: 
                TLS Web Client Authentication
            X509v3 Key Usage: 
                Digital Signature
    Signature Algorithm: sha256WithRSAEncryption
         32:41:5f:d7:cf:57:00:d6:16:11:b9:d7:97:ee:5b:fc:09:c1:
         8a:19:be:90:41:eb:ae:f3:a6:9d:e6:95:1e:9f:bb:8c:d2:2a:
         b3:b1:8c:c9:d0:d6:3b:03:19:66:a0:33:a7:c6:a5:aa:02:2e:
         9c:34:19:89:77:93:09:04:ff:a9:af:69:19:36:57:6c:5b:8e:
         43:22:3d:79:c6:da:d4:01:55:ff:7e:6d:df:df:38:95:16:bb:
         04:ba:81:be:d6:f9:a3:7f:45:f9:74:1f:bd:a3:a6:33:c0:d7:
         30:ac:73:7d:5e:97:75:e3:29:ed:74:4d:8f:56:53:06:1f:c4:
         68:ac:6b:00:df:9c:76:7a:dd:f0:0e:9e:b5:52:82:ce:ea:17:
         02:99:99:12:97:52:65:80:c0:9a:b8:70:bb:aa:da:f9:8a:eb:
         5e:df:24:bc:b6:81:29:ad:19:5b:d0:29:a7:0f:f8:01:78:d6:
         ba:c4:eb:2a:27:a9:45:d9:0e:f0:77:5f:6d:15:d5:55:ad:32:
         bb:09:d2:bb:07:d2:99:62:7f:23:96:12:3f:68:94:7e:46:26:
         2e:97:ed:7b:e3:e0:1c:29:46:d1:1c:2e:3c:2c:49:97:70:65:
         e9:dd:7c:60:7c:1a:ab:9f:6d:ed:13:81:46:c1:3c:9b:c6:e3:
         0b:d9:75:43:35:06:cc:93:00:0f:6d:7b:12:d1:a3:30:ad:55:
         3b:01:6b:0f:cb:de:2e:8c:74:1a:a5:29:5f:dd:91:d9:15:a2:
         6d:e2:45:9d:d9:1b:3b:cd:93:5b:6c:0b:72:13:4e:2d:99:05:
         84:fc:f9:fb:79:63:49:c4:d8:75:6f:34:17:e6:b1:fa:37:25:
         bf:63:1a:f1:a3:4b:cd:ba:c5:f3:a3:7c:3c:32:57:f6:79:ff:
         b0:c9:9e:c6:b0:41:fd:40:84:30:61:c1:69:61:21:65:eb:f0:
         5d:7c:fb:2a:ed:b7:c4:8e:56:55:44:ab:51:cd:03:b3:37:57:
         e8:29:2c:da:d4:6a:68:73:2b:f9:6d:8a:40:9e:ab:01:41:75:
         2f:f8:11:4d:a0:4c:cd:dc:ba:37:f7:38:e8:81:58:14:69:bc:
         9e:bc:9d:65:42:03:ba:a0:f0:81:1c:d7:7e:a8:c5:86:4c:1b:
         00:1c:38:39:3c:1b:aa:7e:8d:16:b8:f9:15:66:81:2e:cd:b5:
         32:a9:71:f9:ce:78:03:7c:48:4c:1f:eb:61:12:2c:b2:2e:c6:
         20:13:03:e8:5e:a3:f8:63:47:01:01:f8:c8:d4:49:7d:6f:03:
         92:51:8f:e3:12:e6:d0:c3:a5:ec:f5:0a:91:74:e0:97:76:bf:
         8e:ff:85:9a:0f:e1:23:76
-----BEGIN CERTIFICATE-----
MIIFXzCCA0egAwIBAgIRAIM61ewE4VO4uvL8S3tAVcEwDQYJKoZIhvcNAQELBQAw
GTEXMBUGA1UEAwwOdnBuLmplbmtpbnMuaW8wHhcNMjIwNDEyMTcxMDEwWhcNMjUw
MzI3MTcxMDEwWjAVMRMwEQYDVQQDDApub3RteWZhdWx0MIICIjANBgkqhkiG9w0B
AQEFAAOCAg8AMIICCgKCAgEA2MaqtABUBIN/Y3R/9Okrwa/uiceiwp/dyIJuvTGV
vA4B+LdVkbBG0Zt+1WXobz2yrFJqxC690REmjDKPNpaFC4HTZ5vewoh2ZLlZXcWw
sG/rQxadgXNM++REsQhuIpCabO4+FP+5NRQVFRw8rrCqiUnNo5UIEV83adJ2cXOd
3wHtbG7h3UQDZ/M/VDiAwRunaPWn3ZvyhrrJVw6uTv5a6VVuqLN0pI9DmWlZAgOZ
gUa+OfgS6ZYCJ93Pxei4+z8nj4T8UFFd9w3e/YsFyPqIgC+TWzsuW5Svp4Nv329w
ScNefc3VPUolQs4KblLvqdn5CZz7KOARZXW06Azn8c0YNk5rbumK6BdCJSbboxrg
OxB4TuCTu5LgGQvEc/17/yXWjPVs1gwAgBTfkVKr9LexJZ1cbX58sINMy/OXpB5I
BfvS0wp3ebBfqo3S5BEQ7tUyWhWZLuMrUvuPqVd6hBmP3Hnx896JTsppLzEXbHWn
aU7LhPEuLLEH4RgAFSRqvPF9vb+cfzzZtxheiSdYvmZ6WC3iCrrMR1e/BPUT/Csz
CZvUPAgxUNisTTD1mEImQXHaEFDZBqVN5taMm0Nf7kn1lI7PcCueuajCu7zra4le
udiqwXWzbihOuV0QvxF6F8DVSx6JuB628BfGfwewDYB+0OefSsSGyzgU1++uCR90
u4kCAwEAAaOBpTCBojAJBgNVHRMEAjAAMB0GA1UdDgQWBBQrJdiVrqfPzkTfXTAC
XZLxMjCx/zBUBgNVHSMETTBLgBSHp8V1NwsUbL9GBIwqUuld2lHc5qEdpBswGTEX
MBUGA1UEAwwOdnBuLmplbmtpbnMuaW+CFAgBqm0bMUBPe5x1VFR4tTZlO3yzMBMG
A1UdJQQMMAoGCCsGAQUFBwMCMAsGA1UdDwQEAwIHgDANBgkqhkiG9w0BAQsFAAOC
AgEAMkFf189XANYWEbnXl+5b/AnBihm+kEHrrvOmneaVHp+7jNIqs7GMydDWOwMZ
ZqAzp8alqgIunDQZiXeTCQT/qa9pGTZXbFuOQyI9ecba1AFV/35t3984lRa7BLqB
vtb5o39F+XQfvaOmM8DXMKxzfV6XdeMp7XRNj1ZTBh/EaKxrAN+cdnrd8A6etVKC
zuoXApmZEpdSZYDAmrhwu6ra+YrrXt8kvLaBKa0ZW9Appw/4AXjWusTrKiepRdkO
8HdfbRXVVa0yuwnSuwfSmWJ/I5YSP2iUfkYmLpfte+PgHClG0RwuPCxJl3Bl6d18
YHwaq59t7ROBRsE8m8bjC9l1QzUGzJMAD217EtGjMK1VOwFrD8veLox0GqUpX92R
2RWibeJFndkbO82TW2wLchNOLZkFhPz5+3ljScTYdW80F+ax+jclv2Ma8aNLzbrF
86N8PDJX9nn/sMmexrBB/UCEMGHBaWEhZevwXXz7Ku23xI5WVUSrUc0DszdX6Cks
2tRqaHMr+W2KQJ6rAUF1L/gRTaBMzdy6N/c46IFYFGm8nrydZUIDuqDwgRzXfqjF
hkwbABw4OTwbqn6NFrj5FWaBLs21Mqlx+c54A3xITB/rYRIssi7GIBMD6F6j+GNH
AQH4yNRJfW8DklGP4xLm0MOl7PUKkXTgl3a/jv+Fmg/hI3Y=
-----END CERTIFICATE-----
