Certificate:
    Data:
        Version: 3 (0x2)
        Serial Number:
            86:51:7d:59:b5:cc:14:9d:31:8c:f8:b5:07:dd:5a:27
    Signature Algorithm: sha256WithRSAEncryption
        Issuer: CN=vpn.jenkins.io
        Validity
            Not Before: Dec 12 15:27:20 2022 GMT
            Not After : Nov 26 15:27:20 2025 GMT
        Subject: CN=hlemeur
        Subject Public Key Info:
            Public Key Algorithm: rsaEncryption
                Public-Key: (4096 bit)
                Modulus:
                    00:cc:c1:22:d1:72:b6:d2:cb:2b:3e:0e:b7:f8:22:
                    98:40:ef:b8:a0:6d:96:26:4d:8a:bf:ef:b4:67:80:
                    c1:b0:08:8d:db:32:c5:76:3e:44:9f:2c:14:ea:82:
                    3a:16:2d:24:ea:7a:53:6a:54:50:71:e0:4b:96:d9:
                    69:37:bb:d1:cd:da:88:f0:19:33:b6:a4:ce:97:f9:
                    b4:2d:ca:3a:0d:30:27:93:63:cb:91:e4:f4:76:66:
                    cd:bc:ab:66:1c:bc:8d:08:cd:dc:b0:ac:b7:12:69:
                    a4:82:50:e0:48:40:bc:48:1d:5d:23:8c:11:90:87:
                    bc:2e:4a:28:0c:18:46:1f:24:c3:a5:59:e1:df:59:
                    db:a6:59:2a:00:43:7e:a3:32:bb:8f:b5:1b:70:f1:
                    00:f1:19:9d:cd:93:98:6e:72:6b:e1:97:83:43:64:
                    f8:60:56:b9:4e:18:72:0c:db:78:14:d3:07:c6:60:
                    90:e6:39:01:f9:12:88:13:9f:24:21:58:40:e7:41:
                    c8:d1:2e:a7:4e:c3:1d:9e:b7:c9:58:29:48:f6:91:
                    17:69:3b:de:df:89:3a:e6:28:06:8b:38:85:bd:8a:
                    b9:64:fb:f9:7e:92:bf:71:55:aa:6d:3a:aa:5c:35:
                    b9:c9:4b:52:68:5c:6a:f6:6f:49:df:fc:0a:10:7e:
                    8a:60:2b:27:be:91:40:0b:b0:41:62:05:c2:c6:70:
                    1c:b4:c3:8e:8b:67:d5:78:60:40:a3:bd:b0:35:63:
                    4b:3e:c2:8d:2d:14:ee:ad:42:d9:eb:fb:6c:27:3b:
                    c0:37:89:b8:7f:1d:56:1b:af:b4:70:90:b1:16:f4:
                    36:f9:32:59:10:ca:c0:19:63:e0:f4:66:ce:dd:eb:
                    c8:86:d8:21:7a:80:1f:78:43:68:c4:1f:c3:d2:11:
                    2f:18:58:4f:aa:e0:71:06:59:d9:7c:96:51:9c:d6:
                    2d:00:18:28:0e:f5:9c:10:77:f8:2b:e0:18:94:bb:
                    37:fc:aa:9d:db:c5:14:9a:c3:78:58:fc:1a:77:2a:
                    02:e1:8a:ee:57:42:d8:a1:a9:81:5a:09:01:2e:e9:
                    11:2d:de:4e:e3:4b:8b:f4:48:ff:a7:18:f2:e8:09:
                    4c:0f:52:4a:a8:b0:29:c1:e4:2a:f1:02:30:58:a3:
                    cb:87:36:6a:d4:d5:f7:2d:08:38:15:3e:59:16:5b:
                    41:b3:de:74:9f:85:55:69:49:7a:e5:4d:7c:c8:4e:
                    e9:ee:4a:b0:cd:d2:69:83:5e:04:c8:a6:c7:0b:4d:
                    ee:d4:99:f1:ca:49:56:44:30:fc:a2:50:22:a8:9a:
                    bd:df:07:76:4b:a4:55:6c:ab:1c:df:81:ae:14:ee:
                    9c:05:d3
                Exponent: 65537 (0x10001)
        X509v3 extensions:
            X509v3 Basic Constraints: 
                CA:FALSE
            X509v3 Subject Key Identifier: 
                45:71:1D:59:9B:5B:9B:8A:D0:23:C5:2C:6A:7E:E7:50:FB:39:4E:92
            X509v3 Authority Key Identifier: 
                keyid:87:A7:C5:75:37:0B:14:6C:BF:46:04:8C:2A:52:E9:5D:DA:51:DC:E6
                DirName:/CN=vpn.jenkins.io
                serial:08:01:AA:6D:1B:31:40:4F:7B:9C:75:54:54:78:B5:36:65:3B:7C:B3

            X509v3 Extended Key Usage: 
                TLS Web Client Authentication
            X509v3 Key Usage: 
                Digital Signature
    Signature Algorithm: sha256WithRSAEncryption
         a2:59:3b:66:fd:25:bb:24:6c:c0:c2:da:52:6d:59:0f:89:7e:
         2e:e3:cb:d9:f8:7a:dc:61:2b:c6:86:2d:df:9f:69:02:48:ef:
         44:ef:31:15:84:a8:92:24:c3:33:6d:c8:9c:1e:0c:b5:de:c9:
         e4:5e:d2:0e:77:03:10:74:ea:b5:d5:8d:7c:31:1f:86:2e:89:
         5e:12:af:e6:70:8a:8c:56:eb:39:05:d1:33:3e:60:ce:4d:97:
         84:63:da:34:06:88:e2:e4:0e:43:44:1d:fd:99:2f:69:9a:46:
         1d:04:6b:bb:92:cd:fb:70:ee:51:81:40:65:2a:37:56:56:7a:
         06:55:38:b2:0f:43:89:d6:de:5e:48:a7:04:59:ff:07:d6:86:
         5f:9a:1f:59:40:84:d3:87:42:24:76:b6:9a:59:7d:02:86:d4:
         10:e6:e2:38:cf:e9:d9:c9:fa:ee:de:25:11:e4:be:60:05:06:
         2d:96:fa:62:05:aa:81:9b:e1:24:f3:ca:bd:fb:d9:b5:31:40:
         e8:86:3c:16:68:5d:4d:76:c5:c3:5b:c6:da:14:4f:34:80:20:
         d4:fb:75:aa:4e:a1:63:a9:c3:a2:98:7b:86:ab:e1:e7:a5:fe:
         fd:6e:fd:32:d2:02:87:66:d2:22:a4:38:a7:ba:7a:11:85:66:
         76:9f:b0:dd:bd:80:99:2e:48:4c:ee:c1:ba:49:5b:23:07:29:
         46:0b:44:d1:5d:6d:38:99:c7:9a:e2:ea:2d:33:33:33:c6:4a:
         ef:59:34:cf:d6:65:ae:05:8e:b2:a7:fe:e7:27:1e:bc:78:94:
         8b:3a:0d:28:4f:38:3e:93:51:a1:09:9f:e1:14:4e:f2:f8:22:
         ce:b2:53:c2:bc:49:d3:39:31:2a:f1:02:67:0b:8d:29:ea:e2:
         3a:48:b5:71:80:3f:6b:e3:10:47:eb:44:c9:96:31:cc:f1:a0:
         1f:bc:15:e3:b0:5f:f4:c9:65:e7:3d:cf:d2:d3:77:42:bd:c8:
         2c:92:e6:d6:53:12:c9:6d:14:d8:ee:9a:07:d3:f2:d4:66:b0:
         2c:ba:f8:2e:1a:a9:14:ac:21:e6:e8:e0:17:f7:fc:b9:a3:b4:
         2d:a2:e9:13:b9:d2:a4:29:5a:bc:94:e8:37:ba:26:24:8f:92:
         d7:5d:38:e4:f2:a2:69:49:12:63:f8:dd:bc:bc:b2:a8:94:96:
         3c:ce:d0:92:a4:ea:e4:49:27:32:b2:70:ca:69:3a:41:60:a0:
         3f:72:20:42:57:28:d2:dc:1e:4c:6c:31:e1:f6:74:b6:b8:c1:
         56:6b:71:a7:f3:8d:b1:76:5c:7e:9b:0d:be:dd:cf:25:5f:bc:
         f7:b7:87:d7:79:25:ea:9d
-----BEGIN CERTIFICATE-----
MIIFXDCCA0SgAwIBAgIRAIZRfVm1zBSdMYz4tQfdWicwDQYJKoZIhvcNAQELBQAw
GTEXMBUGA1UEAwwOdnBuLmplbmtpbnMuaW8wHhcNMjIxMjEyMTUyNzIwWhcNMjUx
MTI2MTUyNzIwWjASMRAwDgYDVQQDDAdobGVtZXVyMIICIjANBgkqhkiG9w0BAQEF
AAOCAg8AMIICCgKCAgEAzMEi0XK20ssrPg63+CKYQO+4oG2WJk2Kv++0Z4DBsAiN
2zLFdj5EnywU6oI6Fi0k6npTalRQceBLltlpN7vRzdqI8BkztqTOl/m0Lco6DTAn
k2PLkeT0dmbNvKtmHLyNCM3csKy3EmmkglDgSEC8SB1dI4wRkIe8LkooDBhGHyTD
pVnh31nbplkqAEN+ozK7j7UbcPEA8RmdzZOYbnJr4ZeDQ2T4YFa5ThhyDNt4FNMH
xmCQ5jkB+RKIE58kIVhA50HI0S6nTsMdnrfJWClI9pEXaTve34k65igGiziFvYq5
ZPv5fpK/cVWqbTqqXDW5yUtSaFxq9m9J3/wKEH6KYCsnvpFAC7BBYgXCxnActMOO
i2fVeGBAo72wNWNLPsKNLRTurULZ6/tsJzvAN4m4fx1WG6+0cJCxFvQ2+TJZEMrA
GWPg9GbO3evIhtgheoAfeENoxB/D0hEvGFhPquBxBlnZfJZRnNYtABgoDvWcEHf4
K+AYlLs3/Kqd28UUmsN4WPwadyoC4YruV0LYoamBWgkBLukRLd5O40uL9Ej/pxjy
6AlMD1JKqLApweQq8QIwWKPLhzZq1NX3LQg4FT5ZFltBs950n4VVaUl65U18yE7p
7kqwzdJpg14EyKbHC03u1JnxyklWRDD8olAiqJq93wd2S6RVbKsc34GuFO6cBdMC
AwEAAaOBpTCBojAJBgNVHRMEAjAAMB0GA1UdDgQWBBRFcR1Zm1ubitAjxSxqfudQ
+zlOkjBUBgNVHSMETTBLgBSHp8V1NwsUbL9GBIwqUuld2lHc5qEdpBswGTEXMBUG
A1UEAwwOdnBuLmplbmtpbnMuaW+CFAgBqm0bMUBPe5x1VFR4tTZlO3yzMBMGA1Ud
JQQMMAoGCCsGAQUFBwMCMAsGA1UdDwQEAwIHgDANBgkqhkiG9w0BAQsFAAOCAgEA
olk7Zv0luyRswMLaUm1ZD4l+LuPL2fh63GErxoYt359pAkjvRO8xFYSokiTDM23I
nB4Mtd7J5F7SDncDEHTqtdWNfDEfhi6JXhKv5nCKjFbrOQXRMz5gzk2XhGPaNAaI
4uQOQ0Qd/ZkvaZpGHQRru5LN+3DuUYFAZSo3VlZ6BlU4sg9DidbeXkinBFn/B9aG
X5ofWUCE04dCJHa2mll9AobUEObiOM/p2cn67t4lEeS+YAUGLZb6YgWqgZvhJPPK
vfvZtTFA6IY8FmhdTXbFw1vG2hRPNIAg1Pt1qk6hY6nDoph7hqvh56X+/W79MtIC
h2bSIqQ4p7p6EYVmdp+w3b2AmS5ITO7BuklbIwcpRgtE0V1tOJnHmuLqLTMzM8ZK
71k0z9ZlrgWOsqf+5ycevHiUizoNKE84PpNRoQmf4RRO8vgizrJTwrxJ0zkxKvEC
ZwuNKeriOki1cYA/a+MQR+tEyZYxzPGgH7wV47Bf9Mll5z3P0tN3Qr3ILJLm1lMS
yW0U2O6aB9Py1GawLLr4LhqpFKwh5ujgF/f8uaO0LaLpE7nSpClavJToN7omJI+S
11045PKiaUkSY/jdvLyyqJSWPM7QkqTq5EknMrJwymk6QWCgP3IgQlco0tweTGwx
4fZ0trjBVmtxp/ONsXZcfpsNvt3PJV+897eH13kl6p0=
-----END CERTIFICATE-----
