Certificate:
    Data:
        Version: 3 (0x2)
        Serial Number:
            86:63:ad:ec:b0:34:fa:55:65:4a:66:3a:b6:fc:fe:48
    Signature Algorithm: sha256WithRSAEncryption
        Issuer: CN=vpn.jenkins.io
        Validity
            Not Before: Jan 19 22:53:19 2023 GMT
            Not After : Jan  3 22:53:19 2026 GMT
        Subject: CN=timja
        Subject Public Key Info:
            Public Key Algorithm: rsaEncryption
                RSA Public-Key: (4096 bit)
                Modulus:
                    00:cd:1a:c6:6f:8a:81:94:88:5a:e7:41:0e:11:e4:
                    3d:d4:3e:84:16:8b:b9:e1:93:51:d2:2d:8d:35:9f:
                    df:d2:d0:69:a1:05:b1:9e:10:74:ad:c7:28:de:3e:
                    0b:e9:17:43:78:c3:4d:6f:29:ab:ef:1e:81:72:2f:
                    44:9a:62:0f:3a:bf:ed:fb:dc:42:00:6f:06:cc:e1:
                    a8:6b:bd:1c:c5:ec:b9:56:ec:a3:da:40:9e:53:dc:
                    5f:d9:18:90:4a:05:69:c6:3b:52:a9:54:9c:6a:86:
                    37:a2:57:f7:ef:28:a9:0a:ad:c4:da:33:1b:a8:21:
                    e0:6f:43:0c:64:6c:6d:87:2a:f6:66:56:ee:2e:3e:
                    ac:bc:92:d0:3c:b2:9d:64:0f:fd:75:07:64:1d:a4:
                    30:76:7c:9c:56:7b:9a:80:95:ae:90:6d:df:2c:a0:
                    43:e7:4f:ea:cc:bf:13:7f:ad:92:3d:e4:b8:70:d2:
                    a1:77:a3:b9:e2:c2:6b:c5:eb:50:b6:c2:a1:46:76:
                    7b:45:d7:0f:67:37:3a:c7:9a:d0:93:55:3c:d5:38:
                    48:f5:1f:22:ac:64:5d:61:51:66:84:10:45:40:4c:
                    de:ee:44:aa:19:2e:66:40:a0:cf:47:b2:5c:a6:6d:
                    90:ed:c3:f0:8e:00:69:1f:8e:fa:4e:18:d4:33:31:
                    b2:76:c5:82:be:1f:cf:d3:8c:83:d3:d3:de:94:f5:
                    74:bc:e9:4e:4d:36:9f:3a:b9:00:7e:df:a5:54:e4:
                    5f:2d:2e:e7:5b:6d:e8:e0:13:8d:fd:5c:16:23:4f:
                    09:86:70:d7:5d:19:42:05:8e:11:02:91:bf:3c:cf:
                    b1:96:5f:ed:78:a7:d6:3b:f3:4b:ab:2b:54:a6:ed:
                    ff:42:f8:fc:37:06:79:c0:b4:8c:93:93:9e:6b:27:
                    d3:98:bb:95:86:27:e1:db:58:11:86:4d:ca:c8:fc:
                    07:80:b7:18:db:d2:e1:dc:ab:cd:d3:73:bb:42:90:
                    75:39:25:62:95:60:ca:30:f7:f5:d1:02:92:25:0f:
                    e4:d6:c1:16:17:24:bd:d1:c8:93:92:26:6d:02:bc:
                    fc:6a:0d:1b:d1:15:c9:97:66:60:b4:bd:53:26:96:
                    28:1c:56:9e:57:7f:77:89:cf:29:01:6a:94:bc:2a:
                    12:e4:6f:88:f8:0c:a6:a4:b9:8e:19:f4:5b:e1:e7:
                    d3:0b:6d:ac:b5:cd:15:20:3e:61:73:9b:2f:cb:4e:
                    ad:de:94:40:84:34:8d:8a:c4:e6:cb:ed:ce:48:29:
                    23:8a:47:aa:b4:61:e4:82:e4:6e:7b:9e:25:b3:5d:
                    4f:38:b4:ed:b3:9e:8b:21:48:e6:19:3d:b5:b5:67:
                    97:27:29
                Exponent: 65537 (0x10001)
        X509v3 extensions:
            X509v3 Basic Constraints: 
                CA:FALSE
            X509v3 Subject Key Identifier: 
                21:1D:6B:67:3A:D3:49:C7:4F:F4:DD:8A:E4:1E:AF:61:11:24:6D:F8
            X509v3 Authority Key Identifier: 
                keyid:87:A7:C5:75:37:0B:14:6C:BF:46:04:8C:2A:52:E9:5D:DA:51:DC:E6
                DirName:/CN=vpn.jenkins.io
                serial:08:01:AA:6D:1B:31:40:4F:7B:9C:75:54:54:78:B5:36:65:3B:7C:B3

            X509v3 Extended Key Usage: 
                TLS Web Client Authentication
            X509v3 Key Usage: 
                Digital Signature
    Signature Algorithm: sha256WithRSAEncryption
         0b:dd:6d:b3:d9:47:bc:75:e8:77:6e:93:c2:b9:09:77:2d:16:
         27:bb:5a:d1:3e:1b:b8:d8:b3:1f:49:44:6c:ed:c1:1f:9b:a7:
         63:51:f4:1e:ba:1e:9a:9c:49:32:47:48:ea:5a:df:2f:5d:d3:
         ac:7e:3a:8f:2d:3b:9d:74:46:af:4a:2f:8e:bd:03:db:43:e1:
         6a:69:76:9a:87:92:e1:2c:cd:d0:5e:f8:f0:ed:05:c0:b3:35:
         29:5a:0d:94:3f:a8:6b:69:f7:82:13:63:f0:74:58:09:9c:52:
         b7:59:8d:1a:37:be:68:0a:2c:b4:77:3d:b4:2c:49:5b:4d:88:
         cf:e7:7c:55:18:cb:46:b1:80:94:21:53:4b:e1:32:9d:39:cc:
         ee:16:cb:70:30:84:1c:92:1d:ca:82:60:5c:d3:49:88:71:8f:
         d9:07:f0:dd:6e:8b:96:2c:be:87:e5:6e:17:e0:65:df:ea:86:
         37:b9:2b:69:08:84:db:58:f8:91:1c:4b:d1:7e:cc:78:44:65:
         0d:98:7c:82:c0:3d:ab:58:5a:a0:bf:8d:7d:67:8a:10:cf:f2:
         8f:d4:52:55:ae:30:ca:b8:40:60:1c:05:dc:8d:41:2e:fd:a6:
         ff:b0:d2:4e:ff:15:8e:dc:9c:c5:ca:87:ef:2a:a6:d6:fd:95:
         93:b9:41:79:09:49:0a:21:96:0e:71:66:c7:7c:45:18:39:45:
         fa:5e:d2:63:18:c2:ff:c3:97:64:ae:2d:c7:49:de:66:2f:33:
         63:73:32:2b:7a:25:49:b8:10:3e:10:55:0d:e5:7d:54:0e:4c:
         da:8e:15:89:ee:33:47:c3:72:7d:20:23:2a:db:be:87:80:b5:
         43:07:a3:d4:c1:73:0c:43:61:26:51:d1:d5:d4:08:c8:c8:3b:
         52:83:b0:1f:88:28:b3:bc:56:5b:d4:d3:08:70:b4:57:26:1d:
         4d:8f:af:68:94:f3:41:bb:14:e1:45:92:ea:b7:90:ad:eb:94:
         4d:7f:a2:80:64:e7:0c:53:7b:06:7d:0d:33:98:07:78:25:aa:
         35:5c:64:d2:41:a5:2d:f7:88:95:33:fc:ff:c6:81:62:03:a2:
         e8:42:ad:42:c3:1b:3a:99:bc:36:46:1b:ac:d2:c7:2c:36:1c:
         56:ce:b7:16:f3:67:e5:46:e7:7f:38:c8:ea:2c:f5:98:11:8f:
         b7:24:bd:91:8d:2a:22:6a:b8:ff:c8:89:54:ee:cd:29:9d:7f:
         7f:91:95:ce:f0:59:7c:b4:84:2e:be:38:f3:f2:d2:1d:82:0b:
         61:d1:4c:7c:02:6e:d7:65:29:b9:19:58:ee:3f:6c:a7:6a:61:
         4d:9c:a9:46:46:34:16:14
-----BEGIN CERTIFICATE-----
MIIFWjCCA0KgAwIBAgIRAIZjreywNPpVZUpmOrb8/kgwDQYJKoZIhvcNAQELBQAw
GTEXMBUGA1UEAwwOdnBuLmplbmtpbnMuaW8wHhcNMjMwMTE5MjI1MzE5WhcNMjYw
MTAzMjI1MzE5WjAQMQ4wDAYDVQQDDAV0aW1qYTCCAiIwDQYJKoZIhvcNAQEBBQAD
ggIPADCCAgoCggIBAM0axm+KgZSIWudBDhHkPdQ+hBaLueGTUdItjTWf39LQaaEF
sZ4QdK3HKN4+C+kXQ3jDTW8pq+8egXIvRJpiDzq/7fvcQgBvBszhqGu9HMXsuVbs
o9pAnlPcX9kYkEoFacY7UqlUnGqGN6JX9+8oqQqtxNozG6gh4G9DDGRsbYcq9mZW
7i4+rLyS0DyynWQP/XUHZB2kMHZ8nFZ7moCVrpBt3yygQ+dP6sy/E3+tkj3kuHDS
oXejueLCa8XrULbCoUZ2e0XXD2c3Osea0JNVPNU4SPUfIqxkXWFRZoQQRUBM3u5E
qhkuZkCgz0eyXKZtkO3D8I4AaR+O+k4Y1DMxsnbFgr4fz9OMg9PT3pT1dLzpTk02
nzq5AH7fpVTkXy0u51tt6OATjf1cFiNPCYZw110ZQgWOEQKRvzzPsZZf7Xin1jvz
S6srVKbt/0L4/DcGecC0jJOTnmsn05i7lYYn4dtYEYZNysj8B4C3GNvS4dyrzdNz
u0KQdTklYpVgyjD39dECkiUP5NbBFhckvdHIk5ImbQK8/GoNG9EVyZdmYLS9UyaW
KBxWnld/d4nPKQFqlLwqEuRviPgMpqS5jhn0W+Hn0wttrLXNFSA+YXObL8tOrd6U
QIQ0jYrE5svtzkgpI4pHqrRh5ILkbnueJbNdTzi07bOeiyFI5hk9tbVnlycpAgMB
AAGjgaUwgaIwCQYDVR0TBAIwADAdBgNVHQ4EFgQUIR1rZzrTScdP9N2K5B6vYREk
bfgwVAYDVR0jBE0wS4AUh6fFdTcLFGy/RgSMKlLpXdpR3OahHaQbMBkxFzAVBgNV
BAMMDnZwbi5qZW5raW5zLmlvghQIAaptGzFAT3ucdVRUeLU2ZTt8szATBgNVHSUE
DDAKBggrBgEFBQcDAjALBgNVHQ8EBAMCB4AwDQYJKoZIhvcNAQELBQADggIBAAvd
bbPZR7x16Hduk8K5CXctFie7WtE+G7jYsx9JRGztwR+bp2NR9B66HpqcSTJHSOpa
3y9d06x+Oo8tO510Rq9KL469A9tD4WppdpqHkuEszdBe+PDtBcCzNSlaDZQ/qGtp
94ITY/B0WAmcUrdZjRo3vmgKLLR3PbQsSVtNiM/nfFUYy0axgJQhU0vhMp05zO4W
y3AwhBySHcqCYFzTSYhxj9kH8N1ui5YsvoflbhfgZd/qhje5K2kIhNtY+JEcS9F+
zHhEZQ2YfILAPatYWqC/jX1nihDP8o/UUlWuMMq4QGAcBdyNQS79pv+w0k7/FY7c
nMXKh+8qptb9lZO5QXkJSQohlg5xZsd8RRg5Rfpe0mMYwv/Dl2SuLcdJ3mYvM2Nz
Mit6JUm4ED4QVQ3lfVQOTNqOFYnuM0fDcn0gIyrbvoeAtUMHo9TBcwxDYSZR0dXU
CMjIO1KDsB+IKLO8VlvU0whwtFcmHU2Pr2iU80G7FOFFkuq3kK3rlE1/ooBk5wxT
ewZ9DTOYB3glqjVcZNJBpS33iJUz/P/GgWIDouhCrULDGzqZvDZGG6zSxyw2HFbO
txbzZ+VG5384yOos9ZgRj7ckvZGNKiJquP/IiVTuzSmdf3+Rlc7wWXy0hC6+OPPy
0h2CC2HRTHwCbtdlKbkZWO4/bKdqYU2cqUZGNBYU
-----END CERTIFICATE-----
