Certificate:
    Data:
        Version: 3 (0x2)
        Serial Number:
            aa:c8:fe:82:af:2a:64:66:23:97:e8:bd:0c:92:a1:c9
        Signature Algorithm: sha256WithRSAEncryption
        Issuer: CN=vpn.jenkins.io
        Validity
            Not Before: Nov 13 08:49:05 2019 GMT
            Not After : Oct 28 08:49:05 2022 GMT
        Subject: CN=oleg-nenashev
        Subject Public Key Info:
            Public Key Algorithm: rsaEncryption
                RSA Public-Key: (4096 bit)
                Modulus:
                    00:c3:52:3c:af:28:e6:71:0f:67:d3:27:be:0b:3c:
                    c4:23:e9:b6:44:69:de:1f:ec:39:d2:fb:46:6c:bc:
                    4f:6f:56:12:23:35:7d:79:c2:0d:2d:e6:8f:27:63:
                    06:d0:c6:9e:c1:2c:ed:b5:5e:df:c5:07:2b:cd:67:
                    f6:75:2c:6f:bd:18:79:b0:4c:33:fb:ad:76:eb:ca:
                    6f:d1:a7:42:b7:52:85:25:4c:c9:88:7f:a5:01:00:
                    24:7b:e9:64:35:81:4f:48:cd:23:a3:b0:ed:27:05:
                    67:a1:53:ce:a2:10:ab:b5:c6:d4:e8:28:6a:b1:7d:
                    62:f0:1b:3d:f1:b7:70:fa:af:01:fe:53:8b:c2:44:
                    cd:9a:44:ad:9a:6e:81:74:ee:12:ad:81:1b:af:cb:
                    fc:de:73:ef:57:d8:a6:66:90:55:70:ff:fc:44:0f:
                    02:2b:d5:4b:42:4a:5f:21:c4:e7:8c:2d:6b:5f:e5:
                    09:92:0d:42:2e:83:34:82:39:69:38:11:01:f5:55:
                    55:d4:67:42:3c:17:49:83:33:9d:29:33:21:25:a8:
                    e5:2a:c3:0c:2e:47:2d:50:fb:41:aa:58:cc:d0:c4:
                    c1:2c:de:96:5b:34:91:47:56:9d:4f:c4:68:01:5e:
                    23:b3:be:82:2c:25:74:8f:44:0a:1a:2a:4e:ca:c3:
                    08:19:b5:e4:9f:f7:ee:b9:28:a6:ad:42:32:26:38:
                    b3:28:5b:69:a0:95:0f:7a:2c:50:f5:b8:24:d6:3e:
                    53:e6:fb:b6:42:68:f9:97:67:6a:eb:2f:60:31:5e:
                    4c:75:51:9e:0d:9b:c6:54:ae:fc:bb:4c:01:4a:35:
                    9a:c8:d9:f8:cd:4e:75:0f:6e:93:0f:2d:e2:b7:7b:
                    4b:ed:cc:ad:3f:b1:9d:15:50:ce:76:34:77:3b:4d:
                    49:b5:7a:4d:00:da:b2:1b:1b:2d:b8:48:d0:be:6b:
                    f9:8d:f5:39:be:ba:2a:7a:fb:64:b3:0e:f5:00:ee:
                    73:03:5d:ec:5d:f5:72:ae:cc:16:0a:e2:8b:c0:b6:
                    6a:fd:75:a5:a0:cb:e4:3f:7e:4d:f9:88:fd:cc:b4:
                    e4:a8:00:56:38:94:1a:73:b7:f1:7e:96:9a:ab:56:
                    02:04:ab:69:39:c6:1a:65:25:53:c9:59:68:83:97:
                    85:5a:64:2a:19:79:25:87:24:85:fb:82:aa:80:a4:
                    c3:ed:c5:38:de:13:f7:5d:0b:d6:f9:9f:c8:da:d8:
                    f8:b9:f5:41:42:8d:bf:89:db:21:70:43:88:38:6a:
                    f6:d9:33:77:08:fc:4a:a7:cd:bb:d7:5f:8b:82:23:
                    ac:eb:fc:67:a7:f6:07:9c:cf:a8:7d:f4:51:2e:7d:
                    ca:73:cf
                Exponent: 65537 (0x10001)
        X509v3 extensions:
            X509v3 Basic Constraints: 
                CA:FALSE
            X509v3 Subject Key Identifier: 
                B0:79:08:FE:0B:39:83:41:83:A1:8E:74:90:F0:FD:C0:11:49:F8:EA
            X509v3 Authority Key Identifier: 
                keyid:87:A7:C5:75:37:0B:14:6C:BF:46:04:8C:2A:52:E9:5D:DA:51:DC:E6
                DirName:/CN=vpn.jenkins.io
                serial:08:01:AA:6D:1B:31:40:4F:7B:9C:75:54:54:78:B5:36:65:3B:7C:B3

            X509v3 Extended Key Usage: 
                TLS Web Client Authentication
            X509v3 Key Usage: 
                Digital Signature
    Signature Algorithm: sha256WithRSAEncryption
         1e:3e:bd:3f:35:b4:13:1b:9b:c6:95:03:69:34:0a:3d:4e:53:
         11:2f:5c:1a:e7:1b:76:ba:3b:9b:35:ea:0c:91:57:9e:4e:00:
         68:8a:09:56:4f:0b:d5:00:0c:4f:60:6b:74:20:44:65:e7:c1:
         04:01:8a:3c:bc:31:36:28:16:e3:0a:40:86:b7:4e:49:ec:4d:
         6c:98:5d:78:63:a6:ea:9f:6b:aa:fd:81:0f:e4:34:56:7f:ab:
         f8:55:86:8e:34:d5:9a:d1:ac:66:6d:b0:e8:1e:0c:0d:0f:1e:
         a6:8b:39:c6:a5:0b:90:dd:33:f1:e3:fc:b2:09:b0:18:9e:a2:
         0b:70:f2:6e:37:b9:21:c1:93:28:b6:15:81:c5:62:12:2c:0c:
         84:72:3e:c2:e7:7a:6b:66:fe:30:66:89:c0:62:3f:76:6f:72:
         d5:2f:60:f1:ed:98:e8:9c:7c:a9:67:cc:43:94:18:28:77:28:
         b5:08:4e:99:e8:a7:0b:de:59:b9:e5:27:b4:ec:d2:74:20:09:
         29:d9:ba:6c:70:90:3b:50:7a:4a:c8:3c:f4:ae:97:f4:53:55:
         66:a9:fc:97:48:3f:18:b6:5d:08:3e:a1:4c:8b:34:85:5c:6c:
         cd:2e:17:b2:dd:45:24:56:e4:b2:43:24:3e:76:69:70:02:03:
         05:bc:1a:fe:54:39:fc:f4:7f:08:eb:ec:12:a9:fe:44:66:e4:
         cf:b7:df:7d:63:53:eb:6a:1a:92:ef:6c:de:d7:d6:c5:9a:53:
         10:5b:cd:7a:e4:0a:cb:44:dd:62:66:ee:b5:61:ea:d6:f8:e3:
         34:0f:92:b7:5e:92:26:ed:7f:56:44:ad:b4:b1:6c:43:48:1d:
         9e:4c:2f:21:bf:74:a5:e9:17:63:84:46:ef:63:ba:f3:18:f3:
         c1:bd:4f:0b:ea:b1:a0:0c:d9:24:d0:15:61:bb:d2:7d:17:5d:
         1f:24:4e:63:ee:68:23:fc:d3:6b:dd:69:08:d5:ca:22:84:5f:
         28:e5:de:57:57:16:a8:50:43:2b:2e:d2:c4:42:b7:25:9f:5f:
         93:00:cf:b0:7a:51:f0:7d:a3:c8:a2:14:73:6c:f8:4a:91:d7:
         d1:2d:48:1b:b5:3b:43:67:49:9d:58:04:67:a2:1d:8a:2c:5b:
         c9:f2:30:eb:68:c1:de:78:50:31:47:a8:48:31:f4:b1:9b:9a:
         da:8a:0f:7b:c1:19:72:87:04:be:69:68:ba:70:be:6c:3d:ff:
         c2:d1:8a:85:e8:2a:de:a8:58:ce:6b:c3:63:eb:3a:f5:76:3d:
         ce:39:54:6e:f8:42:d7:60:68:ff:45:ed:a7:20:31:3e:14:d0:
         9b:20:34:42:ff:eb:4e:fc
-----BEGIN CERTIFICATE-----
MIIFYjCCA0qgAwIBAgIRAKrI/oKvKmRmI5fovQySockwDQYJKoZIhvcNAQELBQAw
GTEXMBUGA1UEAwwOdnBuLmplbmtpbnMuaW8wHhcNMTkxMTEzMDg0OTA1WhcNMjIx
MDI4MDg0OTA1WjAYMRYwFAYDVQQDDA1vbGVnLW5lbmFzaGV2MIICIjANBgkqhkiG
9w0BAQEFAAOCAg8AMIICCgKCAgEAw1I8ryjmcQ9n0ye+CzzEI+m2RGneH+w50vtG
bLxPb1YSIzV9ecINLeaPJ2MG0MaewSzttV7fxQcrzWf2dSxvvRh5sEwz+61268pv
0adCt1KFJUzJiH+lAQAke+lkNYFPSM0jo7DtJwVnoVPOohCrtcbU6ChqsX1i8Bs9
8bdw+q8B/lOLwkTNmkStmm6BdO4SrYEbr8v83nPvV9imZpBVcP/8RA8CK9VLQkpf
IcTnjC1rX+UJkg1CLoM0gjlpOBEB9VVV1GdCPBdJgzOdKTMhJajlKsMMLkctUPtB
qljM0MTBLN6WWzSRR1adT8RoAV4js76CLCV0j0QKGipOysMIGbXkn/fuuSimrUIy
JjizKFtpoJUPeixQ9bgk1j5T5vu2Qmj5l2dq6y9gMV5MdVGeDZvGVK78u0wBSjWa
yNn4zU51D26TDy3it3tL7cytP7GdFVDOdjR3O01JtXpNANqyGxstuEjQvmv5jfU5
vroqevtksw71AO5zA13sXfVyrswWCuKLwLZq/XWloMvkP35N+Yj9zLTkqABWOJQa
c7fxfpaaq1YCBKtpOcYaZSVTyVlog5eFWmQqGXklhySF+4KqgKTD7cU43hP3XQvW
+Z/I2tj4ufVBQo2/idshcEOIOGr22TN3CPxKp82711+LgiOs6/xnp/YHnM+offRR
Ln3Kc88CAwEAAaOBpTCBojAJBgNVHRMEAjAAMB0GA1UdDgQWBBSweQj+CzmDQYOh
jnSQ8P3AEUn46jBUBgNVHSMETTBLgBSHp8V1NwsUbL9GBIwqUuld2lHc5qEdpBsw
GTEXMBUGA1UEAwwOdnBuLmplbmtpbnMuaW+CFAgBqm0bMUBPe5x1VFR4tTZlO3yz
MBMGA1UdJQQMMAoGCCsGAQUFBwMCMAsGA1UdDwQEAwIHgDANBgkqhkiG9w0BAQsF
AAOCAgEAHj69PzW0ExubxpUDaTQKPU5TES9cGucbdro7mzXqDJFXnk4AaIoJVk8L
1QAMT2BrdCBEZefBBAGKPLwxNigW4wpAhrdOSexNbJhdeGOm6p9rqv2BD+Q0Vn+r
+FWGjjTVmtGsZm2w6B4MDQ8epos5xqULkN0z8eP8sgmwGJ6iC3Dybje5IcGTKLYV
gcViEiwMhHI+wud6a2b+MGaJwGI/dm9y1S9g8e2Y6Jx8qWfMQ5QYKHcotQhOmein
C95ZueUntOzSdCAJKdm6bHCQO1B6Ssg89K6X9FNVZqn8l0g/GLZdCD6hTIs0hVxs
zS4Xst1FJFbkskMkPnZpcAIDBbwa/lQ5/PR/COvsEqn+RGbkz7fffWNT62oaku9s
3tfWxZpTEFvNeuQKy0TdYmbutWHq1vjjNA+St16SJu1/VkSttLFsQ0gdnkwvIb90
pekXY4RG72O68xjzwb1PC+qxoAzZJNAVYbvSfRddHyROY+5oI/zTa91pCNXKIoRf
KOXeV1cWqFBDKy7SxEK3JZ9fkwDPsHpR8H2jyKIUc2z4SpHX0S1IG7U7Q2dJnVgE
Z6IdiixbyfIw62jB3nhQMUeoSDH0sZua2ooPe8EZcocEvmlounC+bD3/wtGKhegq
3qhYzmvDY+s69XY9zjlUbvhC12Bo/0XtpyAxPhTQmyA0Qv/rTvw=
-----END CERTIFICATE-----
