Certificate:
    Data:
        Version: 3 (0x2)
        Serial Number:
            ac:17:38:7a:3c:cd:fa:3e:ba:a4:71:f8:2c:41:65:39
    Signature Algorithm: sha256WithRSAEncryption
        Issuer: CN=vpn.jenkins.io
        Validity
            Not Before: Apr 25 15:50:31 2022 GMT
            Not After : Apr  9 15:50:31 2025 GMT
        Subject: CN=wfollonier
        Subject Public Key Info:
            Public Key Algorithm: rsaEncryption
                Public-Key: (4096 bit)
                Modulus:
                    00:c4:95:23:b5:d4:d0:46:d8:f3:ed:38:e5:58:0f:
                    1b:bb:3f:fd:0d:87:22:0a:8f:ec:77:07:d8:38:4c:
                    3f:02:8d:45:90:e0:5d:01:cc:24:4c:88:e4:7b:86:
                    d0:74:28:36:e5:ab:02:82:3d:c0:13:98:f0:87:07:
                    13:d4:73:e6:7d:cd:1a:67:c7:15:0c:71:15:70:54:
                    10:e6:3e:97:a0:e7:a0:f8:78:07:ff:82:6d:46:21:
                    34:06:a5:da:fb:06:d4:53:82:c6:8d:5c:9f:1b:07:
                    0a:c9:5b:a6:bf:27:80:d2:ed:3e:e2:d5:84:cd:bf:
                    af:5d:18:91:4d:7e:f9:37:39:94:63:06:85:50:2b:
                    69:66:2f:1c:64:25:ff:ac:53:8a:07:d9:ce:d5:f4:
                    24:bb:12:e1:9a:8a:c1:a0:2c:2b:e6:02:11:de:bc:
                    3f:06:6b:b8:80:29:f8:be:94:d7:37:72:5f:cc:a8:
                    42:43:e5:13:89:fa:0c:4d:13:33:56:4a:1b:a5:d6:
                    46:fd:1f:e7:99:97:55:19:0b:e3:26:fd:e2:12:38:
                    3c:a4:0e:d5:05:18:78:18:22:96:4d:2f:1f:79:4b:
                    63:30:c8:33:95:b3:b2:4b:23:0d:a3:89:b0:1d:1d:
                    32:23:d7:61:a0:c0:75:73:b2:d4:3e:09:85:d6:53:
                    89:c4:66:93:59:10:32:ed:48:82:03:20:a3:75:30:
                    3f:9b:db:c4:e3:8e:1c:9e:65:93:e6:b5:57:4f:e1:
                    d2:ef:0a:ba:0f:18:04:8d:7c:9b:c9:6c:c3:e5:8e:
                    a8:da:0c:35:88:2a:b6:5d:9f:4d:8e:a7:3d:3d:c8:
                    3d:74:01:5a:d1:ee:b5:fb:57:2e:a4:f0:5e:16:16:
                    2c:c1:8f:37:f6:f6:64:1d:3e:b0:9a:9f:e0:8a:46:
                    4e:98:c1:8b:2f:34:a8:05:10:85:7f:d4:9f:4c:ce:
                    17:6f:f1:80:97:63:2e:c6:16:1f:4d:6a:c3:78:65:
                    4f:17:af:1d:b0:43:be:56:18:2c:7e:3e:ec:be:75:
                    43:5a:4d:86:10:23:ed:31:0b:92:9c:31:f5:78:69:
                    53:d8:e6:f0:4b:7f:c1:c4:fb:00:6f:c9:70:88:6d:
                    65:a9:99:df:b2:fb:b8:5e:46:97:69:e3:5f:59:76:
                    27:ce:ce:bd:e3:be:0e:3d:53:19:ff:cf:51:dd:51:
                    2e:a6:3d:f4:28:ed:3f:6e:f0:e7:f8:91:89:b1:07:
                    a3:52:e3:ef:b3:c4:a3:0b:05:5f:44:90:5e:cf:bc:
                    47:7e:97:0a:44:5c:3d:38:68:4f:22:e6:a2:87:21:
                    b6:cb:fe:4a:27:bb:03:15:25:6b:8d:7a:d8:05:d4:
                    40:a2:c5
                Exponent: 65537 (0x10001)
        X509v3 extensions:
            X509v3 Basic Constraints: 
                CA:FALSE
            X509v3 Subject Key Identifier: 
                48:DF:6C:49:92:B5:DC:E8:91:5E:31:82:93:26:AE:18:0D:D9:FD:E2
            X509v3 Authority Key Identifier: 
                keyid:87:A7:C5:75:37:0B:14:6C:BF:46:04:8C:2A:52:E9:5D:DA:51:DC:E6
                DirName:/CN=vpn.jenkins.io
                serial:08:01:AA:6D:1B:31:40:4F:7B:9C:75:54:54:78:B5:36:65:3B:7C:B3

            X509v3 Extended Key Usage: 
                TLS Web Client Authentication
            X509v3 Key Usage: 
                Digital Signature
    Signature Algorithm: sha256WithRSAEncryption
         5c:35:79:d9:9f:5f:5b:df:97:35:67:af:47:82:41:bb:c6:04:
         3e:66:fb:26:bc:91:8e:5f:19:fe:c5:07:30:37:6f:fa:82:33:
         f5:3b:7c:52:fb:94:65:17:81:64:33:27:d4:ec:d9:27:07:04:
         19:1c:a8:85:65:c5:df:7f:22:69:e1:4c:ba:89:b5:39:ba:ed:
         49:b7:db:6a:72:d5:03:93:0e:14:b4:96:99:47:17:10:8d:71:
         a2:23:a0:7a:11:c9:c7:80:02:1a:d0:34:b1:3e:fa:c0:94:e2:
         5a:cc:89:5c:8a:3b:df:69:ff:09:81:e1:13:76:e2:74:bc:5f:
         aa:83:a8:4f:17:3e:9d:9c:b3:1a:24:98:e7:02:3c:24:ad:97:
         8a:81:93:cf:1b:e2:af:e8:2f:a5:13:14:62:47:d7:aa:ae:e6:
         d7:5f:5c:de:ee:74:3c:67:70:32:ef:09:c8:f0:7e:90:63:db:
         5c:d4:0f:23:38:58:58:af:1d:a7:34:06:6d:3e:61:d0:bb:89:
         58:9c:e0:9c:f1:5c:8d:60:77:88:95:10:9c:4c:27:9c:15:29:
         9d:ad:ae:82:57:d9:7c:df:a2:a8:30:72:95:11:bb:cf:41:88:
         91:e1:69:1c:32:e2:e8:ad:3c:c7:15:f5:93:20:91:89:fb:60:
         50:f1:da:80:90:7c:b4:06:e6:8f:68:9d:58:3f:d3:f8:64:22:
         bf:70:4d:b6:67:cc:87:b3:8a:96:55:8e:77:c4:d4:76:02:85:
         92:60:e2:7f:40:85:db:0b:0b:04:9d:12:f2:c0:3a:47:05:9b:
         0b:8b:20:86:5d:18:cf:ce:83:9e:c7:fc:dc:6e:a6:07:69:61:
         1c:69:74:a6:51:1a:d4:d6:0a:8d:aa:c5:d9:83:f8:55:ed:bf:
         91:56:95:0a:b4:7e:f4:b5:d5:b6:e4:fc:87:a3:31:1c:7f:52:
         22:b8:ef:7d:62:93:25:0b:8c:a3:41:45:e0:8f:07:d6:09:aa:
         2b:f5:76:d0:65:d5:be:1c:e0:ad:e9:ea:4a:70:40:c6:28:6a:
         20:9f:78:7f:5e:5e:5e:df:dd:a3:c7:cc:f8:0b:37:50:42:64:
         ab:8c:c6:5a:24:25:82:f2:a2:48:da:91:97:94:c3:7e:71:02:
         bd:5c:3d:b4:b7:78:da:2f:37:72:77:b6:94:3e:e6:f7:da:ab:
         f8:be:0c:ef:3f:19:34:3e:43:39:5c:82:ef:b4:64:88:c5:44:
         0d:0b:f1:30:40:b2:b0:1b:24:80:0a:81:01:d4:71:d0:ff:b9:
         8c:de:1c:8e:c4:f9:7a:71:39:95:ac:6a:89:e9:e7:f6:2c:8f:
         ac:bd:8c:7e:fe:ef:1b:59
-----BEGIN CERTIFICATE-----
MIIFXzCCA0egAwIBAgIRAKwXOHo8zfo+uqRx+CxBZTkwDQYJKoZIhvcNAQELBQAw
GTEXMBUGA1UEAwwOdnBuLmplbmtpbnMuaW8wHhcNMjIwNDI1MTU1MDMxWhcNMjUw
NDA5MTU1MDMxWjAVMRMwEQYDVQQDDAp3Zm9sbG9uaWVyMIICIjANBgkqhkiG9w0B
AQEFAAOCAg8AMIICCgKCAgEAxJUjtdTQRtjz7TjlWA8buz/9DYciCo/sdwfYOEw/
Ao1FkOBdAcwkTIjke4bQdCg25asCgj3AE5jwhwcT1HPmfc0aZ8cVDHEVcFQQ5j6X
oOeg+HgH/4JtRiE0BqXa+wbUU4LGjVyfGwcKyVumvyeA0u0+4tWEzb+vXRiRTX75
NzmUYwaFUCtpZi8cZCX/rFOKB9nO1fQkuxLhmorBoCwr5gIR3rw/Bmu4gCn4vpTX
N3JfzKhCQ+UTifoMTRMzVkobpdZG/R/nmZdVGQvjJv3iEjg8pA7VBRh4GCKWTS8f
eUtjMMgzlbOySyMNo4mwHR0yI9dhoMB1c7LUPgmF1lOJxGaTWRAy7UiCAyCjdTA/
m9vE444cnmWT5rVXT+HS7wq6DxgEjXybyWzD5Y6o2gw1iCq2XZ9Njqc9Pcg9dAFa
0e61+1cupPBeFhYswY839vZkHT6wmp/gikZOmMGLLzSoBRCFf9SfTM4Xb/GAl2Mu
xhYfTWrDeGVPF68dsEO+Vhgsfj7svnVDWk2GECPtMQuSnDH1eGlT2ObwS3/BxPsA
b8lwiG1lqZnfsvu4XkaXaeNfWXYnzs69474OPVMZ/89R3VEupj30KO0/bvDn+JGJ
sQejUuPvs8SjCwVfRJBez7xHfpcKRFw9OGhPIuaihyG2y/5KJ7sDFSVrjXrYBdRA
osUCAwEAAaOBpTCBojAJBgNVHRMEAjAAMB0GA1UdDgQWBBRI32xJkrXc6JFeMYKT
Jq4YDdn94jBUBgNVHSMETTBLgBSHp8V1NwsUbL9GBIwqUuld2lHc5qEdpBswGTEX
MBUGA1UEAwwOdnBuLmplbmtpbnMuaW+CFAgBqm0bMUBPe5x1VFR4tTZlO3yzMBMG
A1UdJQQMMAoGCCsGAQUFBwMCMAsGA1UdDwQEAwIHgDANBgkqhkiG9w0BAQsFAAOC
AgEAXDV52Z9fW9+XNWevR4JBu8YEPmb7JryRjl8Z/sUHMDdv+oIz9Tt8UvuUZReB
ZDMn1OzZJwcEGRyohWXF338iaeFMuom1ObrtSbfbanLVA5MOFLSWmUcXEI1xoiOg
ehHJx4ACGtA0sT76wJTiWsyJXIo732n/CYHhE3bidLxfqoOoTxc+nZyzGiSY5wI8
JK2XioGTzxvir+gvpRMUYkfXqq7m119c3u50PGdwMu8JyPB+kGPbXNQPIzhYWK8d
pzQGbT5h0LuJWJzgnPFcjWB3iJUQnEwnnBUpna2uglfZfN+iqDBylRG7z0GIkeFp
HDLi6K08xxX1kyCRiftgUPHagJB8tAbmj2idWD/T+GQiv3BNtmfMh7OKllWOd8TU
dgKFkmDif0CF2wsLBJ0S8sA6RwWbC4sghl0Yz86Dnsf83G6mB2lhHGl0plEa1NYK
jarF2YP4Ve2/kVaVCrR+9LXVtuT8h6MxHH9SIrjvfWKTJQuMo0FF4I8H1gmqK/V2
0GXVvhzgrenqSnBAxihqIJ94f15eXt/do8fM+As3UEJkq4zGWiQlgvKiSNqRl5TD
fnECvVw9tLd42i83cne2lD7m99qr+L4M7z8ZND5DOVyC77RkiMVEDQvxMECysBsk
gAqBAdRx0P+5jN4cjsT5enE5laxqienn9iyPrL2Mfv7vG1k=
-----END CERTIFICATE-----
