Certificate:
    Data:
        Version: 3 (0x2)
        Serial Number:
            af:d2:0d:d0:05:2e:bf:65:0f:04:db:f9:e2:69:1d:0c
    Signature Algorithm: sha256WithRSAEncryption
        Issuer: CN=vpn.jenkins.io
        Validity
            Not Before: Dec  9 14:41:53 2022 GMT
            Not After : Nov 23 14:41:53 2025 GMT
        Subject: CN=hlemeur
        Subject Public Key Info:
            Public Key Algorithm: rsaEncryption
                Public-Key: (4096 bit)
                Modulus:
                    00:db:47:2a:4d:b7:87:c8:42:63:f1:a3:d8:29:04:
                    db:0f:8b:7c:e4:6f:4c:f4:9b:e3:e9:39:1b:58:af:
                    de:5c:38:76:0d:c5:b7:17:73:1d:7f:16:6b:1f:53:
                    d0:57:07:c9:ab:78:a6:f3:80:a0:13:41:6e:85:55:
                    af:23:36:db:3f:6f:54:b1:01:5e:96:fd:ac:d1:63:
                    3b:b1:48:bc:34:a3:2c:ae:f7:3b:76:29:b5:af:6d:
                    93:26:a5:b1:08:ae:4a:71:cc:00:69:73:a9:52:7b:
                    8d:43:cb:27:50:78:7c:d4:c8:aa:04:c7:11:7e:97:
                    ac:81:fe:57:9d:d3:f3:22:0e:94:36:c9:78:5c:66:
                    62:66:c1:be:fa:71:e0:cf:4e:06:90:17:13:2c:61:
                    9e:ba:a0:25:75:a8:75:3c:fc:95:fd:b5:47:2e:af:
                    4e:85:76:4b:c2:25:96:6b:95:70:40:89:24:7e:b2:
                    1b:54:22:b8:23:67:64:fb:eb:41:74:1f:7c:e3:04:
                    60:60:2a:43:c1:60:76:ca:8a:ec:93:a9:5e:ab:25:
                    ae:61:80:e6:2a:e0:1b:92:16:8e:f7:4d:af:70:3e:
                    d8:62:1d:c5:2d:9f:73:58:54:3e:48:51:45:fa:f7:
                    c4:38:ab:f0:f0:6d:16:2c:c7:bf:d4:6c:4b:72:d7:
                    3b:7b:3e:86:9d:88:7b:75:7e:7e:72:f2:4d:25:e8:
                    3e:07:63:e9:95:63:17:4f:e1:33:2c:36:7c:b2:14:
                    7c:37:d4:0a:d8:8c:07:87:88:ae:d4:ce:1d:d5:d0:
                    7c:db:33:41:4b:bd:dd:b3:88:25:3d:dd:6b:1d:b6:
                    98:eb:28:89:5f:a6:87:d1:db:94:2b:6d:3d:96:ac:
                    98:95:94:6c:24:46:45:d5:18:d2:81:fa:d6:0c:30:
                    d7:a0:7a:59:64:0b:ef:9b:4f:ef:70:9d:22:0d:0a:
                    13:b6:75:f0:c4:94:1e:91:da:b2:74:27:13:1a:82:
                    6f:84:07:a2:e9:54:a6:94:7c:5a:3b:b2:05:5d:88:
                    42:1f:ec:e9:bf:3b:bd:b3:71:0f:80:71:ad:c3:1d:
                    d3:2a:95:fd:52:d1:4a:da:e1:6e:21:d4:cf:19:6b:
                    cf:fa:37:fd:7f:71:6f:00:da:42:74:b5:f3:19:09:
                    d8:8c:7a:1b:9d:89:c2:11:4d:27:17:45:7c:0e:51:
                    bc:df:cf:47:3e:76:e6:60:5f:f9:97:15:c3:ff:46:
                    7e:13:cf:08:3f:56:a6:24:d8:a6:cb:ef:e0:be:e1:
                    8e:71:ed:36:75:37:62:00:e2:58:dc:10:c9:32:26:
                    a2:5e:83:60:10:56:67:9a:80:0c:46:42:e1:d1:78:
                    f2:1f:bf
                Exponent: 65537 (0x10001)
        X509v3 extensions:
            X509v3 Basic Constraints: 
                CA:FALSE
            X509v3 Subject Key Identifier: 
                0E:3F:5D:BB:11:4C:F0:88:9E:78:F5:9D:44:23:CD:8D:97:30:59:14
            X509v3 Authority Key Identifier: 
                keyid:87:A7:C5:75:37:0B:14:6C:BF:46:04:8C:2A:52:E9:5D:DA:51:DC:E6
                DirName:/CN=vpn.jenkins.io
                serial:08:01:AA:6D:1B:31:40:4F:7B:9C:75:54:54:78:B5:36:65:3B:7C:B3

            X509v3 Extended Key Usage: 
                TLS Web Client Authentication
            X509v3 Key Usage: 
                Digital Signature
    Signature Algorithm: sha256WithRSAEncryption
         74:cf:45:cc:89:42:2d:18:77:02:48:3c:68:d5:66:02:a5:ce:
         22:60:21:a2:6c:16:15:84:26:f9:f2:cc:72:c3:87:4e:d4:eb:
         fe:14:65:94:63:c2:ce:6c:db:68:d4:bf:8e:a4:7b:48:28:b3:
         50:58:58:aa:20:b5:fc:a2:e9:dd:5e:f2:f4:75:fb:44:e8:31:
         e7:7d:63:ee:24:39:e8:b3:0b:f9:03:30:da:90:0e:8e:ae:55:
         c9:34:5b:6e:ef:6e:3c:e5:70:53:7a:43:23:c7:88:f7:e5:8c:
         bb:01:b0:e7:b6:6e:7c:a8:98:1a:71:1f:c2:20:0d:ee:ed:24:
         f3:dc:b2:9d:99:ef:c9:bd:50:8a:7a:e6:ac:49:35:28:0f:b6:
         e0:4b:e1:a7:14:d6:65:e9:aa:be:f3:c1:13:b8:93:e8:8f:29:
         98:1b:40:9e:ff:0e:6f:73:4c:d4:ba:ce:22:3c:04:81:41:7e:
         17:24:91:d0:4f:2e:37:fa:f9:a5:2a:30:15:01:6a:45:93:d7:
         e4:3b:f6:b8:64:06:37:be:a6:79:2f:b0:9a:ae:97:13:e4:c1:
         3c:8c:f2:34:41:bf:d6:4d:9b:36:ce:e8:0b:c7:91:c0:b6:05:
         0d:ea:81:4a:f3:3f:ee:7c:e5:b7:d1:bd:95:a7:2b:eb:26:ae:
         e3:cb:67:b2:55:3d:03:c3:62:29:93:79:d7:af:18:8b:47:88:
         cd:03:40:da:07:76:79:9d:1d:3a:27:31:f6:6f:6a:90:56:cc:
         eb:72:c8:97:b3:e1:c7:50:59:e5:ac:6b:d0:a1:71:88:a5:c8:
         f6:ed:20:ac:8d:28:d4:56:ae:b3:c4:d2:1d:cf:ef:c5:39:9d:
         ee:bf:92:c3:8d:eb:e7:6d:40:4d:29:98:8c:c5:25:74:cd:be:
         8b:68:d6:0c:0e:82:82:45:8a:f7:3e:00:8b:54:7d:a3:9c:b9:
         03:f4:f3:cb:da:da:d5:08:9d:6a:5a:7e:ed:36:46:27:91:f3:
         85:39:65:89:b2:f0:02:e6:52:fe:1f:50:04:17:bb:c8:1c:9c:
         18:e0:a0:c8:a8:1a:fb:9b:10:9b:30:b5:44:51:66:f6:56:e6:
         9e:eb:07:ec:b8:59:92:72:48:84:c6:9a:d1:15:5c:73:99:d5:
         63:83:7f:d7:31:46:6f:bf:de:63:b0:c2:d5:e5:49:37:4c:17:
         3e:17:16:01:37:5c:2e:3e:42:66:7e:31:23:92:4e:bd:7f:03:
         fb:2d:32:b4:3a:6d:f8:6d:44:28:4d:8e:96:fa:7b:75:30:2b:
         f3:a5:1e:17:63:ac:3c:1d:b8:4e:c3:02:a8:10:cf:d2:94:20:
         a1:aa:00:fd:32:99:57:d3
-----BEGIN CERTIFICATE-----
MIIFXDCCA0SgAwIBAgIRAK/SDdAFLr9lDwTb+eJpHQwwDQYJKoZIhvcNAQELBQAw
GTEXMBUGA1UEAwwOdnBuLmplbmtpbnMuaW8wHhcNMjIxMjA5MTQ0MTUzWhcNMjUx
MTIzMTQ0MTUzWjASMRAwDgYDVQQDDAdobGVtZXVyMIICIjANBgkqhkiG9w0BAQEF
AAOCAg8AMIICCgKCAgEA20cqTbeHyEJj8aPYKQTbD4t85G9M9Jvj6TkbWK/eXDh2
DcW3F3MdfxZrH1PQVwfJq3im84CgE0FuhVWvIzbbP29UsQFelv2s0WM7sUi8NKMs
rvc7dim1r22TJqWxCK5KccwAaXOpUnuNQ8snUHh81MiqBMcRfpesgf5XndPzIg6U
Nsl4XGZiZsG++nHgz04GkBcTLGGeuqAldah1PPyV/bVHLq9OhXZLwiWWa5VwQIkk
frIbVCK4I2dk++tBdB984wRgYCpDwWB2yorsk6leqyWuYYDmKuAbkhaO902vcD7Y
Yh3FLZ9zWFQ+SFFF+vfEOKvw8G0WLMe/1GxLctc7ez6GnYh7dX5+cvJNJeg+B2Pp
lWMXT+EzLDZ8shR8N9QK2IwHh4iu1M4d1dB82zNBS73ds4glPd1rHbaY6yiJX6aH
0duUK209lqyYlZRsJEZF1RjSgfrWDDDXoHpZZAvvm0/vcJ0iDQoTtnXwxJQekdqy
dCcTGoJvhAei6VSmlHxaO7IFXYhCH+zpvzu9s3EPgHGtwx3TKpX9UtFK2uFuIdTP
GWvP+jf9f3FvANpCdLXzGQnYjHobnYnCEU0nF0V8DlG8389HPnbmYF/5lxXD/0Z+
E88IP1amJNimy+/gvuGOce02dTdiAOJY3BDJMiaiXoNgEFZnmoAMRkLh0XjyH78C
AwEAAaOBpTCBojAJBgNVHRMEAjAAMB0GA1UdDgQWBBQOP127EUzwiJ549Z1EI82N
lzBZFDBUBgNVHSMETTBLgBSHp8V1NwsUbL9GBIwqUuld2lHc5qEdpBswGTEXMBUG
A1UEAwwOdnBuLmplbmtpbnMuaW+CFAgBqm0bMUBPe5x1VFR4tTZlO3yzMBMGA1Ud
JQQMMAoGCCsGAQUFBwMCMAsGA1UdDwQEAwIHgDANBgkqhkiG9w0BAQsFAAOCAgEA
dM9FzIlCLRh3Akg8aNVmAqXOImAhomwWFYQm+fLMcsOHTtTr/hRllGPCzmzbaNS/
jqR7SCizUFhYqiC1/KLp3V7y9HX7ROgx531j7iQ56LML+QMw2pAOjq5VyTRbbu9u
POVwU3pDI8eI9+WMuwGw57ZufKiYGnEfwiAN7u0k89yynZnvyb1QinrmrEk1KA+2
4EvhpxTWZemqvvPBE7iT6I8pmBtAnv8Ob3NM1LrOIjwEgUF+FySR0E8uN/r5pSow
FQFqRZPX5Dv2uGQGN76meS+wmq6XE+TBPIzyNEG/1k2bNs7oC8eRwLYFDeqBSvM/
7nzlt9G9lacr6yau48tnslU9A8NiKZN5168Yi0eIzQNA2gd2eZ0dOicx9m9qkFbM
63LIl7Phx1BZ5axr0KFxiKXI9u0grI0o1Faus8TSHc/vxTmd7r+Sw43r521ATSmY
jMUldM2+i2jWDA6CgkWK9z4Ai1R9o5y5A/Tzy9ra1Qidalp+7TZGJ5HzhTllibLw
AuZS/h9QBBe7yBycGOCgyKga+5sQmzC1RFFm9lbmnusH7LhZknJIhMaa0RVcc5nV
Y4N/1zFGb7/eY7DC1eVJN0wXPhcWATdcLj5CZn4xI5JOvX8D+y0ytDpt+G1EKE2O
lvp7dTAr86UeF2OsPB24TsMCqBDP0pQgoaoA/TKZV9M=
-----END CERTIFICATE-----
