Certificate:
    Data:
        Version: 3 (0x2)
        Serial Number:
            b2:2f:db:7d:ad:e3:44:55:ff:ed:04:6a:48:1b:4c:c4
        Signature Algorithm: sha256WithRSAEncryption
        Issuer: CN=vpn.jenkins.io
        Validity
            Not Before: Sep 15 16:44:35 2025 GMT
            Not After : Aug 30 16:44:35 2028 GMT
        Subject: CN=hlemeur
        Subject Public Key Info:
            Public Key Algorithm: rsaEncryption
                Public-Key: (4096 bit)
                Modulus:
                    00:96:df:0f:cc:4c:49:bc:a1:33:b7:00:99:59:90:
                    6b:a7:27:0b:ea:25:78:f7:f9:ca:89:a1:dc:b5:13:
                    aa:01:b5:9c:9f:e2:c1:3d:5b:57:fb:fd:4a:2e:b4:
                    f3:80:1f:40:81:d7:c3:c6:d8:61:62:5f:92:62:b0:
                    a5:ac:9d:b5:64:4f:d3:ac:c7:6b:cf:fb:2c:57:79:
                    c1:a9:7d:f2:b1:7d:a6:37:db:38:bd:b6:ea:d8:19:
                    61:60:6c:d8:db:71:2b:1f:8e:fc:d9:68:51:d9:e0:
                    82:51:c4:4a:18:ca:4c:0e:d5:98:ac:7b:f9:6e:8d:
                    e4:e1:90:3b:0b:25:16:9b:aa:7b:57:90:fc:66:3b:
                    fb:54:f6:b1:7b:43:b4:cb:a0:1b:62:27:fd:c0:f2:
                    d8:7a:3d:1c:4e:8c:b3:a7:e4:99:2c:9b:a4:95:1e:
                    91:6d:b9:b7:37:dc:99:72:c9:49:98:3c:ef:2d:0e:
                    c3:ff:07:46:f8:ca:35:df:bf:17:d5:18:22:c5:c7:
                    af:2a:71:d8:e7:2c:15:76:b0:8b:40:e2:a0:89:c9:
                    8f:dd:bd:47:2b:20:a5:45:b5:1b:f0:36:0d:91:4a:
                    7f:37:89:10:90:a8:37:83:af:7e:d2:52:a9:60:1a:
                    06:41:29:7f:6b:e5:2e:e2:44:ea:7c:8a:ad:96:f4:
                    2b:bb:8f:09:04:fb:64:f9:9b:e5:69:8b:ef:a4:ed:
                    6c:83:fd:2f:b8:61:8a:a8:b4:e2:6e:a4:fb:61:19:
                    6c:55:45:b2:49:eb:31:4f:aa:d7:30:40:25:75:a7:
                    b7:aa:72:1f:b6:be:06:e6:52:91:4b:b0:9b:ce:25:
                    fc:a8:e9:2c:06:f4:e6:53:89:03:9a:42:95:2b:d5:
                    08:97:9e:ed:42:78:32:a7:3a:0f:c1:dd:f7:3b:c1:
                    0e:90:bb:29:6a:2c:87:8c:f0:c7:a0:06:dd:61:a5:
                    5f:7f:0f:32:ce:c4:4d:ad:98:af:fa:ba:e4:ed:10:
                    76:2d:83:92:81:45:63:a3:7a:24:e8:fc:cc:c2:77:
                    c6:84:8f:71:0a:39:5b:3f:e5:f8:8d:97:15:2a:bb:
                    2d:02:11:fa:e8:c8:73:1f:35:b9:18:d0:03:86:14:
                    8d:ec:f3:eb:68:2d:7d:d4:95:38:7e:dd:5a:58:71:
                    d5:c3:df:82:45:e9:f0:f9:a6:f9:e1:bd:73:cb:99:
                    ff:2e:da:d0:b4:1f:82:96:e8:3b:bc:76:80:0c:e5:
                    ef:0b:f8:12:a7:ab:e9:0b:e6:e6:65:25:71:d5:c4:
                    c1:e7:d1:fc:97:28:ef:bd:4e:9b:48:36:19:b2:cd:
                    53:88:90:71:83:e6:67:f3:1b:a4:7e:eb:d2:c6:2f:
                    d7:d4:39
                Exponent: 65537 (0x10001)
        X509v3 extensions:
            X509v3 Basic Constraints: 
                CA:FALSE
            X509v3 Subject Key Identifier: 
                E6:63:1F:D2:4D:FA:E6:A0:71:86:06:3A:1B:D2:09:A4:34:90:BF:B7
            X509v3 Authority Key Identifier: 
                keyid:87:A7:C5:75:37:0B:14:6C:BF:46:04:8C:2A:52:E9:5D:DA:51:DC:E6
                DirName:/CN=vpn.jenkins.io
                serial:08:01:AA:6D:1B:31:40:4F:7B:9C:75:54:54:78:B5:36:65:3B:7C:B3
            X509v3 Extended Key Usage: 
                TLS Web Client Authentication
            X509v3 Key Usage: 
                Digital Signature
    Signature Algorithm: sha256WithRSAEncryption
    Signature Value:
        28:c3:30:b3:39:db:2a:4e:c8:47:22:26:f6:c4:18:79:80:0b:
        4a:88:d5:ba:c2:70:45:06:b7:51:d7:7b:26:0b:2b:57:b6:ce:
        8b:78:28:1b:fe:5a:be:6a:10:46:fd:08:65:ad:f1:d3:a5:eb:
        82:4e:bf:7d:23:99:99:09:9a:f4:8c:9c:db:0d:d1:3d:95:66:
        0a:80:4b:85:b0:b3:15:57:98:b1:c1:a5:6a:50:e4:cf:7c:ee:
        67:1a:1a:02:63:f0:14:15:52:2b:d8:21:f1:b9:64:87:ce:c1:
        82:5f:c3:c3:17:2e:cd:f2:7b:4a:47:cd:c9:94:76:87:c5:e2:
        94:ec:31:25:42:2b:fa:a1:91:17:a8:60:38:6d:2b:96:97:fc:
        8b:c4:84:9a:a6:1d:cc:56:03:30:a7:7f:3f:09:0e:01:4a:c9:
        5f:ff:22:d7:6f:e6:18:d0:4d:29:c1:b2:2a:1f:af:00:b8:0c:
        aa:96:29:60:49:f2:1a:ee:b2:fa:3d:cf:ea:0b:30:5b:17:3a:
        5a:66:50:c8:cb:3b:30:8c:cc:d3:80:7f:fd:a3:94:9d:5b:89:
        ff:a0:ff:7a:cd:9f:b2:e1:3f:99:b8:72:ef:4a:49:17:dc:33:
        97:40:35:cc:c6:3b:df:48:8f:f6:ab:27:ee:08:98:d9:b5:5a:
        9f:73:99:83:07:d2:89:b1:91:f8:ad:27:fa:3b:93:f3:44:f9:
        0b:47:cc:24:f0:ab:e6:79:cf:12:ff:fc:4e:48:10:88:cb:9b:
        e1:4a:4b:53:fb:0e:4e:e0:a2:6f:35:cb:2f:6b:ad:e2:23:44:
        12:1a:13:f3:58:8d:e4:4d:b7:6a:4e:1d:14:53:7f:d2:04:a5:
        52:6f:9a:b1:36:38:1c:44:87:01:ba:25:c0:d7:09:64:ae:eb:
        ce:fa:87:44:50:ca:8c:27:ee:80:7a:aa:7b:1c:8b:80:96:91:
        63:e9:3e:4e:87:ad:42:fb:73:a7:64:67:17:ef:ae:92:b6:6f:
        fc:49:d5:28:e9:a9:99:01:8a:4c:6d:73:84:ee:5e:35:6a:60:
        f9:07:09:ef:cd:05:ee:2c:5d:63:c3:f0:36:6b:ff:83:6f:1f:
        c8:8c:63:ce:f1:a4:c2:4b:74:e7:c7:47:ff:9e:f2:23:93:1e:
        80:cd:ed:05:e8:73:10:63:27:34:c5:cc:0a:43:3f:08:d8:3f:
        97:af:3e:6e:99:b9:83:f7:e7:08:1d:3d:c6:e4:0b:37:70:13:
        bd:c2:14:9c:e9:3c:23:71:a3:12:59:51:8f:b7:6b:08:d9:36:
        c2:8d:a3:fb:b6:95:66:ac:ae:49:17:09:b4:08:5f:53:c7:01:
        59:57:f6:87:0c:43:12:25
-----BEGIN CERTIFICATE-----
MIIFXDCCA0SgAwIBAgIRALIv232t40RV/+0EakgbTMQwDQYJKoZIhvcNAQELBQAw
GTEXMBUGA1UEAwwOdnBuLmplbmtpbnMuaW8wHhcNMjUwOTE1MTY0NDM1WhcNMjgw
ODMwMTY0NDM1WjASMRAwDgYDVQQDDAdobGVtZXVyMIICIjANBgkqhkiG9w0BAQEF
AAOCAg8AMIICCgKCAgEAlt8PzExJvKEztwCZWZBrpycL6iV49/nKiaHctROqAbWc
n+LBPVtX+/1KLrTzgB9AgdfDxthhYl+SYrClrJ21ZE/TrMdrz/ssV3nBqX3ysX2m
N9s4vbbq2BlhYGzY23ErH4782WhR2eCCUcRKGMpMDtWYrHv5bo3k4ZA7CyUWm6p7
V5D8Zjv7VPaxe0O0y6AbYif9wPLYej0cToyzp+SZLJuklR6Rbbm3N9yZcslJmDzv
LQ7D/wdG+Mo1378X1RgixcevKnHY5ywVdrCLQOKgicmP3b1HKyClRbUb8DYNkUp/
N4kQkKg3g69+0lKpYBoGQSl/a+Uu4kTqfIqtlvQru48JBPtk+ZvlaYvvpO1sg/0v
uGGKqLTibqT7YRlsVUWySesxT6rXMEAldae3qnIftr4G5lKRS7CbziX8qOksBvTm
U4kDmkKVK9UIl57tQngypzoPwd33O8EOkLspaiyHjPDHoAbdYaVffw8yzsRNrZiv
+rrk7RB2LYOSgUVjo3ok6PzMwnfGhI9xCjlbP+X4jZcVKrstAhH66MhzHzW5GNAD
hhSN7PPraC191JU4ft1aWHHVw9+CRenw+ab54b1zy5n/LtrQtB+Clug7vHaADOXv
C/gSp6vpC+bmZSVx1cTB59H8lyjvvU6bSDYZss1TiJBxg+Zn8xukfuvSxi/X1DkC
AwEAAaOBpTCBojAJBgNVHRMEAjAAMB0GA1UdDgQWBBTmYx/STfrmoHGGBjob0gmk
NJC/tzBUBgNVHSMETTBLgBSHp8V1NwsUbL9GBIwqUuld2lHc5qEdpBswGTEXMBUG
A1UEAwwOdnBuLmplbmtpbnMuaW+CFAgBqm0bMUBPe5x1VFR4tTZlO3yzMBMGA1Ud
JQQMMAoGCCsGAQUFBwMCMAsGA1UdDwQEAwIHgDANBgkqhkiG9w0BAQsFAAOCAgEA
KMMwsznbKk7IRyIm9sQYeYALSojVusJwRQa3Udd7JgsrV7bOi3goG/5avmoQRv0I
Za3x06Xrgk6/fSOZmQma9Iyc2w3RPZVmCoBLhbCzFVeYscGlalDkz3zuZxoaAmPw
FBVSK9gh8blkh87Bgl/DwxcuzfJ7SkfNyZR2h8XilOwxJUIr+qGRF6hgOG0rlpf8
i8SEmqYdzFYDMKd/PwkOAUrJX/8i12/mGNBNKcGyKh+vALgMqpYpYEnyGu6y+j3P
6gswWxc6WmZQyMs7MIzM04B//aOUnVuJ/6D/es2fsuE/mbhy70pJF9wzl0A1zMY7
30iP9qsn7giY2bVan3OZgwfSibGR+K0n+juT80T5C0fMJPCr5nnPEv/8TkgQiMub
4UpLU/sOTuCibzXLL2ut4iNEEhoT81iN5E23ak4dFFN/0gSlUm+asTY4HESHAbol
wNcJZK7rzvqHRFDKjCfugHqqexyLgJaRY+k+ToetQvtzp2RnF++ukrZv/EnVKOmp
mQGKTG1zhO5eNWpg+QcJ780F7ixdY8PwNmv/g28fyIxjzvGkwkt058dH/57yI5Me
gM3tBehzEGMnNMXMCkM/CNg/l68+bpm5g/fnCB09xuQLN3ATvcIUnOk8I3GjEllR
j7drCNk2wo2j+7aVZqyuSRcJtAhfU8cBWVf2hwxDEiU=
-----END CERTIFICATE-----
