Certificate:
    Data:
        Version: 3 (0x2)
        Serial Number:
            b6:44:ea:77:75:38:f5:34:c4:a5:0a:ac:e5:90:45:4a
        Signature Algorithm: sha256WithRSAEncryption
        Issuer: CN=cert.vpn.jenkins.io
        Validity
            Not Before: Mar 12 14:16:25 2019 GMT
            Not After : Feb 24 14:16:25 2022 GMT
        Subject: CN=olblak
        Subject Public Key Info:
            Public Key Algorithm: rsaEncryption
                RSA Public-Key: (4096 bit)
                Modulus:
                    00:ea:7c:6d:75:e6:ad:a9:0e:ed:c1:35:d8:7e:b4:
                    10:9a:4a:8d:3e:ea:05:21:05:e1:99:e3:c7:8d:fe:
                    80:6f:11:84:c1:b1:20:ab:2b:5f:54:5d:01:0c:b0:
                    d1:06:5f:6d:21:5f:8c:d0:df:39:56:b2:72:b0:aa:
                    e1:5f:5f:46:8c:20:ce:6a:a3:b5:44:f4:32:5d:69:
                    6a:60:70:eb:c8:1a:f8:f6:8e:40:6c:9b:3d:18:94:
                    c6:77:c2:2e:a5:58:5c:bd:03:6e:f0:c4:53:ab:b9:
                    5a:50:9a:4c:57:97:1c:79:03:93:80:59:67:9c:64:
                    94:6e:d3:7c:87:cb:a5:62:1a:2c:bc:2a:77:e1:62:
                    ec:35:5a:a7:49:2f:5a:39:c6:bb:11:5f:c8:67:80:
                    1e:02:15:36:94:ff:85:7d:9d:6e:31:ce:74:02:45:
                    cf:e4:b3:2b:3a:04:88:a3:4b:01:2a:9c:76:2b:3a:
                    8d:fc:cd:14:8c:c0:d1:a2:52:41:4a:b3:bb:f6:34:
                    6a:d5:a5:41:1a:89:e3:16:03:c6:78:66:47:87:5e:
                    bf:1d:75:e2:67:ab:f0:22:67:fd:5f:03:1d:1f:24:
                    e8:e6:55:60:a4:9d:14:60:e7:01:ee:5f:84:b3:6b:
                    7a:8f:e1:a3:75:af:35:bf:17:85:46:a0:a8:52:9f:
                    91:63:76:82:1d:5e:e9:2c:52:0b:0a:6e:ac:84:a1:
                    74:30:43:1c:29:ce:43:40:78:ef:e9:c4:e3:96:e5:
                    c7:a2:f2:10:a0:92:b5:ef:d3:f0:e3:79:15:43:33:
                    a9:bc:93:2f:af:64:39:e4:23:f4:7a:5f:c5:04:19:
                    33:93:90:ef:ff:53:fc:76:37:38:08:f1:ef:44:1a:
                    68:b8:26:d1:27:b5:6e:88:ea:4d:4f:74:fa:11:0d:
                    bd:c8:c0:89:b8:fc:3f:49:f2:4a:9b:b9:ae:70:1f:
                    67:d7:20:9f:d9:ec:cc:73:f8:5e:4d:3e:84:9a:7e:
                    f2:1a:61:87:7e:81:77:36:49:49:81:67:69:f6:50:
                    f1:de:c9:14:60:fc:87:b7:7a:d9:8c:02:b2:a5:27:
                    5b:bd:d0:7a:89:9b:fd:db:7e:82:16:27:c2:2f:10:
                    7e:c2:a5:1d:1f:bb:f9:6f:f6:b3:5d:52:e7:31:14:
                    34:95:10:c6:24:e2:7e:4f:ae:f6:58:13:d5:45:31:
                    85:9f:d3:dc:be:88:f6:b4:bc:59:4f:af:10:c2:63:
                    e6:30:4a:dc:78:2f:5e:f5:db:9d:6b:d3:ce:6a:5b:
                    58:a4:cc:be:80:1d:17:5f:94:97:ba:ae:10:98:bd:
                    48:ec:e5:70:64:2e:9b:a0:2b:6b:0d:5d:4c:8b:f5:
                    b7:8d:11
                Exponent: 65537 (0x10001)
        X509v3 extensions:
            X509v3 Basic Constraints: 
                CA:FALSE
            X509v3 Subject Key Identifier: 
                70:CA:FC:00:23:71:12:FA:1F:B7:DB:5B:0A:E0:FD:AD:7D:3D:AA:36
            X509v3 Authority Key Identifier: 
                keyid:37:3A:6A:38:F9:ED:57:DD:E6:49:89:22:8E:62:EE:1A:77:74:D2:21
                DirName:/CN=cert.vpn.jenkins.io
                serial:2C:76:6D:8B:24:C7:DA:61:FF:37:0F:C4:DC:B8:AF:59:46:1A:E6:1E

            X509v3 Extended Key Usage: 
                TLS Web Client Authentication
            X509v3 Key Usage: 
                Digital Signature
    Signature Algorithm: sha256WithRSAEncryption
         bb:ab:cb:38:24:7e:9c:fb:2f:9c:5b:50:df:dd:6f:36:de:0b:
         35:09:a0:c3:f7:38:75:19:ea:22:d0:e9:cc:73:a6:cf:25:9c:
         6d:b7:97:53:df:85:7e:c9:77:2e:c3:03:bb:87:83:8e:73:81:
         f2:9c:3b:6e:83:0b:0e:ec:e3:1b:f2:1b:78:bb:09:bc:6f:4f:
         61:22:dd:3f:60:a8:32:f4:d0:b7:b3:31:be:37:2f:d8:da:37:
         68:f2:49:99:90:9c:0a:7a:83:8e:e8:32:e0:50:6d:58:33:94:
         53:86:16:f6:d7:e2:f9:7b:83:e4:ed:4d:fe:68:cb:6a:1e:30:
         19:e0:fd:dd:7f:ba:31:80:4a:52:cf:ad:3c:6d:9d:8d:61:90:
         7d:99:60:38:43:21:08:64:8d:ab:6e:67:a4:0a:be:b7:c5:db:
         c0:ad:8f:80:03:b7:45:07:2e:0a:26:9e:52:9b:79:93:dd:3f:
         60:40:c4:76:18:a8:43:1f:29:53:b7:f8:21:59:9f:4a:05:1b:
         7a:c0:c3:2c:b1:8b:43:e3:5d:0d:d0:5b:32:bf:f5:54:73:fb:
         f3:c0:d6:05:1e:f1:76:fd:37:54:02:51:60:4c:99:ef:bd:92:
         5f:e1:b8:8a:62:d1:b6:05:1d:17:f8:d2:34:25:f9:f5:ac:1f:
         3a:1b:4a:72:12:80:6b:d2:74:9f:7a:26:e1:ac:34:3b:af:83:
         27:80:1a:e7:57:8d:a6:5a:91:ca:fd:da:7f:6f:d2:2b:26:09:
         25:79:dd:0d:9c:40:3e:01:78:65:92:90:ac:0a:e1:bb:f7:43:
         5b:62:ff:8f:ad:9b:2d:44:a2:22:2c:82:a4:4f:2a:33:59:2b:
         fa:cc:3e:72:da:57:7b:90:3d:44:be:f7:13:e7:be:09:05:8a:
         cd:5a:7b:45:69:e6:8a:5d:44:bd:e6:9a:6a:fd:ac:b9:2e:5b:
         f7:74:49:46:e8:23:b5:db:a8:4d:f4:1d:b1:c3:ca:2a:c4:97:
         15:81:47:55:f9:66:c4:48:e7:d6:c5:a3:22:ee:7e:f7:9d:51:
         48:51:1a:b4:b8:85:ef:8c:fd:4d:4d:98:76:cf:e7:02:26:b3:
         0d:c4:fe:0f:3e:54:c5:59:15:fe:51:93:1d:76:1b:dc:ed:7b:
         64:2e:e6:fb:91:8f:30:25:02:8d:3a:d7:be:9b:d6:18:30:ed:
         5c:e1:70:c9:3c:fa:8a:8d:77:07:d0:ce:46:25:76:b9:50:7a:
         c2:a2:48:a4:71:0a:ec:00:fd:76:14:32:bc:cf:b4:4e:37:69:
         29:2a:f3:b4:6b:de:b9:ab:84:4a:f2:23:23:37:f4:27:ea:3c:
         4d:90:74:7c:6a:e1:1d:2f
-----BEGIN CERTIFICATE-----
MIIFZTCCA02gAwIBAgIRALZE6nd1OPU0xKUKrOWQRUowDQYJKoZIhvcNAQELBQAw
HjEcMBoGA1UEAwwTY2VydC52cG4uamVua2lucy5pbzAeFw0xOTAzMTIxNDE2MjVa
Fw0yMjAyMjQxNDE2MjVaMBExDzANBgNVBAMMBm9sYmxhazCCAiIwDQYJKoZIhvcN
AQEBBQADggIPADCCAgoCggIBAOp8bXXmrakO7cE12H60EJpKjT7qBSEF4Znjx43+
gG8RhMGxIKsrX1RdAQyw0QZfbSFfjNDfOVaycrCq4V9fRowgzmqjtUT0Ml1pamBw
68ga+PaOQGybPRiUxnfCLqVYXL0DbvDEU6u5WlCaTFeXHHkDk4BZZ5xklG7TfIfL
pWIaLLwqd+Fi7DVap0kvWjnGuxFfyGeAHgIVNpT/hX2dbjHOdAJFz+SzKzoEiKNL
ASqcdis6jfzNFIzA0aJSQUqzu/Y0atWlQRqJ4xYDxnhmR4devx114mer8CJn/V8D
HR8k6OZVYKSdFGDnAe5fhLNreo/ho3WvNb8XhUagqFKfkWN2gh1e6SxSCwpurISh
dDBDHCnOQ0B47+nE45blx6LyEKCSte/T8ON5FUMzqbyTL69kOeQj9HpfxQQZM5OQ
7/9T/HY3OAjx70QaaLgm0Se1bojqTU90+hENvcjAibj8P0nySpu5rnAfZ9cgn9ns
zHP4Xk0+hJp+8hphh36BdzZJSYFnafZQ8d7JFGD8h7d62YwCsqUnW73Qeomb/dt+
ghYnwi8QfsKlHR+7+W/2s11S5zEUNJUQxiTifk+u9lgT1UUxhZ/T3L6I9rS8WU+v
EMJj5jBK3HgvXvXbnWvTzmpbWKTMvoAdF1+Ul7quEJi9SOzlcGQum6Araw1dTIv1
t40RAgMBAAGjgaowgacwCQYDVR0TBAIwADAdBgNVHQ4EFgQUcMr8ACNxEvoft9tb
CuD9rX09qjYwWQYDVR0jBFIwUIAUNzpqOPntV93mSYkijmLuGnd00iGhIqQgMB4x
HDAaBgNVBAMME2NlcnQudnBuLmplbmtpbnMuaW+CFCx2bYskx9ph/zcPxNy4r1lG
GuYeMBMGA1UdJQQMMAoGCCsGAQUFBwMCMAsGA1UdDwQEAwIHgDANBgkqhkiG9w0B
AQsFAAOCAgEAu6vLOCR+nPsvnFtQ391vNt4LNQmgw/c4dRnqItDpzHOmzyWcbbeX
U9+Ffsl3LsMDu4eDjnOB8pw7boMLDuzjG/IbeLsJvG9PYSLdP2CoMvTQt7Mxvjcv
2No3aPJJmZCcCnqDjugy4FBtWDOUU4YW9tfi+XuD5O1N/mjLah4wGeD93X+6MYBK
Us+tPG2djWGQfZlgOEMhCGSNq25npAq+t8XbwK2PgAO3RQcuCiaeUpt5k90/YEDE
dhioQx8pU7f4IVmfSgUbesDDLLGLQ+NdDdBbMr/1VHP788DWBR7xdv03VAJRYEyZ
772SX+G4imLRtgUdF/jSNCX59awfOhtKchKAa9J0n3om4aw0O6+DJ4Aa51eNplqR
yv3af2/SKyYJJXndDZxAPgF4ZZKQrArhu/dDW2L/j62bLUSiIiyCpE8qM1kr+sw+
ctpXe5A9RL73E+e+CQWKzVp7RWnmil1Eveaaav2suS5b93RJRugjtduoTfQdscPK
KsSXFYFHVflmxEjn1sWjIu5+951RSFEatLiF74z9TU2Yds/nAiazDcT+Dz5UxVkV
/lGTHXYb3O17ZC7m+5GPMCUCjTrXvpvWGDDtXOFwyTz6io13B9DORiV2uVB6wqJI
pHEK7AD9dhQyvM+0TjdpKSrztGveuauESvIjIzf0J+o8TZB0fGrhHS8=
-----END CERTIFICATE-----
