Certificate:
    Data:
        Version: 3 (0x2)
        Serial Number:
            bf:51:e2:76:e7:97:4e:c3:cf:20:4d:c4:a5:51:ff:de
        Signature Algorithm: sha256WithRSAEncryption
        Issuer: CN=vpn.jenkins.io
        Validity
            Not Before: Feb 17 13:32:00 2025 GMT
            Not After : Feb  2 13:32:00 2028 GMT
        Subject: CN=danielbeck
        Subject Public Key Info:
            Public Key Algorithm: rsaEncryption
                Public-Key: (4096 bit)
                Modulus:
                    00:a8:81:e6:fc:c7:30:2c:70:37:43:7c:50:f0:f1:
                    1c:32:91:f9:ff:5a:0e:7a:2b:dd:d8:5b:bc:f8:c0:
                    4d:19:d8:c6:ff:b1:01:a2:01:51:1e:f3:53:9c:51:
                    9c:0b:84:e9:29:d3:f7:15:37:ac:e2:3c:91:b6:a3:
                    6e:7e:6e:63:2d:22:dd:ad:50:52:f4:e8:f0:b2:b3:
                    7a:70:c3:c5:5b:e4:4c:65:36:62:70:01:a3:e3:f9:
                    77:94:ae:db:e1:62:f7:76:6b:f3:05:4c:b0:26:6e:
                    32:35:5c:44:b4:5b:40:b1:96:e0:d4:99:bd:ec:e7:
                    7d:68:bd:32:50:39:9a:3c:ef:63:24:9f:b2:86:6b:
                    3b:76:ff:0e:28:3c:3b:58:4d:2b:2a:6b:6a:1b:1d:
                    ac:38:e1:64:a7:49:28:bd:60:61:2f:85:a5:b5:39:
                    2b:bd:6b:88:34:33:56:5e:e8:d7:7a:69:37:ee:35:
                    e6:62:ab:30:8b:b7:74:f8:37:96:4d:50:bb:a3:04:
                    91:4a:3e:d1:d3:40:ac:22:48:12:a3:20:6b:de:d8:
                    91:c8:8e:46:b4:c0:14:b4:c2:25:b3:21:3b:98:62:
                    04:49:75:63:d9:51:61:e8:2e:61:47:f5:e8:c7:98:
                    5b:4c:22:be:78:9a:b8:ef:38:e5:d5:cc:b2:c8:fb:
                    ad:bb:52:b5:24:bc:b8:50:11:a4:6a:46:c7:70:e2:
                    9d:7a:21:d1:ae:e0:01:28:a2:9a:8c:6a:3c:23:7d:
                    d7:b5:96:cc:88:89:b3:34:df:df:d3:81:a8:d1:35:
                    1c:45:62:ae:ba:a1:93:22:ed:c4:61:1d:c8:6c:9f:
                    b7:85:c8:8b:cb:f9:2f:70:a9:60:87:26:ea:66:63:
                    c6:b4:67:ec:0f:ee:8a:61:a1:24:62:c0:89:d4:f6:
                    62:2f:a1:28:58:fb:08:2e:11:a7:ee:79:30:ef:17:
                    5e:6e:03:ce:fa:8d:cf:23:26:d3:e0:3a:06:e3:fc:
                    81:0a:9c:45:02:75:88:99:a5:57:43:5c:e2:0f:49:
                    8f:c8:6b:b0:a7:17:77:69:a7:21:df:f3:55:65:2d:
                    3f:61:02:90:09:6b:b1:45:5c:ab:20:b5:8f:b7:8e:
                    cf:9b:73:31:25:32:1e:02:e3:d2:e5:1d:5a:54:49:
                    68:3a:20:36:83:73:66:32:4a:af:0b:25:2d:ce:08:
                    b9:c9:71:d6:3e:bd:30:35:c2:f7:a0:7f:df:75:82:
                    1e:52:02:34:ec:c6:76:fd:2e:7c:e1:09:ce:81:21:
                    87:91:3a:2e:34:a9:40:27:7d:f5:a9:35:c4:e4:40:
                    e3:a6:84:0b:6e:0e:35:9c:80:e3:67:41:18:f9:73:
                    74:dd:5d
                Exponent: 65537 (0x10001)
        X509v3 extensions:
            X509v3 Basic Constraints: 
                CA:FALSE
            X509v3 Subject Key Identifier: 
                23:22:F4:A9:73:AE:07:3A:59:8F:34:B6:28:DB:72:AC:F9:C1:6F:57
            X509v3 Authority Key Identifier: 
                keyid:87:A7:C5:75:37:0B:14:6C:BF:46:04:8C:2A:52:E9:5D:DA:51:DC:E6
                DirName:/CN=vpn.jenkins.io
                serial:08:01:AA:6D:1B:31:40:4F:7B:9C:75:54:54:78:B5:36:65:3B:7C:B3
            X509v3 Extended Key Usage: 
                TLS Web Client Authentication
            X509v3 Key Usage: 
                Digital Signature
    Signature Algorithm: sha256WithRSAEncryption
    Signature Value:
        69:19:ef:f3:3d:0d:55:3d:e0:4a:76:be:0f:87:09:4b:3e:69:
        91:5a:f6:1c:30:81:20:a3:a9:95:27:ab:50:16:07:01:e0:0c:
        5f:a4:7f:0e:21:f1:cc:92:fe:e7:61:59:a4:4f:f8:36:e2:55:
        34:25:ac:f6:f0:8a:5c:ae:16:19:f1:ba:9e:aa:47:60:d6:b6:
        b9:f4:26:26:38:69:15:c6:3a:24:c3:3e:9b:bc:9c:0b:9c:cf:
        84:d9:2e:0a:08:1b:c7:47:c7:64:6b:f5:ca:0a:74:d2:b7:02:
        b8:3f:a6:31:ed:1c:68:74:26:0c:d3:37:79:a2:2c:36:5a:78:
        44:77:97:6b:9a:ee:dd:9a:96:51:8c:7e:fa:48:2c:e6:ba:96:
        a3:cc:ee:7b:b2:45:61:69:f0:2a:31:67:66:a6:57:c2:2b:46:
        c9:33:dc:f8:07:04:3c:8a:50:75:8e:d9:b3:af:5e:df:bf:70:
        7b:2f:d6:6d:e8:3e:92:dc:6e:b7:ce:ac:52:e2:6f:8c:e4:bd:
        8a:fe:06:df:3c:1b:1f:e7:04:ea:6c:95:67:73:6d:4f:53:85:
        9d:cb:52:0d:7c:9b:4d:cc:5b:20:2c:b7:87:d5:e5:80:d2:4a:
        df:3a:a8:44:a6:6d:fe:14:20:b3:33:26:ac:25:e3:28:6d:39:
        49:b5:6e:d6:45:46:95:4f:29:88:ed:c2:78:32:69:36:ed:41:
        33:1b:8c:88:ae:c0:68:dc:af:df:02:b2:88:d0:c5:13:c9:12:
        07:08:3d:9b:cc:5e:15:3b:dd:c8:83:e7:d4:e0:2a:d9:22:4c:
        68:bf:ff:fd:90:90:18:9b:89:9c:59:ff:42:f8:1f:9b:7c:35:
        8c:18:20:86:e1:df:56:5c:39:d6:ba:cf:1d:e0:b9:8b:a2:29:
        42:0d:0b:58:a8:54:ef:42:0d:26:cb:f3:28:a8:d4:4d:c6:a8:
        42:c1:76:7d:19:52:63:13:f4:31:0d:86:a2:04:fe:33:33:2f:
        f0:05:b5:47:00:5b:6c:42:69:7f:78:42:a2:87:d2:67:a6:d8:
        c3:41:8c:d7:39:c4:0f:34:48:b7:f3:1d:ec:58:9c:b6:a0:76:
        e6:d4:83:06:4e:54:57:ac:a0:20:fd:df:f0:cc:34:b3:f5:6e:
        dc:c6:33:01:ca:b1:cf:46:3a:4a:ea:8c:07:33:cf:46:a7:4d:
        91:b7:33:57:06:a8:33:c3:5d:63:04:84:dd:51:e4:65:8c:d9:
        e6:7c:1e:7f:f5:a0:53:3b:9c:bb:f0:28:e4:e6:25:f7:8d:52:
        87:38:e0:57:c0:2f:4b:2f:a1:a8:f1:01:06:83:af:6e:22:b3:
        8e:e3:b3:9f:95:30:14:ab
-----BEGIN CERTIFICATE-----
MIIFXzCCA0egAwIBAgIRAL9R4nbnl07DzyBNxKVR/94wDQYJKoZIhvcNAQELBQAw
GTEXMBUGA1UEAwwOdnBuLmplbmtpbnMuaW8wHhcNMjUwMjE3MTMzMjAwWhcNMjgw
MjAyMTMzMjAwWjAVMRMwEQYDVQQDDApkYW5pZWxiZWNrMIICIjANBgkqhkiG9w0B
AQEFAAOCAg8AMIICCgKCAgEAqIHm/McwLHA3Q3xQ8PEcMpH5/1oOeivd2Fu8+MBN
GdjG/7EBogFRHvNTnFGcC4TpKdP3FTes4jyRtqNufm5jLSLdrVBS9OjwsrN6cMPF
W+RMZTZicAGj4/l3lK7b4WL3dmvzBUywJm4yNVxEtFtAsZbg1Jm97Od9aL0yUDma
PO9jJJ+yhms7dv8OKDw7WE0rKmtqGx2sOOFkp0kovWBhL4WltTkrvWuINDNWXujX
emk37jXmYqswi7d0+DeWTVC7owSRSj7R00CsIkgSoyBr3tiRyI5GtMAUtMIlsyE7
mGIESXVj2VFh6C5hR/Xox5hbTCK+eJq47zjl1cyyyPutu1K1JLy4UBGkakbHcOKd
eiHRruABKKKajGo8I33XtZbMiImzNN/f04Go0TUcRWKuuqGTIu3EYR3IbJ+3hciL
y/kvcKlghybqZmPGtGfsD+6KYaEkYsCJ1PZiL6EoWPsILhGn7nkw7xdebgPO+o3P
IybT4DoG4/yBCpxFAnWImaVXQ1ziD0mPyGuwpxd3aach3/NVZS0/YQKQCWuxRVyr
ILWPt47Pm3MxJTIeAuPS5R1aVEloOiA2g3NmMkqvCyUtzgi5yXHWPr0wNcL3oH/f
dYIeUgI07MZ2/S584QnOgSGHkTouNKlAJ331qTXE5EDjpoQLbg41nIDjZ0EY+XN0
3V0CAwEAAaOBpTCBojAJBgNVHRMEAjAAMB0GA1UdDgQWBBQjIvSpc64HOlmPNLYo
23Ks+cFvVzBUBgNVHSMETTBLgBSHp8V1NwsUbL9GBIwqUuld2lHc5qEdpBswGTEX
MBUGA1UEAwwOdnBuLmplbmtpbnMuaW+CFAgBqm0bMUBPe5x1VFR4tTZlO3yzMBMG
A1UdJQQMMAoGCCsGAQUFBwMCMAsGA1UdDwQEAwIHgDANBgkqhkiG9w0BAQsFAAOC
AgEAaRnv8z0NVT3gSna+D4cJSz5pkVr2HDCBIKOplSerUBYHAeAMX6R/DiHxzJL+
52FZpE/4NuJVNCWs9vCKXK4WGfG6nqpHYNa2ufQmJjhpFcY6JMM+m7ycC5zPhNku
Cggbx0fHZGv1ygp00rcCuD+mMe0caHQmDNM3eaIsNlp4RHeXa5ru3ZqWUYx++kgs
5rqWo8zue7JFYWnwKjFnZqZXwitGyTPc+AcEPIpQdY7Zs69e379wey/Wbeg+ktxu
t86sUuJvjOS9iv4G3zwbH+cE6myVZ3NtT1OFnctSDXybTcxbICy3h9XlgNJK3zqo
RKZt/hQgszMmrCXjKG05SbVu1kVGlU8piO3CeDJpNu1BMxuMiK7AaNyv3wKyiNDF
E8kSBwg9m8xeFTvdyIPn1OAq2SJMaL///ZCQGJuJnFn/Qvgfm3w1jBgghuHfVlw5
1rrPHeC5i6IpQg0LWKhU70INJsvzKKjUTcaoQsF2fRlSYxP0MQ2GogT+MzMv8AW1
RwBbbEJpf3hCoofSZ6bYw0GM1znEDzRIt/Md7FictqB25tSDBk5UV6ygIP3f8Mw0
s/Vu3MYzAcqxz0Y6SuqMBzPPRqdNkbczVwaoM8NdYwSE3VHkZYzZ5nwef/WgUzuc
u/Ao5OYl941ShzjgV8AvSy+hqPEBBoOvbiKzjuOzn5UwFKs=
-----END CERTIFICATE-----
