Certificate:
    Data:
        Version: 3 (0x2)
        Serial Number:
            bf:82:ce:23:f3:fa:f9:9a:32:2a:07:94:42:00:4a:aa
        Signature Algorithm: sha256WithRSAEncryption
        Issuer: CN=cert.vpn.jenkins.io
        Validity
            Not Before: Mar 12 13:58:47 2019 GMT
            Not After : Feb 24 13:58:47 2022 GMT
        Subject: CN=olblak
        Subject Public Key Info:
            Public Key Algorithm: rsaEncryption
                RSA Public-Key: (4096 bit)
                Modulus:
                    00:ea:7c:6d:75:e6:ad:a9:0e:ed:c1:35:d8:7e:b4:
                    10:9a:4a:8d:3e:ea:05:21:05:e1:99:e3:c7:8d:fe:
                    80:6f:11:84:c1:b1:20:ab:2b:5f:54:5d:01:0c:b0:
                    d1:06:5f:6d:21:5f:8c:d0:df:39:56:b2:72:b0:aa:
                    e1:5f:5f:46:8c:20:ce:6a:a3:b5:44:f4:32:5d:69:
                    6a:60:70:eb:c8:1a:f8:f6:8e:40:6c:9b:3d:18:94:
                    c6:77:c2:2e:a5:58:5c:bd:03:6e:f0:c4:53:ab:b9:
                    5a:50:9a:4c:57:97:1c:79:03:93:80:59:67:9c:64:
                    94:6e:d3:7c:87:cb:a5:62:1a:2c:bc:2a:77:e1:62:
                    ec:35:5a:a7:49:2f:5a:39:c6:bb:11:5f:c8:67:80:
                    1e:02:15:36:94:ff:85:7d:9d:6e:31:ce:74:02:45:
                    cf:e4:b3:2b:3a:04:88:a3:4b:01:2a:9c:76:2b:3a:
                    8d:fc:cd:14:8c:c0:d1:a2:52:41:4a:b3:bb:f6:34:
                    6a:d5:a5:41:1a:89:e3:16:03:c6:78:66:47:87:5e:
                    bf:1d:75:e2:67:ab:f0:22:67:fd:5f:03:1d:1f:24:
                    e8:e6:55:60:a4:9d:14:60:e7:01:ee:5f:84:b3:6b:
                    7a:8f:e1:a3:75:af:35:bf:17:85:46:a0:a8:52:9f:
                    91:63:76:82:1d:5e:e9:2c:52:0b:0a:6e:ac:84:a1:
                    74:30:43:1c:29:ce:43:40:78:ef:e9:c4:e3:96:e5:
                    c7:a2:f2:10:a0:92:b5:ef:d3:f0:e3:79:15:43:33:
                    a9:bc:93:2f:af:64:39:e4:23:f4:7a:5f:c5:04:19:
                    33:93:90:ef:ff:53:fc:76:37:38:08:f1:ef:44:1a:
                    68:b8:26:d1:27:b5:6e:88:ea:4d:4f:74:fa:11:0d:
                    bd:c8:c0:89:b8:fc:3f:49:f2:4a:9b:b9:ae:70:1f:
                    67:d7:20:9f:d9:ec:cc:73:f8:5e:4d:3e:84:9a:7e:
                    f2:1a:61:87:7e:81:77:36:49:49:81:67:69:f6:50:
                    f1:de:c9:14:60:fc:87:b7:7a:d9:8c:02:b2:a5:27:
                    5b:bd:d0:7a:89:9b:fd:db:7e:82:16:27:c2:2f:10:
                    7e:c2:a5:1d:1f:bb:f9:6f:f6:b3:5d:52:e7:31:14:
                    34:95:10:c6:24:e2:7e:4f:ae:f6:58:13:d5:45:31:
                    85:9f:d3:dc:be:88:f6:b4:bc:59:4f:af:10:c2:63:
                    e6:30:4a:dc:78:2f:5e:f5:db:9d:6b:d3:ce:6a:5b:
                    58:a4:cc:be:80:1d:17:5f:94:97:ba:ae:10:98:bd:
                    48:ec:e5:70:64:2e:9b:a0:2b:6b:0d:5d:4c:8b:f5:
                    b7:8d:11
                Exponent: 65537 (0x10001)
        X509v3 extensions:
            X509v3 Basic Constraints: 
                CA:FALSE
            X509v3 Subject Key Identifier: 
                70:CA:FC:00:23:71:12:FA:1F:B7:DB:5B:0A:E0:FD:AD:7D:3D:AA:36
            X509v3 Authority Key Identifier: 
                keyid:37:3A:6A:38:F9:ED:57:DD:E6:49:89:22:8E:62:EE:1A:77:74:D2:21
                DirName:/CN=cert.vpn.jenkins.io
                serial:2C:76:6D:8B:24:C7:DA:61:FF:37:0F:C4:DC:B8:AF:59:46:1A:E6:1E

            X509v3 Extended Key Usage: 
                TLS Web Client Authentication
            X509v3 Key Usage: 
                Digital Signature
    Signature Algorithm: sha256WithRSAEncryption
         1d:a0:96:d0:1f:c2:00:6d:bf:cd:c5:e9:be:bd:81:b1:e9:9f:
         3b:db:2a:e9:35:07:2d:d6:34:fc:3e:4a:41:35:14:ec:f5:09:
         c3:bb:10:3e:66:99:a1:7d:97:78:5e:25:72:23:65:af:f0:9c:
         5c:98:7c:7b:0a:ff:1e:cd:0e:8d:5c:61:d8:75:3d:ff:8d:88:
         72:49:09:93:f5:6f:0a:88:7c:f4:5e:f4:ae:0f:6e:04:d8:21:
         8a:f9:4d:28:8a:04:02:e6:03:fd:32:90:87:41:e0:78:74:90:
         a1:66:ab:b9:63:f5:04:dd:4c:a4:81:b5:6a:d8:7c:69:ff:1f:
         be:ab:e0:d5:e8:5a:0c:2f:a1:da:b3:e1:c4:c0:a8:de:5b:15:
         b4:9b:33:5a:5a:c3:10:85:dd:95:60:34:31:30:a8:7f:6f:f6:
         8d:19:9b:b3:4f:6a:6f:ab:e2:90:ce:a8:de:ba:6f:2d:18:c2:
         2b:59:15:83:6f:fb:d5:a3:76:75:dc:ee:cb:c4:ef:63:7d:20:
         e9:2e:0d:e0:46:77:e9:2f:94:92:92:2a:13:28:02:de:45:1e:
         30:8c:00:70:a5:02:70:31:79:67:24:8f:31:af:a7:0b:b5:65:
         ce:a2:b3:d9:e5:05:84:22:e2:0f:e4:48:43:34:af:f9:47:4f:
         6a:49:fc:b1:e7:53:04:01:4c:a2:33:64:9e:be:e9:ea:d2:55:
         58:64:fe:30:f1:b8:5b:f0:0f:21:3b:d1:5b:80:da:0c:ce:52:
         78:e6:59:a6:29:81:0b:0a:29:26:25:d3:98:42:36:fe:b2:b8:
         01:bf:18:d7:e7:9c:17:fb:75:5b:79:06:d1:2b:0d:81:a7:38:
         4a:af:b2:54:6f:0d:08:0c:c1:ae:94:76:97:93:77:ad:e4:a2:
         81:b4:40:82:7d:d4:c9:d3:72:38:d1:60:a4:44:14:89:3d:66:
         b3:bd:74:71:dd:0a:7c:67:5e:4a:f4:a2:89:27:93:32:48:aa:
         46:a5:d5:f6:bc:fe:09:d5:f8:20:3c:8d:59:e2:48:5a:74:71:
         68:f6:35:98:d7:76:9b:31:dd:d0:31:2e:dc:57:99:f2:58:83:
         a7:a1:88:6b:d4:21:99:d5:df:3d:93:c7:f6:b7:82:0d:dc:9d:
         8a:91:7e:7f:f8:c0:11:8e:bb:d3:c2:bb:81:56:46:0b:0a:d1:
         11:8c:76:1f:aa:f8:91:48:13:cf:05:16:59:b2:00:9b:72:e7:
         fa:f0:c8:72:17:2a:e9:6f:ee:a6:3b:2a:96:0a:1c:f2:bf:fa:
         48:bc:cc:aa:57:ce:52:60:d1:78:26:7a:fd:37:76:ca:7c:93:
         09:f9:ed:e4:a6:2d:8c:05
-----BEGIN CERTIFICATE-----
MIIFZTCCA02gAwIBAgIRAL+CziPz+vmaMioHlEIASqowDQYJKoZIhvcNAQELBQAw
HjEcMBoGA1UEAwwTY2VydC52cG4uamVua2lucy5pbzAeFw0xOTAzMTIxMzU4NDda
Fw0yMjAyMjQxMzU4NDdaMBExDzANBgNVBAMMBm9sYmxhazCCAiIwDQYJKoZIhvcN
AQEBBQADggIPADCCAgoCggIBAOp8bXXmrakO7cE12H60EJpKjT7qBSEF4Znjx43+
gG8RhMGxIKsrX1RdAQyw0QZfbSFfjNDfOVaycrCq4V9fRowgzmqjtUT0Ml1pamBw
68ga+PaOQGybPRiUxnfCLqVYXL0DbvDEU6u5WlCaTFeXHHkDk4BZZ5xklG7TfIfL
pWIaLLwqd+Fi7DVap0kvWjnGuxFfyGeAHgIVNpT/hX2dbjHOdAJFz+SzKzoEiKNL
ASqcdis6jfzNFIzA0aJSQUqzu/Y0atWlQRqJ4xYDxnhmR4devx114mer8CJn/V8D
HR8k6OZVYKSdFGDnAe5fhLNreo/ho3WvNb8XhUagqFKfkWN2gh1e6SxSCwpurISh
dDBDHCnOQ0B47+nE45blx6LyEKCSte/T8ON5FUMzqbyTL69kOeQj9HpfxQQZM5OQ
7/9T/HY3OAjx70QaaLgm0Se1bojqTU90+hENvcjAibj8P0nySpu5rnAfZ9cgn9ns
zHP4Xk0+hJp+8hphh36BdzZJSYFnafZQ8d7JFGD8h7d62YwCsqUnW73Qeomb/dt+
ghYnwi8QfsKlHR+7+W/2s11S5zEUNJUQxiTifk+u9lgT1UUxhZ/T3L6I9rS8WU+v
EMJj5jBK3HgvXvXbnWvTzmpbWKTMvoAdF1+Ul7quEJi9SOzlcGQum6Araw1dTIv1
t40RAgMBAAGjgaowgacwCQYDVR0TBAIwADAdBgNVHQ4EFgQUcMr8ACNxEvoft9tb
CuD9rX09qjYwWQYDVR0jBFIwUIAUNzpqOPntV93mSYkijmLuGnd00iGhIqQgMB4x
HDAaBgNVBAMME2NlcnQudnBuLmplbmtpbnMuaW+CFCx2bYskx9ph/zcPxNy4r1lG
GuYeMBMGA1UdJQQMMAoGCCsGAQUFBwMCMAsGA1UdDwQEAwIHgDANBgkqhkiG9w0B
AQsFAAOCAgEAHaCW0B/CAG2/zcXpvr2BsemfO9sq6TUHLdY0/D5KQTUU7PUJw7sQ
PmaZoX2XeF4lciNlr/CcXJh8ewr/Hs0OjVxh2HU9/42IckkJk/VvCoh89F70rg9u
BNghivlNKIoEAuYD/TKQh0HgeHSQoWaruWP1BN1MpIG1ath8af8fvqvg1ehaDC+h
2rPhxMCo3lsVtJszWlrDEIXdlWA0MTCof2/2jRmbs09qb6vikM6o3rpvLRjCK1kV
g2/71aN2ddzuy8TvY30g6S4N4EZ36S+UkpIqEygC3kUeMIwAcKUCcDF5ZySPMa+n
C7VlzqKz2eUFhCLiD+RIQzSv+UdPakn8sedTBAFMojNknr7p6tJVWGT+MPG4W/AP
ITvRW4DaDM5SeOZZpimBCwopJiXTmEI2/rK4Ab8Y1+ecF/t1W3kG0SsNgac4Sq+y
VG8NCAzBrpR2l5N3reSigbRAgn3UydNyONFgpEQUiT1ms710cd0KfGdeSvSiiSeT
MkiqRqXV9rz+CdX4IDyNWeJIWnRxaPY1mNd2mzHd0DEu3FeZ8liDp6GIa9QhmdXf
PZPH9reCDdydipF+f/jAEY6708K7gVZGCwrREYx2H6r4kUgTzwUWWbIAm3Ln+vDI
chcq6W/upjsqlgoc8r/6SLzMqlfOUmDReCZ6/Td2ynyTCfnt5KYtjAU=
-----END CERTIFICATE-----
