Certificate:
    Data:
        Version: 3 (0x2)
        Serial Number:
            c1:08:3f:93:ec:30:8f:a7:6b:1f:80:80:ef:29:60:e8
    Signature Algorithm: sha256WithRSAEncryption
        Issuer: CN=vpn.jenkins.io
        Validity
            Not Before: Jun 23 11:08:12 2023 GMT
            Not After : Jun  7 11:08:12 2026 GMT
        Subject: CN=hlemeur
        Subject Public Key Info:
            Public Key Algorithm: rsaEncryption
                RSA Public-Key: (4096 bit)
                Modulus:
                    00:af:f7:6d:37:4a:67:41:36:a4:d4:48:70:c2:ca:
                    60:6c:25:bb:d3:0d:d7:69:be:d6:84:4e:40:e3:4d:
                    e7:7f:83:15:1f:16:6e:2f:e8:ef:41:08:79:6b:fc:
                    62:f2:f3:cb:b6:3f:23:43:45:97:4b:e7:34:fd:c0:
                    b2:d5:d3:91:29:70:9e:f8:51:b3:50:f7:a3:63:ec:
                    a8:4f:71:d3:dd:98:7f:a9:58:07:19:b3:05:9d:30:
                    33:b1:95:21:04:99:2f:b2:8f:84:13:30:df:6f:86:
                    fc:38:49:9a:e3:e3:79:5b:39:62:88:02:aa:2d:6d:
                    d4:cb:a4:90:84:a5:5e:c1:61:64:1b:cd:04:b4:10:
                    47:99:96:5b:46:93:69:48:a2:8b:6c:49:38:39:31:
                    14:1f:57:a2:c3:37:9d:9c:51:76:f3:6f:95:01:48:
                    aa:82:96:1a:30:ca:0b:a8:19:bb:b2:ca:2a:e8:29:
                    06:a9:99:42:fb:d0:0e:37:68:80:fb:f6:85:5f:11:
                    c1:ee:d6:13:c0:19:e2:2f:17:6e:96:d1:70:73:74:
                    75:81:17:fc:a2:2a:4f:f8:44:71:6e:7c:49:15:73:
                    33:63:05:29:16:2f:f5:e0:db:44:5c:f3:bc:4f:09:
                    37:71:06:ab:45:07:16:fe:f5:39:91:d7:bc:e0:22:
                    bb:6c:87:26:61:64:f9:a4:bf:cc:cf:a9:f6:9d:ed:
                    50:94:0e:5e:90:8a:c4:0e:39:b1:2c:3f:f1:47:c3:
                    2b:5e:85:6c:b2:9a:89:1c:15:6e:a4:9f:00:fc:1a:
                    ac:6d:08:da:9a:9d:9b:91:26:b8:3c:41:66:51:e3:
                    af:83:db:76:fe:69:9c:33:09:8a:87:b3:f4:01:7a:
                    07:01:60:85:a2:65:29:ab:b7:55:b5:45:4e:c0:e0:
                    3e:dc:18:35:80:24:3c:77:22:fa:8f:92:48:61:32:
                    00:15:dd:2e:76:cc:60:ba:3f:a3:30:99:b3:74:31:
                    10:b2:d6:60:35:6c:10:2c:72:7e:25:3a:20:45:95:
                    90:da:ef:b3:72:c2:82:c0:d1:0f:bc:dc:b9:51:7a:
                    d3:7a:d8:5f:20:46:b0:47:67:d5:a1:86:f6:d6:45:
                    bc:f8:b3:4a:18:e3:9f:87:eb:e1:cd:5c:63:19:e0:
                    60:81:b9:5e:5e:40:fb:ed:d5:34:31:f1:d1:a8:06:
                    fe:6f:d8:96:3d:a5:63:4c:75:39:bc:86:0e:cc:c1:
                    f4:7f:ec:82:d5:0e:24:12:06:3f:01:fb:15:08:78:
                    d8:ee:a8:12:a6:f4:55:c3:d8:36:0b:ab:ac:61:fc:
                    6f:e8:ba:17:4e:d6:e7:22:ab:c4:2c:dd:8a:3a:b9:
                    9d:ba:73
                Exponent: 65537 (0x10001)
        X509v3 extensions:
            X509v3 Basic Constraints: 
                CA:FALSE
            X509v3 Subject Key Identifier: 
                A8:C1:A2:60:34:76:8F:AB:F4:65:AA:1E:84:93:B9:97:FC:F4:18:2B
            X509v3 Authority Key Identifier: 
                keyid:87:A7:C5:75:37:0B:14:6C:BF:46:04:8C:2A:52:E9:5D:DA:51:DC:E6
                DirName:/CN=vpn.jenkins.io
                serial:08:01:AA:6D:1B:31:40:4F:7B:9C:75:54:54:78:B5:36:65:3B:7C:B3

            X509v3 Extended Key Usage: 
                TLS Web Client Authentication
            X509v3 Key Usage: 
                Digital Signature
    Signature Algorithm: sha256WithRSAEncryption
         7e:52:bd:ed:b5:80:de:5e:7e:11:9b:63:83:d0:06:80:f8:a5:
         77:e3:7b:8c:8c:98:86:b7:40:c6:c3:5c:52:f5:33:4c:c2:75:
         10:67:5b:47:30:09:b9:e3:5f:4f:22:c4:0e:51:dd:35:61:6a:
         81:0f:a9:f9:ca:90:51:fb:c7:76:60:53:14:4c:8e:57:a8:97:
         20:5f:1e:01:6a:d0:7b:74:e3:78:2e:e7:15:6d:4a:d9:a5:c3:
         5f:23:f7:c0:be:73:72:74:af:de:67:ce:a0:49:ca:1b:2d:be:
         8a:58:42:35:64:e9:9f:8b:23:2b:93:7f:eb:1c:5f:2a:6e:05:
         3b:d1:16:f3:e1:28:bd:34:51:bb:17:99:8d:0b:ec:9a:c5:39:
         c4:d6:c6:68:b1:0c:71:c7:fc:b9:00:8c:fd:bb:00:cc:c3:ec:
         76:58:95:da:72:5b:7e:0c:6e:85:3d:7c:55:91:bb:2b:af:f5:
         62:bd:fc:9a:98:29:73:5c:25:cf:7a:fb:aa:44:67:f7:51:59:
         93:bf:b3:3c:7b:f0:f4:88:aa:d3:a3:64:4b:ed:ac:ae:a7:6c:
         44:2c:97:3b:50:ba:df:f7:1e:fa:4b:d8:45:7e:fc:51:47:e9:
         34:c4:62:cd:41:8c:86:12:d5:4c:45:99:b8:2a:fb:c8:62:9c:
         05:6a:42:0f:f6:98:3c:e9:c2:87:73:73:23:fe:e2:2b:6c:03:
         71:5f:f4:e0:38:73:78:e2:97:d7:13:93:ea:2e:eb:0b:5f:53:
         03:24:83:59:18:ed:0e:56:e1:e9:2e:7e:4d:d4:bc:e4:05:c7:
         17:bb:0d:ad:5c:61:33:2d:c8:e4:af:ad:19:12:d6:af:ee:86:
         86:a0:47:43:d8:05:29:76:dc:5a:af:1e:a9:ae:b5:87:a9:4b:
         4e:4f:b2:e8:c9:4e:f2:65:85:e7:4f:dc:dc:fd:7e:86:be:36:
         81:b8:c4:5b:0c:1b:d7:17:3f:35:7e:0c:d1:63:e7:2b:7f:75:
         a5:b7:d9:89:9c:11:5d:c2:79:7d:49:33:82:60:1e:31:31:33:
         4b:10:e2:c9:2b:e7:25:42:3f:05:42:e2:64:76:30:53:7e:e2:
         dc:f6:cf:57:5c:54:ab:62:40:b4:09:1f:bc:8d:74:8f:f9:f5:
         d7:87:f7:3f:54:8c:91:4e:5a:1e:c8:f4:b4:50:85:08:6f:5e:
         88:68:41:c2:e2:5d:f1:dc:57:96:4a:5f:a9:9c:90:7d:8b:e0:
         eb:16:1e:27:85:c5:53:02:57:ae:1a:d3:aa:22:77:a0:a2:a8:
         16:c0:41:72:8f:b5:41:21:9a:4a:e3:d3:2c:3c:76:01:52:ba:
         88:52:58:8f:ec:c3:87:db
-----BEGIN CERTIFICATE-----
MIIFXDCCA0SgAwIBAgIRAMEIP5PsMI+nax+AgO8pYOgwDQYJKoZIhvcNAQELBQAw
GTEXMBUGA1UEAwwOdnBuLmplbmtpbnMuaW8wHhcNMjMwNjIzMTEwODEyWhcNMjYw
NjA3MTEwODEyWjASMRAwDgYDVQQDDAdobGVtZXVyMIICIjANBgkqhkiG9w0BAQEF
AAOCAg8AMIICCgKCAgEAr/dtN0pnQTak1EhwwspgbCW70w3Xab7WhE5A403nf4MV
HxZuL+jvQQh5a/xi8vPLtj8jQ0WXS+c0/cCy1dORKXCe+FGzUPejY+yoT3HT3Zh/
qVgHGbMFnTAzsZUhBJkvso+EEzDfb4b8OEma4+N5WzliiAKqLW3Uy6SQhKVewWFk
G80EtBBHmZZbRpNpSKKLbEk4OTEUH1eiwzednFF282+VAUiqgpYaMMoLqBm7ssoq
6CkGqZlC+9AON2iA+/aFXxHB7tYTwBniLxdultFwc3R1gRf8oipP+ERxbnxJFXMz
YwUpFi/14NtEXPO8Twk3cQarRQcW/vU5kde84CK7bIcmYWT5pL/Mz6n2ne1QlA5e
kIrEDjmxLD/xR8MrXoVsspqJHBVupJ8A/BqsbQjamp2bkSa4PEFmUeOvg9t2/mmc
MwmKh7P0AXoHAWCFomUpq7dVtUVOwOA+3Bg1gCQ8dyL6j5JIYTIAFd0udsxguj+j
MJmzdDEQstZgNWwQLHJ+JTogRZWQ2u+zcsKCwNEPvNy5UXrTethfIEawR2fVoYb2
1kW8+LNKGOOfh+vhzVxjGeBggbleXkD77dU0MfHRqAb+b9iWPaVjTHU5vIYOzMH0
f+yC1Q4kEgY/AfsVCHjY7qgSpvRVw9g2C6usYfxv6LoXTtbnIqvELN2KOrmdunMC
AwEAAaOBpTCBojAJBgNVHRMEAjAAMB0GA1UdDgQWBBSowaJgNHaPq/Rlqh6Ek7mX
/PQYKzBUBgNVHSMETTBLgBSHp8V1NwsUbL9GBIwqUuld2lHc5qEdpBswGTEXMBUG
A1UEAwwOdnBuLmplbmtpbnMuaW+CFAgBqm0bMUBPe5x1VFR4tTZlO3yzMBMGA1Ud
JQQMMAoGCCsGAQUFBwMCMAsGA1UdDwQEAwIHgDANBgkqhkiG9w0BAQsFAAOCAgEA
flK97bWA3l5+EZtjg9AGgPild+N7jIyYhrdAxsNcUvUzTMJ1EGdbRzAJueNfTyLE
DlHdNWFqgQ+p+cqQUfvHdmBTFEyOV6iXIF8eAWrQe3TjeC7nFW1K2aXDXyP3wL5z
cnSv3mfOoEnKGy2+ilhCNWTpn4sjK5N/6xxfKm4FO9EW8+EovTRRuxeZjQvsmsU5
xNbGaLEMccf8uQCM/bsAzMPsdliV2nJbfgxuhT18VZG7K6/1Yr38mpgpc1wlz3r7
qkRn91FZk7+zPHvw9Iiq06NkS+2srqdsRCyXO1C63/ce+kvYRX78UUfpNMRizUGM
hhLVTEWZuCr7yGKcBWpCD/aYPOnCh3NzI/7iK2wDcV/04DhzeOKX1xOT6i7rC19T
AySDWRjtDlbh6S5+TdS85AXHF7sNrVxhMy3I5K+tGRLWr+6GhqBHQ9gFKXbcWq8e
qa61h6lLTk+y6MlO8mWF50/c3P1+hr42gbjEWwwb1xc/NX4M0WPnK391pbfZiZwR
XcJ5fUkzgmAeMTEzSxDiySvnJUI/BULiZHYwU37i3PbPV1xUq2JAtAkfvI10j/n1
14f3P1SMkU5aHsj0tFCFCG9eiGhBwuJd8dxXlkpfqZyQfYvg6xYeJ4XFUwJXrhrT
qiJ3oKKoFsBBco+1QSGaSuPTLDx2AVK6iFJYj+zDh9s=
-----END CERTIFICATE-----
