Certificate:
    Data:
        Version: 3 (0x2)
        Serial Number:
            c4:68:55:39:f6:17:7f:6f:e9:49:c1:87:64:7e:56:3a
        Signature Algorithm: sha256WithRSAEncryption
        Issuer: CN=vpn.jenkins.io
        Validity
            Not Before: Oct  5 07:35:21 2020 GMT
            Not After : Sep 20 07:35:21 2023 GMT
        Subject: CN=garethjevans
        Subject Public Key Info:
            Public Key Algorithm: rsaEncryption
                RSA Public-Key: (4096 bit)
                Modulus:
                    00:e1:9a:79:77:86:96:cb:ab:0a:aa:7d:9e:41:57:
                    35:9b:d5:d1:77:b2:2a:60:a1:d4:e8:bc:82:e7:93:
                    44:50:9d:33:df:cc:4c:59:58:45:e7:c3:79:dc:b5:
                    ac:14:fb:98:3f:b0:e3:24:59:6b:63:ac:fd:f0:20:
                    fb:ef:d5:ce:6d:3a:1c:e1:dc:14:10:2f:e5:05:8a:
                    09:94:20:25:7f:2d:e7:93:28:ac:66:d4:e0:5d:f1:
                    ad:bd:ee:f1:29:bd:8e:d7:d7:1e:88:9a:b7:b3:50:
                    19:94:f3:34:12:98:26:06:c1:d3:2a:2e:32:4b:19:
                    04:b8:e2:41:03:ad:57:ea:cf:fb:9c:0a:90:1c:00:
                    01:6d:bc:db:1d:71:2e:b9:f9:93:5d:43:9b:c1:3a:
                    2f:e1:4e:ea:21:bd:8e:6a:a7:bd:70:18:b5:83:32:
                    42:e2:c6:de:b8:a2:f2:a1:00:6b:b1:48:62:27:19:
                    55:16:3a:60:6a:14:89:d4:bb:32:e3:5f:5b:6a:7c:
                    2a:82:97:9e:2c:77:56:ca:fd:75:aa:02:34:15:65:
                    08:6b:16:72:e1:ed:bd:85:4d:67:99:73:e3:91:fd:
                    a5:5e:b5:b7:d9:ba:86:25:df:42:0d:8b:a0:15:ee:
                    be:a6:0f:57:b8:f4:94:91:01:60:33:ca:31:fc:84:
                    1a:c1:67:5d:4f:93:57:99:ba:a1:7c:52:62:23:79:
                    bf:4d:f0:8c:e4:71:7b:b5:b1:aa:21:2c:91:bd:23:
                    39:39:94:0e:db:d6:4b:42:3a:76:b0:1c:34:14:7e:
                    c0:a5:6c:36:16:96:57:1a:16:01:0a:50:0f:66:9d:
                    1f:a5:60:3a:c2:8f:68:6f:4a:28:d3:56:76:d6:73:
                    a9:42:3d:a9:bf:c5:aa:b1:d6:f7:59:fd:cc:5a:5f:
                    42:2f:56:f1:ae:b8:45:c7:fc:27:7e:89:c8:91:e3:
                    43:16:6a:f4:97:2e:1e:d2:22:c9:4d:3e:d9:4e:4e:
                    f1:0a:a4:7d:5e:1e:25:53:e1:e8:7a:ec:91:06:64:
                    79:b7:7b:4f:5f:fb:9f:ce:0e:cc:a5:04:27:3b:93:
                    27:21:83:d4:7f:d3:d7:c4:df:0f:ab:6b:c8:4e:eb:
                    4e:e8:5a:9f:96:6a:8b:a3:9a:c9:ff:2c:3f:be:45:
                    96:14:7e:96:26:63:4f:a7:15:e7:3c:45:d0:f8:af:
                    2a:4b:e7:ed:63:2a:e6:39:63:27:f6:b7:15:fb:37:
                    06:fd:58:78:57:8b:37:f7:f2:87:19:2c:44:01:9b:
                    e4:05:79:5d:4d:ce:ca:49:aa:21:cb:66:1a:99:ed:
                    17:e4:8a:cf:1b:9b:0f:31:59:32:cb:dd:2e:a8:69:
                    3f:0c:87
                Exponent: 65537 (0x10001)
        X509v3 extensions:
            X509v3 Basic Constraints: 
                CA:FALSE
            X509v3 Subject Key Identifier: 
                5C:AD:58:16:F4:19:6A:BB:24:3D:DE:B7:A5:DC:82:8A:4B:D8:EC:B5
            X509v3 Authority Key Identifier: 
                keyid:87:A7:C5:75:37:0B:14:6C:BF:46:04:8C:2A:52:E9:5D:DA:51:DC:E6
                DirName:/CN=vpn.jenkins.io
                serial:08:01:AA:6D:1B:31:40:4F:7B:9C:75:54:54:78:B5:36:65:3B:7C:B3

            X509v3 Extended Key Usage: 
                TLS Web Client Authentication
            X509v3 Key Usage: 
                Digital Signature
    Signature Algorithm: sha256WithRSAEncryption
         28:1e:43:7a:70:87:3b:84:71:8e:7f:4d:fe:a6:04:72:a8:7d:
         8e:87:15:74:0f:a8:73:d6:4a:92:ec:da:a9:2f:96:c4:a2:74:
         13:fd:86:f2:f7:86:88:15:fd:e6:6c:60:a9:d1:02:c6:19:3d:
         a1:3f:1d:3e:e4:ff:95:cb:fd:9d:b4:fb:21:ce:3f:3c:f1:55:
         41:60:91:a0:9c:e9:ca:35:cf:97:5c:c2:0b:68:fc:51:3c:ed:
         1e:97:2d:9a:13:54:0e:be:3a:10:1e:84:85:63:44:11:1c:c4:
         f3:13:25:01:25:36:7d:22:c1:2d:0d:96:de:7d:b1:e2:ab:e6:
         cc:45:58:2d:19:24:2b:74:38:63:23:1f:c2:2b:a3:86:92:74:
         97:32:8f:ce:b3:91:c9:0c:c0:c4:c2:9b:51:a6:ad:24:ff:85:
         07:98:55:62:b8:d0:56:7f:10:83:19:9b:97:9b:0a:04:22:1c:
         e4:55:d8:27:81:1f:1f:17:e9:bf:92:7f:0a:ee:59:99:b9:90:
         31:7a:3a:ce:c8:b1:f9:7d:63:57:4d:61:c3:f0:df:f2:4f:bd:
         39:ba:32:ec:ec:02:82:a7:2c:71:90:69:d7:28:c3:5a:e8:84:
         50:9d:37:fd:13:40:69:0d:c1:ff:13:9f:44:ec:96:60:cd:0b:
         62:cc:2c:a7:31:2c:b6:de:c4:a2:d5:26:05:b0:ba:bc:76:01:
         c7:6e:57:42:21:a2:d7:05:f9:7b:1c:51:bc:88:d0:11:20:14:
         55:71:d8:50:77:fa:ae:a6:db:2d:db:2c:01:b0:6f:3d:3c:6b:
         01:a5:cd:c9:4f:e7:bd:8b:3b:9d:8f:bd:b0:fd:44:5f:a3:a7:
         43:95:6f:41:fb:ae:37:bd:3b:72:51:9c:9a:43:6c:ad:4b:99:
         68:15:16:b7:12:39:81:cf:9d:d8:60:58:53:0c:fc:54:7e:85:
         1a:12:27:a8:a3:0e:94:af:3a:39:e0:24:07:16:b5:d0:af:03:
         75:9c:1f:38:11:ad:d7:6f:ae:75:81:e3:b4:e8:99:9b:c7:d1:
         6e:c4:35:31:55:02:6d:4a:7f:f9:24:b0:17:7a:99:b3:9c:e3:
         16:c6:43:a0:d9:a4:6f:b8:1d:bc:14:94:2c:59:2d:5d:bc:19:
         44:17:e7:06:2e:00:a2:7b:45:b4:a0:2c:d7:59:45:5b:63:2b:
         35:33:a9:fb:a5:b7:00:fc:5a:f9:79:b5:db:be:9a:f0:89:40:
         82:ee:6f:71:29:21:d4:44:38:9c:cd:58:68:19:1d:7a:6f:d4:
         56:0c:13:ee:c5:2f:81:3b:1e:de:8f:d9:b3:c1:ad:e3:58:0d:
         d0:45:96:f1:f2:ca:45:b1
-----BEGIN CERTIFICATE-----
MIIFYTCCA0mgAwIBAgIRAMRoVTn2F39v6UnBh2R+VjowDQYJKoZIhvcNAQELBQAw
GTEXMBUGA1UEAwwOdnBuLmplbmtpbnMuaW8wHhcNMjAxMDA1MDczNTIxWhcNMjMw
OTIwMDczNTIxWjAXMRUwEwYDVQQDDAxnYXJldGhqZXZhbnMwggIiMA0GCSqGSIb3
DQEBAQUAA4ICDwAwggIKAoICAQDhmnl3hpbLqwqqfZ5BVzWb1dF3sipgodTovILn
k0RQnTPfzExZWEXnw3nctawU+5g/sOMkWWtjrP3wIPvv1c5tOhzh3BQQL+UFigmU
ICV/LeeTKKxm1OBd8a297vEpvY7X1x6ImrezUBmU8zQSmCYGwdMqLjJLGQS44kED
rVfqz/ucCpAcAAFtvNsdcS65+ZNdQ5vBOi/hTuohvY5qp71wGLWDMkLixt64ovKh
AGuxSGInGVUWOmBqFInUuzLjX1tqfCqCl54sd1bK/XWqAjQVZQhrFnLh7b2FTWeZ
c+OR/aVetbfZuoYl30INi6AV7r6mD1e49JSRAWAzyjH8hBrBZ11Pk1eZuqF8UmIj
eb9N8IzkcXu1saohLJG9Izk5lA7b1ktCOnawHDQUfsClbDYWllcaFgEKUA9mnR+l
YDrCj2hvSijTVnbWc6lCPam/xaqx1vdZ/cxaX0IvVvGuuEXH/Cd+iciR40MWavSX
Lh7SIslNPtlOTvEKpH1eHiVT4eh67JEGZHm3e09f+5/ODsylBCc7kychg9R/09fE
3w+ra8hO607oWp+Waoujmsn/LD++RZYUfpYmY0+nFec8RdD4rypL5+1jKuY5Yyf2
txX7Nwb9WHhXizf38ocZLEQBm+QFeV1NzspJqiHLZhqZ7Rfkis8bmw8xWTLL3S6o
aT8MhwIDAQABo4GlMIGiMAkGA1UdEwQCMAAwHQYDVR0OBBYEFFytWBb0GWq7JD3e
t6XcgopL2Oy1MFQGA1UdIwRNMEuAFIenxXU3CxRsv0YEjCpS6V3aUdzmoR2kGzAZ
MRcwFQYDVQQDDA52cG4uamVua2lucy5pb4IUCAGqbRsxQE97nHVUVHi1NmU7fLMw
EwYDVR0lBAwwCgYIKwYBBQUHAwIwCwYDVR0PBAQDAgeAMA0GCSqGSIb3DQEBCwUA
A4ICAQAoHkN6cIc7hHGOf03+pgRyqH2OhxV0D6hz1kqS7NqpL5bEonQT/Yby94aI
Ff3mbGCp0QLGGT2hPx0+5P+Vy/2dtPshzj888VVBYJGgnOnKNc+XXMILaPxRPO0e
ly2aE1QOvjoQHoSFY0QRHMTzEyUBJTZ9IsEtDZbefbHiq+bMRVgtGSQrdDhjIx/C
K6OGknSXMo/Os5HJDMDEwptRpq0k/4UHmFViuNBWfxCDGZuXmwoEIhzkVdgngR8f
F+m/kn8K7lmZuZAxejrOyLH5fWNXTWHD8N/yT705ujLs7AKCpyxxkGnXKMNa6IRQ
nTf9E0BpDcH/E59E7JZgzQtizCynMSy23sSi1SYFsLq8dgHHbldCIaLXBfl7HFG8
iNARIBRVcdhQd/quptst2ywBsG89PGsBpc3JT+e9izudj72w/URfo6dDlW9B+643
vTtyUZyaQ2ytS5loFRa3EjmBz53YYFhTDPxUfoUaEieoow6Urzo54CQHFrXQrwN1
nB84Ea3Xb651geO06Jmbx9FuxDUxVQJtSn/5JLAXepmznOMWxkOg2aRvuB28FJQs
WS1dvBlEF+cGLgCie0W0oCzXWUVbYys1M6n7pbcA/Fr5ebXbvprwiUCC7m9xKSHU
RDiczVhoGR16b9RWDBPuxS+BOx7ej9mzwa3jWA3QRZbx8spFsQ==
-----END CERTIFICATE-----
