Certificate:
    Data:
        Version: 3 (0x2)
        Serial Number:
            c5:b2:51:c1:ba:6f:e0:fe:cc:3e:f7:e5:b8:87:88:e8
        Signature Algorithm: sha256WithRSAEncryption
        Issuer: CN=vpn.jenkins.io
        Validity
            Not Before: Sep  1 11:23:07 2025 GMT
            Not After : Aug 16 11:23:07 2028 GMT
        Subject: CN=atulajoshi
        Subject Public Key Info:
            Public Key Algorithm: rsaEncryption
                Public-Key: (4096 bit)
                Modulus:
                    00:fa:e4:47:5b:b3:09:68:1a:91:11:80:58:69:61:
                    89:dc:2f:33:eb:70:db:22:14:ba:40:99:f3:e2:c4:
                    81:f7:3d:7b:8f:20:5b:5e:c1:76:ff:a6:98:5c:17:
                    1a:2a:63:25:b2:68:97:50:41:5f:54:36:5a:a0:88:
                    ec:8f:7a:2a:96:47:df:1c:0c:2b:1a:e3:63:97:c3:
                    e3:a5:01:27:1a:84:39:d4:02:d5:71:bb:ba:6e:88:
                    f1:b1:8a:97:73:d4:38:1c:2c:5e:0e:91:71:c7:04:
                    8a:3f:15:1a:3f:9a:62:bc:51:48:e9:7f:84:a2:81:
                    c7:5d:41:ec:72:4d:5a:63:34:bf:1c:06:5c:95:f0:
                    c7:f1:af:d8:13:c6:cc:fc:ac:89:f2:44:dd:a6:e8:
                    8c:65:74:83:13:77:19:42:0f:e7:48:ff:3d:cb:b7:
                    60:e1:c5:52:cd:09:3c:55:7c:85:6d:62:6e:cd:57:
                    0a:fc:f8:d7:3c:7f:0a:f8:dd:9e:1f:a2:50:67:26:
                    5c:22:12:7f:e4:87:cd:62:c8:8e:cd:b7:3d:a3:bd:
                    92:69:cb:9e:39:81:98:09:53:24:c2:d7:e6:12:71:
                    85:78:eb:65:da:e0:6d:85:59:73:56:50:6d:90:77:
                    15:a7:be:34:1c:17:bf:a5:39:28:59:a2:70:ba:2f:
                    d2:3d:90:33:b7:38:ed:ee:d4:d6:3f:32:51:71:b1:
                    78:53:b0:cb:13:96:4e:b0:42:e1:f1:a2:82:10:22:
                    59:6e:e0:89:09:f0:f1:42:5a:98:19:67:4d:20:94:
                    df:56:15:bd:d3:c8:61:9a:1a:33:42:39:bd:bf:6e:
                    c7:3e:a8:43:9d:99:de:e1:1b:fc:12:de:38:3d:2f:
                    21:02:00:76:ff:76:28:9c:93:79:29:59:7b:fc:ff:
                    d8:f6:c7:da:0b:26:0a:32:a5:dc:85:f0:d2:7d:b2:
                    3b:14:67:76:4e:7f:37:cf:86:99:0b:0c:78:b7:30:
                    f7:5e:d1:cd:09:2e:f9:88:b3:0b:37:e6:56:a7:b9:
                    dc:f4:56:28:6c:10:02:36:7f:24:26:29:ae:88:ec:
                    b8:ad:2a:88:20:25:97:48:16:a8:7e:72:fd:db:07:
                    23:a8:e6:46:77:51:9b:70:c5:be:9e:a0:a7:54:f9:
                    9e:75:bc:a8:c6:52:1c:aa:dc:a8:63:dc:13:92:ca:
                    27:50:90:1c:17:a1:ce:b3:10:c1:43:02:23:13:2a:
                    f0:72:9a:0f:8d:c0:88:15:df:46:53:dd:69:c7:67:
                    0d:32:53:a2:1a:50:7f:33:85:b4:98:42:b8:ff:f1:
                    53:0d:6f:b9:de:9e:ac:60:68:3c:5d:e9:c3:9c:eb:
                    05:f5:25
                Exponent: 65537 (0x10001)
        X509v3 extensions:
            X509v3 Basic Constraints: 
                CA:FALSE
            X509v3 Subject Key Identifier: 
                4D:10:CA:D5:7E:0F:C7:81:15:73:2A:88:93:D6:A9:37:8A:40:FF:B6
            X509v3 Authority Key Identifier: 
                keyid:87:A7:C5:75:37:0B:14:6C:BF:46:04:8C:2A:52:E9:5D:DA:51:DC:E6
                DirName:/CN=vpn.jenkins.io
                serial:08:01:AA:6D:1B:31:40:4F:7B:9C:75:54:54:78:B5:36:65:3B:7C:B3
            X509v3 Extended Key Usage: 
                TLS Web Client Authentication
            X509v3 Key Usage: 
                Digital Signature
    Signature Algorithm: sha256WithRSAEncryption
    Signature Value:
        9a:cf:c6:12:a3:ed:7d:01:8c:6e:83:06:83:ad:a7:cd:6b:ca:
        cb:43:bb:e8:5b:d7:7d:72:f5:fd:54:a6:69:51:4b:3c:8c:e6:
        44:75:31:89:c4:d6:a8:89:64:11:c9:36:97:6e:91:d4:3e:e3:
        d6:e4:54:28:ef:31:c1:89:44:c8:58:91:82:c6:2d:c0:0c:fd:
        2d:38:f3:74:d7:c9:d1:85:2f:f5:b8:fd:cd:c9:c0:85:7f:40:
        e6:2d:09:24:d4:59:44:e7:14:10:bc:15:32:d3:e9:a6:50:e4:
        7b:7e:a2:70:f7:ea:8c:f4:2e:e3:aa:4f:cb:f0:b5:4a:04:6c:
        ac:b0:1f:27:51:22:19:fc:39:cc:4d:7b:4c:9c:26:05:ab:45:
        dc:c5:fe:8d:c1:b6:ae:3a:00:80:90:f4:b2:62:75:8b:4f:16:
        ff:06:fd:9b:95:cd:84:3b:6f:8e:93:30:b9:43:b8:37:24:e1:
        da:59:b9:28:7a:e8:2b:e2:25:63:23:03:ad:63:3f:d4:90:ac:
        09:1d:be:5f:1d:77:17:77:96:13:86:d5:19:2e:74:57:64:68:
        27:a9:ec:6b:77:11:61:35:b8:30:2a:c1:4e:8a:cc:9d:84:20:
        91:5f:40:81:1c:d7:69:fb:47:00:1c:81:3c:26:05:4e:ca:9b:
        3d:ed:82:73:31:c0:57:35:07:51:7c:46:7d:40:09:40:53:a5:
        2c:f8:6f:54:fb:c5:e8:14:5b:2e:d2:88:52:f4:87:05:f4:c7:
        b4:9f:b7:2f:ae:7f:fe:69:2c:b3:e6:cb:7f:2e:84:5e:eb:d3:
        a3:85:36:6e:2c:b1:94:e7:f2:b3:aa:de:24:7a:b2:60:3a:f8:
        77:c7:8f:ca:b5:ed:ac:fd:98:e1:22:d1:dc:7b:3b:f3:52:64:
        76:16:6e:2b:47:a3:f2:47:70:53:0f:f2:22:d2:f2:e6:4a:6b:
        55:04:89:3e:cb:55:c6:5a:df:87:30:29:df:a7:44:9e:a7:7d:
        1f:76:24:38:b0:27:e8:b3:d0:e9:96:9b:52:b7:f3:31:d2:75:
        b4:27:02:cb:59:a1:c4:86:f9:a9:03:5c:35:81:e5:55:fd:d8:
        dc:20:5e:57:54:ca:be:7a:bc:58:e4:eb:fc:67:12:02:d6:a3:
        f2:9b:2a:1e:69:fd:fc:9d:1a:4f:ed:76:2d:20:42:bf:04:e1:
        6d:6e:d8:c1:be:80:ce:f0:e3:08:f0:8b:f2:49:8b:dd:27:0e:
        12:35:60:02:f6:03:df:b4:98:3c:b3:e5:e1:28:6e:1f:16:4d:
        fc:0b:94:c2:a0:6e:06:40:cf:9d:1e:87:9b:2e:b8:65:74:fa:
        5e:87:92:20:68:40:41:31
-----BEGIN CERTIFICATE-----
MIIFXzCCA0egAwIBAgIRAMWyUcG6b+D+zD735biHiOgwDQYJKoZIhvcNAQELBQAw
GTEXMBUGA1UEAwwOdnBuLmplbmtpbnMuaW8wHhcNMjUwOTAxMTEyMzA3WhcNMjgw
ODE2MTEyMzA3WjAVMRMwEQYDVQQDDAphdHVsYWpvc2hpMIICIjANBgkqhkiG9w0B
AQEFAAOCAg8AMIICCgKCAgEA+uRHW7MJaBqREYBYaWGJ3C8z63DbIhS6QJnz4sSB
9z17jyBbXsF2/6aYXBcaKmMlsmiXUEFfVDZaoIjsj3oqlkffHAwrGuNjl8PjpQEn
GoQ51ALVcbu6bojxsYqXc9Q4HCxeDpFxxwSKPxUaP5pivFFI6X+EooHHXUHsck1a
YzS/HAZclfDH8a/YE8bM/KyJ8kTdpuiMZXSDE3cZQg/nSP89y7dg4cVSzQk8VXyF
bWJuzVcK/PjXPH8K+N2eH6JQZyZcIhJ/5IfNYsiOzbc9o72SacueOYGYCVMkwtfm
EnGFeOtl2uBthVlzVlBtkHcVp740HBe/pTkoWaJwui/SPZAztzjt7tTWPzJRcbF4
U7DLE5ZOsELh8aKCECJZbuCJCfDxQlqYGWdNIJTfVhW908hhmhozQjm9v27HPqhD
nZne4Rv8Et44PS8hAgB2/3YonJN5KVl7/P/Y9sfaCyYKMqXchfDSfbI7FGd2Tn83
z4aZCwx4tzD3XtHNCS75iLMLN+ZWp7nc9FYobBACNn8kJimuiOy4rSqIICWXSBao
fnL92wcjqOZGd1GbcMW+nqCnVPmedbyoxlIcqtyoY9wTksonUJAcF6HOsxDBQwIj
EyrwcpoPjcCIFd9GU91px2cNMlOiGlB/M4W0mEK4//FTDW+53p6sYGg8XenDnOsF
9SUCAwEAAaOBpTCBojAJBgNVHRMEAjAAMB0GA1UdDgQWBBRNEMrVfg/HgRVzKoiT
1qk3ikD/tjBUBgNVHSMETTBLgBSHp8V1NwsUbL9GBIwqUuld2lHc5qEdpBswGTEX
MBUGA1UEAwwOdnBuLmplbmtpbnMuaW+CFAgBqm0bMUBPe5x1VFR4tTZlO3yzMBMG
A1UdJQQMMAoGCCsGAQUFBwMCMAsGA1UdDwQEAwIHgDANBgkqhkiG9w0BAQsFAAOC
AgEAms/GEqPtfQGMboMGg62nzWvKy0O76FvXfXL1/VSmaVFLPIzmRHUxicTWqIlk
Eck2l26R1D7j1uRUKO8xwYlEyFiRgsYtwAz9LTjzdNfJ0YUv9bj9zcnAhX9A5i0J
JNRZROcUELwVMtPpplDke36icPfqjPQu46pPy/C1SgRsrLAfJ1EiGfw5zE17TJwm
BatF3MX+jcG2rjoAgJD0smJ1i08W/wb9m5XNhDtvjpMwuUO4NyTh2lm5KHroK+Il
YyMDrWM/1JCsCR2+Xx13F3eWE4bVGS50V2RoJ6nsa3cRYTW4MCrBTorMnYQgkV9A
gRzXaftHAByBPCYFTsqbPe2CczHAVzUHUXxGfUAJQFOlLPhvVPvF6BRbLtKIUvSH
BfTHtJ+3L65//mkss+bLfy6EXuvTo4U2biyxlOfys6reJHqyYDr4d8ePyrXtrP2Y
4SLR3Hs781JkdhZuK0ej8kdwUw/yItLy5kprVQSJPstVxlrfhzAp36dEnqd9H3Yk
OLAn6LPQ6ZabUrfzMdJ1tCcCy1mhxIb5qQNcNYHlVf3Y3CBeV1TKvnq8WOTr/GcS
Ataj8psqHmn9/J0aT+12LSBCvwThbW7Ywb6AzvDjCPCL8kmL3ScOEjVgAvYD37SY
PLPl4ShuHxZN/AuUwqBuBkDPnR6Hmy64ZXT6XoeSIGhAQTE=
-----END CERTIFICATE-----
