Certificate:
    Data:
        Version: 3 (0x2)
        Serial Number:
            c6:f6:c9:0b:f8:fe:c2:88:6a:73:44:af:d4:f0:26:43
        Signature Algorithm: sha256WithRSAEncryption
        Issuer: CN=vpn.jenkins.io
        Validity
            Not Before: Apr 28 19:19:13 2020 GMT
            Not After : Apr 13 19:19:13 2023 GMT
        Subject: CN=jvz
        Subject Public Key Info:
            Public Key Algorithm: rsaEncryption
                RSA Public-Key: (4096 bit)
                Modulus:
                    00:a3:b2:84:6f:55:d1:63:22:00:62:f5:a9:7f:f9:
                    d7:cd:d2:62:81:b2:76:e4:9f:07:7d:ec:14:67:1d:
                    e6:61:9d:2e:ff:5d:5d:da:81:15:0b:19:11:c4:dc:
                    6c:af:01:5c:61:bf:85:a9:08:21:df:62:bc:f6:dc:
                    3e:0b:a2:f8:8c:91:f4:39:81:ea:0f:4f:c8:0c:bb:
                    bc:fd:5d:28:76:da:2d:42:75:e0:1c:1f:c7:66:33:
                    7b:13:4a:8f:3f:55:32:15:a4:c5:9a:ac:85:1e:99:
                    d4:66:36:46:f4:11:bf:0b:7b:21:cf:e5:2c:49:8b:
                    a4:46:bd:07:ca:84:46:09:6c:5d:8a:6f:44:65:85:
                    ff:d9:b0:52:a7:6e:5f:12:14:e6:42:5f:e7:eb:f2:
                    58:b4:60:e6:4c:13:ef:20:1b:aa:6b:08:bf:af:4a:
                    57:a3:0a:9a:a3:6f:bb:e3:9b:de:48:7f:d0:90:1b:
                    00:da:17:80:e7:42:9a:d1:0d:b2:15:b8:a6:47:02:
                    ce:c3:e4:df:d8:15:76:5b:95:1a:60:00:7a:a4:b8:
                    00:03:cd:5f:c5:b7:d7:82:0b:15:d0:36:d6:4a:bd:
                    4d:ab:70:36:5f:5e:81:56:95:f5:73:a7:fa:5e:b5:
                    78:54:5a:53:03:15:4d:58:e3:e4:1a:ab:15:ed:1e:
                    f8:55:42:c8:25:9e:bc:b7:41:79:11:c2:ee:17:e5:
                    75:20:e5:9d:ac:85:31:fa:24:42:84:ff:47:c2:c1:
                    82:ad:40:5a:c0:55:30:7a:c9:3f:d2:2e:e5:24:d7:
                    ca:7e:7a:33:a3:2b:97:e2:2b:1e:f7:f6:bb:4e:69:
                    25:b5:a9:aa:95:64:f2:1f:1c:3e:bf:a8:3c:da:a4:
                    34:b4:e5:f0:4d:27:bf:cf:96:79:61:3d:8e:6d:c3:
                    7e:ce:a1:7e:cd:63:5e:cf:7d:fc:f6:1d:50:1a:b6:
                    fa:06:fb:31:6f:a2:47:a1:40:94:56:c6:2c:ac:51:
                    26:97:95:8f:b4:07:ef:41:78:dd:78:97:7b:56:99:
                    37:98:fe:45:8b:fa:a9:94:01:01:8a:5b:5a:9a:42:
                    7c:c2:da:c7:ac:be:c1:d5:92:8d:76:a9:b4:43:5a:
                    28:b6:48:e4:fd:b9:1a:e9:1b:26:8f:70:cd:1d:44:
                    94:14:45:57:84:22:67:f1:ba:85:94:16:7b:45:0d:
                    b6:80:2a:13:d5:99:a6:c9:ce:c9:8e:aa:66:d3:fd:
                    ed:b4:00:78:cc:24:f5:68:b8:ed:ba:13:11:ad:7c:
                    53:b4:e2:0a:e0:66:b8:f7:75:07:9b:35:71:b3:09:
                    9f:47:f1:0b:aa:e4:cd:f3:c4:c6:b4:2e:0d:ce:a2:
                    1a:11:4f
                Exponent: 65537 (0x10001)
        X509v3 extensions:
            X509v3 Basic Constraints: 
                CA:FALSE
            X509v3 Subject Key Identifier: 
                D7:19:B8:39:D2:4F:73:38:64:2D:C2:E6:F2:1A:E4:B2:A5:1F:71:63
            X509v3 Authority Key Identifier: 
                keyid:87:A7:C5:75:37:0B:14:6C:BF:46:04:8C:2A:52:E9:5D:DA:51:DC:E6
                DirName:/CN=vpn.jenkins.io
                serial:08:01:AA:6D:1B:31:40:4F:7B:9C:75:54:54:78:B5:36:65:3B:7C:B3

            X509v3 Extended Key Usage: 
                TLS Web Client Authentication
            X509v3 Key Usage: 
                Digital Signature
    Signature Algorithm: sha256WithRSAEncryption
         22:66:fc:e1:62:0a:e2:81:42:05:f6:ed:1f:9d:f3:43:da:e2:
         83:1e:48:11:69:7e:e8:df:d3:e2:66:86:0e:ae:b7:84:65:f2:
         e0:da:ee:0b:16:d9:78:c0:dd:b8:ca:8a:c3:86:d1:e1:eb:b0:
         2f:e9:bb:8c:e6:fb:cb:12:e3:a1:cb:78:fe:aa:a7:8c:3b:65:
         5d:83:3a:ad:58:f8:19:4e:f4:14:61:d8:74:8d:c0:9b:0e:ec:
         ad:91:7b:82:33:60:e1:3b:ec:c1:03:7b:85:86:87:57:6d:84:
         10:e6:3b:b3:a6:99:06:22:04:fb:46:97:10:d8:1f:3d:a7:18:
         22:ec:bb:e1:ab:6d:58:7f:22:88:24:bb:5a:b7:74:6d:57:7f:
         b2:82:74:fd:eb:ea:c9:b6:29:3c:72:0e:4c:a6:e9:cf:ef:3c:
         4e:f0:de:cf:cb:99:76:34:5f:c4:c9:63:d8:21:00:98:77:d0:
         a2:ed:6e:27:15:1b:a8:b5:c6:f9:a0:a1:4f:e4:89:0d:ec:18:
         37:b0:e5:40:a5:76:d1:e2:0a:83:8b:38:85:88:4a:e8:6a:f1:
         5b:2f:7a:ff:8d:e3:ff:fc:8b:d7:d4:25:46:f0:52:2e:f9:a4:
         68:eb:83:44:15:1c:46:7c:28:3e:8f:0f:0a:e7:34:e1:5c:ec:
         01:75:98:fc:34:41:a7:3d:48:07:4e:87:1f:b1:6f:9d:00:06:
         85:46:87:ff:52:52:cc:1c:36:20:31:ce:6f:26:e7:af:be:69:
         be:bf:95:ee:9d:d5:97:fa:98:1c:74:f8:4e:d1:b8:32:47:31:
         f0:c7:8d:31:dd:7f:38:10:f3:42:c6:ff:ea:a4:70:0e:a8:4c:
         87:ad:94:2b:7c:c0:d4:8a:50:f7:f0:d0:02:cd:f3:65:17:52:
         b0:aa:61:2c:8b:e6:ea:2f:d9:8d:9b:e2:04:9e:ec:e2:f0:5e:
         48:48:9a:0a:14:43:8b:88:73:0a:f9:e1:0b:15:de:97:91:27:
         01:98:ad:76:32:e5:f1:c8:ed:55:c0:08:85:d7:55:c8:8f:5f:
         ea:35:43:c1:87:7a:2f:ec:a1:a0:d1:f0:fe:14:04:f2:4f:9a:
         c0:98:5d:ba:8e:e5:4f:0d:5d:81:66:d8:8c:ad:3a:cc:bd:65:
         26:b1:86:03:3d:20:57:65:3f:ed:78:82:2f:77:f0:38:33:6e:
         14:e7:3a:cc:c4:08:f1:fb:2c:2f:6b:6f:6d:4a:75:ab:0d:e6:
         08:57:a6:d5:91:0d:0d:3a:de:05:4a:03:98:a1:59:2e:cc:85:
         3e:ee:93:49:ee:38:e0:00:eb:bf:11:e5:63:b7:7e:e7:78:25:
         60:38:e6:80:00:f4:5c:c1
-----BEGIN CERTIFICATE-----
MIIFWDCCA0CgAwIBAgIRAMb2yQv4/sKIanNEr9TwJkMwDQYJKoZIhvcNAQELBQAw
GTEXMBUGA1UEAwwOdnBuLmplbmtpbnMuaW8wHhcNMjAwNDI4MTkxOTEzWhcNMjMw
NDEzMTkxOTEzWjAOMQwwCgYDVQQDDANqdnowggIiMA0GCSqGSIb3DQEBAQUAA4IC
DwAwggIKAoICAQCjsoRvVdFjIgBi9al/+dfN0mKBsnbknwd97BRnHeZhnS7/XV3a
gRULGRHE3GyvAVxhv4WpCCHfYrz23D4LoviMkfQ5geoPT8gMu7z9XSh22i1CdeAc
H8dmM3sTSo8/VTIVpMWarIUemdRmNkb0Eb8LeyHP5SxJi6RGvQfKhEYJbF2Kb0Rl
hf/ZsFKnbl8SFOZCX+fr8li0YOZME+8gG6prCL+vSlejCpqjb7vjm95If9CQGwDa
F4DnQprRDbIVuKZHAs7D5N/YFXZblRpgAHqkuAADzV/Ft9eCCxXQNtZKvU2rcDZf
XoFWlfVzp/petXhUWlMDFU1Y4+QaqxXtHvhVQsglnry3QXkRwu4X5XUg5Z2shTH6
JEKE/0fCwYKtQFrAVTB6yT/SLuUk18p+ejOjK5fiKx739rtOaSW1qaqVZPIfHD6/
qDzapDS05fBNJ7/PlnlhPY5tw37OoX7NY17Pffz2HVAatvoG+zFvokehQJRWxiys
USaXlY+0B+9BeN14l3tWmTeY/kWL+qmUAQGKW1qaQnzC2sesvsHVko12qbRDWii2
SOT9uRrpGyaPcM0dRJQURVeEImfxuoWUFntFDbaAKhPVmabJzsmOqmbT/e20AHjM
JPVouO26ExGtfFO04grgZrj3dQebNXGzCZ9H8Quq5M3zxMa0Lg3OohoRTwIDAQAB
o4GlMIGiMAkGA1UdEwQCMAAwHQYDVR0OBBYEFNcZuDnST3M4ZC3C5vIa5LKlH3Fj
MFQGA1UdIwRNMEuAFIenxXU3CxRsv0YEjCpS6V3aUdzmoR2kGzAZMRcwFQYDVQQD
DA52cG4uamVua2lucy5pb4IUCAGqbRsxQE97nHVUVHi1NmU7fLMwEwYDVR0lBAww
CgYIKwYBBQUHAwIwCwYDVR0PBAQDAgeAMA0GCSqGSIb3DQEBCwUAA4ICAQAiZvzh
YgrigUIF9u0fnfND2uKDHkgRaX7o39PiZoYOrreEZfLg2u4LFtl4wN24yorDhtHh
67Av6buM5vvLEuOhy3j+qqeMO2VdgzqtWPgZTvQUYdh0jcCbDuytkXuCM2DhO+zB
A3uFhodXbYQQ5juzppkGIgT7RpcQ2B89pxgi7Lvhq21YfyKIJLtat3RtV3+ygnT9
6+rJtik8cg5MpunP7zxO8N7Py5l2NF/EyWPYIQCYd9Ci7W4nFRuotcb5oKFP5IkN
7Bg3sOVApXbR4gqDiziFiEroavFbL3r/jeP//IvX1CVG8FIu+aRo64NEFRxGfCg+
jw8K5zThXOwBdZj8NEGnPUgHTocfsW+dAAaFRof/UlLMHDYgMc5vJuevvmm+v5Xu
ndWX+pgcdPhO0bgyRzHwx40x3X84EPNCxv/qpHAOqEyHrZQrfMDUilD38NACzfNl
F1KwqmEsi+bqL9mNm+IEnuzi8F5ISJoKFEOLiHMK+eELFd6XkScBmK12MuXxyO1V
wAiF11XIj1/qNUPBh3ov7KGg0fD+FATyT5rAmF26juVPDV2BZtiMrTrMvWUmsYYD
PSBXZT/teIIvd/A4M24U5zrMxAjx+ywva29tSnWrDeYIV6bVkQ0NOt4FSgOYoVku
zIU+7pNJ7jjgAOu/EeVjt37neCVgOOaAAPRcwQ==
-----END CERTIFICATE-----
