Certificate:
    Data:
        Version: 3 (0x2)
        Serial Number:
            cc:53:09:54:05:67:8c:9c:a1:be:c1:90:18:1e:fc:cb
        Signature Algorithm: sha256WithRSAEncryption
        Issuer: CN=vpn.jenkins.io
        Validity
            Not Before: Jan 15 10:06:55 2025 GMT
            Not After : Dec 31 10:06:55 2027 GMT
        Subject: CN=kevingrdj
        Subject Public Key Info:
            Public Key Algorithm: rsaEncryption
                Public-Key: (4096 bit)
                Modulus:
                    00:d9:ca:27:f7:29:66:84:41:4b:d5:c6:7b:47:f5:
                    74:bc:2d:17:47:98:d4:95:c9:d9:b1:e1:3b:7a:42:
                    5e:45:ed:d8:60:f6:19:87:22:56:bb:3b:be:26:bd:
                    da:89:62:5d:8c:5e:25:17:d0:12:54:fd:11:c3:22:
                    98:0c:e4:49:d1:0b:f5:5f:2c:a7:18:6f:dc:e5:cc:
                    6c:5d:80:6d:c8:4b:74:50:d1:1e:fc:bc:18:ce:c7:
                    02:13:b5:9b:0c:4f:08:0b:7e:e6:b3:2a:1e:1a:bb:
                    1b:18:26:eb:cb:31:8f:13:32:7d:7f:50:8b:d5:07:
                    09:c7:0d:c2:82:8a:17:75:a5:38:f1:8d:71:bf:44:
                    37:96:03:86:4c:89:92:d5:a8:37:92:b3:a8:91:25:
                    67:33:2a:06:06:01:be:c7:6b:21:5b:50:ae:ef:02:
                    d1:96:99:00:fd:24:fe:4a:64:67:61:75:99:c0:fb:
                    5c:af:27:6a:9e:9a:eb:eb:05:17:df:cc:77:87:03:
                    9a:01:88:29:6d:35:04:8c:c1:b0:24:a4:6d:13:39:
                    44:4a:94:74:cf:23:82:f1:a6:e0:66:80:5a:a0:66:
                    17:89:db:c8:94:fd:d2:6d:68:35:02:4c:7d:8d:67:
                    e7:b4:d6:10:5a:d4:e5:c0:c0:7d:cc:f9:af:74:c4:
                    40:1f:e0:54:9c:b5:27:a0:9b:2a:e0:c0:4c:56:e2:
                    df:2f:51:f9:c4:5e:92:41:89:68:e4:a8:10:b5:96:
                    ab:7a:ca:71:fe:cf:00:24:fd:e2:e5:b8:8f:96:5f:
                    65:bf:5b:cd:a8:56:67:72:0d:84:cc:82:38:a7:ac:
                    a4:5c:1a:33:97:6d:84:f8:4a:49:fc:2e:2f:e5:a1:
                    d3:8f:34:6b:61:9b:0b:6f:a1:04:89:73:69:3c:5e:
                    2d:3d:e4:cb:17:cf:ed:7d:d5:26:d8:0a:c5:52:80:
                    4a:6e:03:24:07:3c:49:84:20:cc:49:10:de:25:58:
                    2b:ad:df:cb:12:81:8e:6b:25:06:3a:8e:10:04:72:
                    19:a7:bd:29:54:68:3a:18:0b:1b:32:99:93:80:f0:
                    85:f7:d8:83:92:9b:ff:96:33:87:cf:a2:11:cd:bf:
                    a2:57:e9:70:03:2a:f5:5b:a8:8d:6a:e3:58:29:76:
                    d0:ea:6f:f8:46:7d:d8:ff:a7:7e:4b:a7:7b:c5:5c:
                    3c:e9:d2:36:0c:27:90:05:39:0f:f6:7f:d9:5f:0b:
                    53:6d:0b:ac:a0:69:db:66:52:71:c7:6a:3c:24:aa:
                    64:7e:7e:b3:6f:9f:fd:87:23:ff:4f:12:cf:3a:c2:
                    0c:a2:28:31:d3:e5:af:c6:a9:65:c6:a4:b8:d4:21:
                    b4:19:71
                Exponent: 65537 (0x10001)
        X509v3 extensions:
            X509v3 Basic Constraints: 
                CA:FALSE
            X509v3 Subject Key Identifier: 
                23:13:E7:8C:45:07:6C:79:96:41:E6:E8:B8:41:B1:7F:01:40:AE:39
            X509v3 Authority Key Identifier: 
                keyid:87:A7:C5:75:37:0B:14:6C:BF:46:04:8C:2A:52:E9:5D:DA:51:DC:E6
                DirName:/CN=vpn.jenkins.io
                serial:08:01:AA:6D:1B:31:40:4F:7B:9C:75:54:54:78:B5:36:65:3B:7C:B3
            X509v3 Extended Key Usage: 
                TLS Web Client Authentication
            X509v3 Key Usage: 
                Digital Signature
    Signature Algorithm: sha256WithRSAEncryption
    Signature Value:
        70:df:08:2d:e8:21:1f:4c:0d:aa:ce:27:37:79:17:46:a3:bb:
        c4:51:88:70:fd:70:87:9e:c2:e1:cb:14:b0:72:17:d2:6a:17:
        ae:ff:43:62:46:3a:0d:ea:d2:dc:02:5a:85:ae:d6:24:1d:a7:
        6f:69:57:a1:c4:8d:24:d2:22:1e:d7:55:ae:11:d1:54:cc:3e:
        bd:8d:5e:30:ec:f8:43:b4:4d:65:8d:0f:5f:2d:31:b0:17:8c:
        07:3f:85:9e:97:37:6d:32:c0:22:eb:67:a5:dd:f6:98:a7:45:
        c8:67:22:95:da:81:73:07:da:92:29:78:60:64:8d:af:80:14:
        bd:03:18:43:73:92:88:ac:f2:86:75:c3:12:2b:b3:4b:3a:26:
        d5:b8:c8:d1:f4:88:67:99:82:1e:44:b2:42:f5:37:45:2e:19:
        75:5f:45:cd:69:2c:e7:dc:8e:41:e3:62:d5:8c:d3:47:06:e5:
        57:d4:4c:61:f3:65:cf:c5:16:c5:d9:76:b9:5f:e5:db:71:6d:
        b3:c2:1a:95:a8:45:0f:39:1b:97:ba:91:d2:6d:1e:8b:d0:0c:
        89:2c:09:3a:65:9c:76:e7:90:6e:e1:f8:e7:6f:cc:53:38:14:
        0e:88:22:3e:67:3e:b2:87:fb:7b:12:95:d2:dc:ec:37:09:5f:
        16:fe:94:83:2e:e0:b9:e5:ba:f7:55:38:be:1c:86:a0:cd:aa:
        54:6d:d3:f0:e6:6c:91:5e:29:ae:5b:54:51:2e:82:39:a1:44:
        e7:59:85:26:73:62:ee:63:2c:ed:35:aa:f9:5d:f6:6c:55:c0:
        3b:11:2d:6c:c5:a5:cb:b3:2d:17:3e:56:81:0d:07:9b:04:dc:
        3a:2f:45:cc:82:d5:12:87:d0:a8:e9:3e:fb:dc:f9:24:a6:62:
        ee:19:b6:29:29:db:21:e1:4e:3e:33:91:73:fe:c4:92:0f:99:
        c0:0e:3e:cf:50:4d:36:7e:11:66:16:48:1e:a0:43:b2:ab:dd:
        2f:3b:84:54:01:86:53:5c:db:5e:6a:21:29:c5:b3:a9:13:49:
        73:14:0d:02:87:79:f6:79:b3:44:cd:1e:9a:9d:4e:4a:32:ab:
        2e:d0:10:c1:8f:73:4b:c2:a6:94:43:a5:3b:cc:77:b1:9c:da:
        df:6d:5b:33:4b:e6:db:8b:da:7b:f8:3e:94:15:c0:88:38:56:
        cc:5d:dc:60:1e:f9:0b:24:ba:f9:6d:a8:fa:55:08:c5:bd:44:
        d0:b1:ef:34:3e:09:be:11:e8:e2:ec:4c:fd:f4:5d:94:d0:8b:
        c5:8f:6b:e9:ef:a6:3e:4c:ab:be:0a:dc:8f:2b:05:38:ad:bb:
        94:f6:b6:a9:6b:d0:b6:9f
-----BEGIN CERTIFICATE-----
MIIFXjCCA0agAwIBAgIRAMxTCVQFZ4ycob7BkBge/MswDQYJKoZIhvcNAQELBQAw
GTEXMBUGA1UEAwwOdnBuLmplbmtpbnMuaW8wHhcNMjUwMTE1MTAwNjU1WhcNMjcx
MjMxMTAwNjU1WjAUMRIwEAYDVQQDDAlrZXZpbmdyZGowggIiMA0GCSqGSIb3DQEB
AQUAA4ICDwAwggIKAoICAQDZyif3KWaEQUvVxntH9XS8LRdHmNSVydmx4Tt6Ql5F
7dhg9hmHIla7O74mvdqJYl2MXiUX0BJU/RHDIpgM5EnRC/VfLKcYb9zlzGxdgG3I
S3RQ0R78vBjOxwITtZsMTwgLfuazKh4auxsYJuvLMY8TMn1/UIvVBwnHDcKCihd1
pTjxjXG/RDeWA4ZMiZLVqDeSs6iRJWczKgYGAb7HayFbUK7vAtGWmQD9JP5KZGdh
dZnA+1yvJ2qemuvrBRffzHeHA5oBiCltNQSMwbAkpG0TOURKlHTPI4LxpuBmgFqg
ZheJ28iU/dJtaDUCTH2NZ+e01hBa1OXAwH3M+a90xEAf4FSctSegmyrgwExW4t8v
UfnEXpJBiWjkqBC1lqt6ynH+zwAk/eLluI+WX2W/W82oVmdyDYTMgjinrKRcGjOX
bYT4Skn8Li/lodOPNGthmwtvoQSJc2k8Xi095MsXz+191SbYCsVSgEpuAyQHPEmE
IMxJEN4lWCut38sSgY5rJQY6jhAEchmnvSlUaDoYCxsymZOA8IX32IOSm/+WM4fP
ohHNv6JX6XADKvVbqI1q41gpdtDqb/hGfdj/p35Lp3vFXDzp0jYMJ5AFOQ/2f9lf
C1NtC6ygadtmUnHHajwkqmR+frNvn/2HI/9PEs86wgyiKDHT5a/GqWXGpLjUIbQZ
cQIDAQABo4GlMIGiMAkGA1UdEwQCMAAwHQYDVR0OBBYEFCMT54xFB2x5lkHm6LhB
sX8BQK45MFQGA1UdIwRNMEuAFIenxXU3CxRsv0YEjCpS6V3aUdzmoR2kGzAZMRcw
FQYDVQQDDA52cG4uamVua2lucy5pb4IUCAGqbRsxQE97nHVUVHi1NmU7fLMwEwYD
VR0lBAwwCgYIKwYBBQUHAwIwCwYDVR0PBAQDAgeAMA0GCSqGSIb3DQEBCwUAA4IC
AQBw3wgt6CEfTA2qzic3eRdGo7vEUYhw/XCHnsLhyxSwchfSaheu/0NiRjoN6tLc
AlqFrtYkHadvaVehxI0k0iIe11WuEdFUzD69jV4w7PhDtE1ljQ9fLTGwF4wHP4We
lzdtMsAi62el3faYp0XIZyKV2oFzB9qSKXhgZI2vgBS9AxhDc5KIrPKGdcMSK7NL
OibVuMjR9IhnmYIeRLJC9TdFLhl1X0XNaSzn3I5B42LVjNNHBuVX1Exh82XPxRbF
2Xa5X+XbcW2zwhqVqEUPORuXupHSbR6L0AyJLAk6ZZx255Bu4fjnb8xTOBQOiCI+
Zz6yh/t7EpXS3Ow3CV8W/pSDLuC55br3VTi+HIagzapUbdPw5myRXimuW1RRLoI5
oUTnWYUmc2LuYyztNar5XfZsVcA7ES1sxaXLsy0XPlaBDQebBNw6L0XMgtUSh9Co
6T773PkkpmLuGbYpKdsh4U4+M5Fz/sSSD5nADj7PUE02fhFmFkgeoEOyq90vO4RU
AYZTXNteaiEpxbOpE0lzFA0Ch3n2ebNEzR6anU5KMqsu0BDBj3NLwqaUQ6U7zHex
nNrfbVszS+bbi9p7+D6UFcCIOFbMXdxgHvkLJLr5baj6VQjFvUTQse80Pgm+Eeji
7Ez99F2U0IvFj2vp76Y+TKu+CtyPKwU4rbuU9rapa9C2nw==
-----END CERTIFICATE-----
