Certificate:
    Data:
        Version: 3 (0x2)
        Serial Number:
            ce:ee:62:2e:e0:06:91:c4:c2:71:cb:52:b7:af:ee:a3
    Signature Algorithm: sha256WithRSAEncryption
        Issuer: CN=vpn.jenkins.io
        Validity
            Not Before: Jan 19 22:51:55 2023 GMT
            Not After : Jan  3 22:51:55 2026 GMT
        Subject: CN=timja
        Subject Public Key Info:
            Public Key Algorithm: rsaEncryption
                RSA Public-Key: (4096 bit)
                Modulus:
                    00:cd:1a:c6:6f:8a:81:94:88:5a:e7:41:0e:11:e4:
                    3d:d4:3e:84:16:8b:b9:e1:93:51:d2:2d:8d:35:9f:
                    df:d2:d0:69:a1:05:b1:9e:10:74:ad:c7:28:de:3e:
                    0b:e9:17:43:78:c3:4d:6f:29:ab:ef:1e:81:72:2f:
                    44:9a:62:0f:3a:bf:ed:fb:dc:42:00:6f:06:cc:e1:
                    a8:6b:bd:1c:c5:ec:b9:56:ec:a3:da:40:9e:53:dc:
                    5f:d9:18:90:4a:05:69:c6:3b:52:a9:54:9c:6a:86:
                    37:a2:57:f7:ef:28:a9:0a:ad:c4:da:33:1b:a8:21:
                    e0:6f:43:0c:64:6c:6d:87:2a:f6:66:56:ee:2e:3e:
                    ac:bc:92:d0:3c:b2:9d:64:0f:fd:75:07:64:1d:a4:
                    30:76:7c:9c:56:7b:9a:80:95:ae:90:6d:df:2c:a0:
                    43:e7:4f:ea:cc:bf:13:7f:ad:92:3d:e4:b8:70:d2:
                    a1:77:a3:b9:e2:c2:6b:c5:eb:50:b6:c2:a1:46:76:
                    7b:45:d7:0f:67:37:3a:c7:9a:d0:93:55:3c:d5:38:
                    48:f5:1f:22:ac:64:5d:61:51:66:84:10:45:40:4c:
                    de:ee:44:aa:19:2e:66:40:a0:cf:47:b2:5c:a6:6d:
                    90:ed:c3:f0:8e:00:69:1f:8e:fa:4e:18:d4:33:31:
                    b2:76:c5:82:be:1f:cf:d3:8c:83:d3:d3:de:94:f5:
                    74:bc:e9:4e:4d:36:9f:3a:b9:00:7e:df:a5:54:e4:
                    5f:2d:2e:e7:5b:6d:e8:e0:13:8d:fd:5c:16:23:4f:
                    09:86:70:d7:5d:19:42:05:8e:11:02:91:bf:3c:cf:
                    b1:96:5f:ed:78:a7:d6:3b:f3:4b:ab:2b:54:a6:ed:
                    ff:42:f8:fc:37:06:79:c0:b4:8c:93:93:9e:6b:27:
                    d3:98:bb:95:86:27:e1:db:58:11:86:4d:ca:c8:fc:
                    07:80:b7:18:db:d2:e1:dc:ab:cd:d3:73:bb:42:90:
                    75:39:25:62:95:60:ca:30:f7:f5:d1:02:92:25:0f:
                    e4:d6:c1:16:17:24:bd:d1:c8:93:92:26:6d:02:bc:
                    fc:6a:0d:1b:d1:15:c9:97:66:60:b4:bd:53:26:96:
                    28:1c:56:9e:57:7f:77:89:cf:29:01:6a:94:bc:2a:
                    12:e4:6f:88:f8:0c:a6:a4:b9:8e:19:f4:5b:e1:e7:
                    d3:0b:6d:ac:b5:cd:15:20:3e:61:73:9b:2f:cb:4e:
                    ad:de:94:40:84:34:8d:8a:c4:e6:cb:ed:ce:48:29:
                    23:8a:47:aa:b4:61:e4:82:e4:6e:7b:9e:25:b3:5d:
                    4f:38:b4:ed:b3:9e:8b:21:48:e6:19:3d:b5:b5:67:
                    97:27:29
                Exponent: 65537 (0x10001)
        X509v3 extensions:
            X509v3 Basic Constraints: 
                CA:FALSE
            X509v3 Subject Key Identifier: 
                21:1D:6B:67:3A:D3:49:C7:4F:F4:DD:8A:E4:1E:AF:61:11:24:6D:F8
            X509v3 Authority Key Identifier: 
                keyid:87:A7:C5:75:37:0B:14:6C:BF:46:04:8C:2A:52:E9:5D:DA:51:DC:E6
                DirName:/CN=vpn.jenkins.io
                serial:08:01:AA:6D:1B:31:40:4F:7B:9C:75:54:54:78:B5:36:65:3B:7C:B3

            X509v3 Extended Key Usage: 
                TLS Web Client Authentication
            X509v3 Key Usage: 
                Digital Signature
    Signature Algorithm: sha256WithRSAEncryption
         76:4f:ed:07:c7:54:62:1b:ba:73:39:8d:ff:0e:40:f1:02:bd:
         fe:af:9e:14:43:6a:40:a9:ff:34:6f:17:84:df:9b:d3:02:6a:
         f4:48:b0:62:94:e6:ef:be:37:c4:00:2b:40:92:c6:d7:6a:d0:
         f8:42:b7:fb:e1:cc:c1:a1:e1:de:dc:de:dd:d8:29:67:04:ec:
         ba:29:7d:18:dd:a9:73:b2:3a:b4:46:a0:c9:19:98:72:cb:0a:
         11:48:fc:13:a5:99:08:eb:a5:b1:e7:6f:2f:6d:39:05:11:69:
         ba:86:02:6d:e2:26:d5:cb:ba:37:54:96:48:38:b1:81:f0:cd:
         01:d9:44:cc:87:ce:54:af:63:7c:16:f6:bc:03:7a:f7:6b:57:
         af:b1:ac:93:44:ac:5f:fc:8b:0f:f1:73:60:a6:95:ec:d1:72:
         15:8d:f0:68:16:88:76:79:20:a7:dd:3d:95:59:87:cb:ed:65:
         c9:60:c7:9c:fe:3b:55:af:23:93:d1:30:20:a1:8e:28:8b:9b:
         f0:5e:58:97:a7:b4:a3:6b:1e:44:b5:fb:1b:ee:e2:b5:e8:94:
         f1:55:36:48:a5:6e:9a:89:58:89:63:a4:e0:78:c7:7d:d0:6d:
         42:b5:9c:73:25:bc:7a:1d:f2:e5:58:74:4c:b3:c5:98:fb:2a:
         f1:3d:c6:bd:87:20:9e:19:a2:d0:b6:e1:a1:ed:38:14:b4:a1:
         98:4e:96:b3:2d:77:70:c8:ff:cd:c7:7b:90:14:95:22:da:c1:
         6f:48:41:9b:1e:0b:6d:38:1c:83:71:c1:29:f6:5f:85:f6:5c:
         f2:d1:b7:bd:36:9d:0b:02:cb:52:f4:d6:10:09:12:c0:31:30:
         95:4b:10:71:c8:89:1c:ad:96:2c:7e:e6:f5:09:b4:b2:d2:1d:
         36:d7:98:6b:2a:10:16:f8:de:4e:75:09:8a:a5:23:63:30:97:
         ae:dd:ab:b9:48:ba:e5:7c:5f:15:c5:53:55:3d:91:bd:40:d8:
         15:43:b3:8a:cd:fc:8b:51:75:7e:2f:5f:b3:5a:15:b6:c0:ff:
         5d:7a:fd:79:53:0c:63:1e:ea:0d:9b:80:be:72:4f:01:5c:db:
         c9:74:33:cc:26:69:6d:9d:4b:91:7d:a2:ad:7b:d3:7d:7c:f7:
         19:4d:d3:71:dc:29:2a:79:80:f6:2a:6d:c4:89:d3:1d:e9:79:
         b4:fc:3b:85:2a:db:ef:b2:05:56:66:0a:53:f9:0f:b2:70:cf:
         06:3e:52:c6:98:22:b6:0f:10:db:ea:2a:18:0e:59:2f:dd:12:
         11:47:09:e6:57:45:3f:b6:8c:9a:f5:0d:86:52:81:2b:62:71:
         40:85:33:1c:93:05:60:6b
-----BEGIN CERTIFICATE-----
MIIFWjCCA0KgAwIBAgIRAM7uYi7gBpHEwnHLUrev7qMwDQYJKoZIhvcNAQELBQAw
GTEXMBUGA1UEAwwOdnBuLmplbmtpbnMuaW8wHhcNMjMwMTE5MjI1MTU1WhcNMjYw
MTAzMjI1MTU1WjAQMQ4wDAYDVQQDDAV0aW1qYTCCAiIwDQYJKoZIhvcNAQEBBQAD
ggIPADCCAgoCggIBAM0axm+KgZSIWudBDhHkPdQ+hBaLueGTUdItjTWf39LQaaEF
sZ4QdK3HKN4+C+kXQ3jDTW8pq+8egXIvRJpiDzq/7fvcQgBvBszhqGu9HMXsuVbs
o9pAnlPcX9kYkEoFacY7UqlUnGqGN6JX9+8oqQqtxNozG6gh4G9DDGRsbYcq9mZW
7i4+rLyS0DyynWQP/XUHZB2kMHZ8nFZ7moCVrpBt3yygQ+dP6sy/E3+tkj3kuHDS
oXejueLCa8XrULbCoUZ2e0XXD2c3Osea0JNVPNU4SPUfIqxkXWFRZoQQRUBM3u5E
qhkuZkCgz0eyXKZtkO3D8I4AaR+O+k4Y1DMxsnbFgr4fz9OMg9PT3pT1dLzpTk02
nzq5AH7fpVTkXy0u51tt6OATjf1cFiNPCYZw110ZQgWOEQKRvzzPsZZf7Xin1jvz
S6srVKbt/0L4/DcGecC0jJOTnmsn05i7lYYn4dtYEYZNysj8B4C3GNvS4dyrzdNz
u0KQdTklYpVgyjD39dECkiUP5NbBFhckvdHIk5ImbQK8/GoNG9EVyZdmYLS9UyaW
KBxWnld/d4nPKQFqlLwqEuRviPgMpqS5jhn0W+Hn0wttrLXNFSA+YXObL8tOrd6U
QIQ0jYrE5svtzkgpI4pHqrRh5ILkbnueJbNdTzi07bOeiyFI5hk9tbVnlycpAgMB
AAGjgaUwgaIwCQYDVR0TBAIwADAdBgNVHQ4EFgQUIR1rZzrTScdP9N2K5B6vYREk
bfgwVAYDVR0jBE0wS4AUh6fFdTcLFGy/RgSMKlLpXdpR3OahHaQbMBkxFzAVBgNV
BAMMDnZwbi5qZW5raW5zLmlvghQIAaptGzFAT3ucdVRUeLU2ZTt8szATBgNVHSUE
DDAKBggrBgEFBQcDAjALBgNVHQ8EBAMCB4AwDQYJKoZIhvcNAQELBQADggIBAHZP
7QfHVGIbunM5jf8OQPECvf6vnhRDakCp/zRvF4Tfm9MCavRIsGKU5u++N8QAK0CS
xtdq0PhCt/vhzMGh4d7c3t3YKWcE7LopfRjdqXOyOrRGoMkZmHLLChFI/BOlmQjr
pbHnby9tOQURabqGAm3iJtXLujdUlkg4sYHwzQHZRMyHzlSvY3wW9rwDevdrV6+x
rJNErF/8iw/xc2CmlezRchWN8GgWiHZ5IKfdPZVZh8vtZclgx5z+O1WvI5PRMCCh
jiiLm/BeWJentKNrHkS1+xvu4rXolPFVNkilbpqJWIljpOB4x33QbUK1nHMlvHod
8uVYdEyzxZj7KvE9xr2HIJ4ZotC24aHtOBS0oZhOlrMtd3DI/83He5AUlSLawW9I
QZseC204HINxwSn2X4X2XPLRt702nQsCy1L01hAJEsAxMJVLEHHIiRytlix+5vUJ
tLLSHTbXmGsqEBb43k51CYqlI2Mwl67dq7lIuuV8XxXFU1U9kb1A2BVDs4rN/ItR
dX4vX7NaFbbA/116/XlTDGMe6g2bgL5yTwFc28l0M8wmaW2dS5F9oq1703189xlN
03HcKSp5gPYqbcSJ0x3pebT8O4Uq2++yBVZmClP5D7JwzwY+UsaYIrYPENvqKhgO
WS/dEhFHCeZXRT+2jJr1DYZSgSticUCFMxyTBWBr
-----END CERTIFICATE-----
