Certificate:
    Data:
        Version: 3 (0x2)
        Serial Number:
            d1:0f:30:1c:72:a8:e2:91:97:a2:df:a1:76:90:a3:70
    Signature Algorithm: sha256WithRSAEncryption
        Issuer: CN=vpn.jenkins.io
        Validity
            Not Before: Mar  4 13:23:52 2022 GMT
            Not After : Feb 16 13:23:52 2025 GMT
        Subject: CN=danielbeck
        Subject Public Key Info:
            Public Key Algorithm: rsaEncryption
                Public-Key: (4096 bit)
                Modulus:
                    00:cf:50:f8:6e:90:60:09:91:f7:9f:79:f5:2c:7b:
                    31:86:f8:79:5d:13:8a:d0:0b:a2:0e:23:d0:e7:56:
                    6d:ed:c1:56:09:ed:5a:02:f4:07:4e:a2:f4:b8:cb:
                    af:fd:c8:a7:9f:f8:13:31:32:3a:c1:7f:f9:a1:fa:
                    2c:45:68:93:f8:c4:3d:02:e2:12:d8:ef:53:de:26:
                    03:b3:49:fc:64:75:fd:81:b4:13:5b:c5:51:5a:c2:
                    50:bb:c4:0f:10:ce:bd:eb:5b:4d:06:04:f5:d0:14:
                    03:17:56:87:35:f3:d3:9f:43:57:9a:42:af:47:f3:
                    5d:d0:5c:03:7a:90:3c:a2:25:89:5c:de:c8:10:8d:
                    fa:6e:ad:8f:0b:ee:30:b8:f9:9f:1e:c1:4a:39:cd:
                    29:19:4b:e6:de:4e:0a:56:01:4b:b8:09:f9:2e:40:
                    c0:2f:82:c9:96:21:5a:6a:f8:9b:d8:0f:91:67:ae:
                    2b:ce:9f:fb:53:79:11:22:87:bd:4f:f3:94:88:12:
                    ae:ff:e4:39:b2:14:8c:72:4a:69:a6:45:05:de:fa:
                    f3:95:bb:59:dc:1b:9c:c3:bd:6a:54:93:81:82:e3:
                    13:ac:77:9e:b3:ac:9a:b5:d8:f8:8c:a4:2c:fa:ba:
                    b8:df:d3:21:42:f0:0d:2d:73:b1:02:31:b9:e0:b4:
                    91:a3:f1:84:98:cd:98:62:03:3a:5b:e5:27:2d:9e:
                    bf:ae:ec:e9:a5:a2:ae:9a:88:18:0f:f0:ad:e5:d8:
                    f9:6f:2b:d0:b6:84:32:4f:a4:7b:3c:0d:12:9d:63:
                    0e:98:5d:4d:64:ca:c9:97:44:cd:2d:c0:56:ce:56:
                    51:dd:4c:db:81:12:57:b5:52:4d:8e:2c:02:89:4f:
                    1e:8a:24:33:a0:34:87:d1:6d:3e:14:b1:ee:4a:62:
                    5b:7b:fd:fa:27:7f:51:ee:41:bd:d3:5c:15:9f:26:
                    c3:ad:df:2b:cc:5a:ee:eb:df:64:c8:b7:75:f1:78:
                    9c:ed:cd:a3:3c:b6:75:9f:9d:12:08:39:f1:44:2f:
                    73:7b:2d:c3:4e:9e:0b:68:84:b6:f3:c1:49:3a:9d:
                    5d:23:65:d5:af:ca:0d:ea:8d:e3:45:64:c9:53:02:
                    06:68:54:30:bd:0e:60:13:85:84:60:6c:b0:db:65:
                    b3:54:e5:56:19:01:eb:4c:50:61:e3:e5:6a:91:ba:
                    08:c3:33:a2:4f:1d:a1:ad:77:e8:d1:ea:83:b1:cc:
                    d8:0c:3b:be:ed:bf:ed:73:b1:00:a1:de:2c:ca:ed:
                    7d:f8:4d:84:f4:41:67:26:74:76:ca:48:dd:6b:06:
                    d9:7a:79:9a:24:6b:45:a3:14:c1:2f:2a:26:7f:42:
                    57:d2:e3
                Exponent: 65537 (0x10001)
        X509v3 extensions:
            X509v3 Basic Constraints: 
                CA:FALSE
            X509v3 Subject Key Identifier: 
                FC:F9:DC:BB:DD:AD:5A:B7:EA:67:7F:1E:F1:E9:54:A0:71:9F:A5:3F
            X509v3 Authority Key Identifier: 
                keyid:87:A7:C5:75:37:0B:14:6C:BF:46:04:8C:2A:52:E9:5D:DA:51:DC:E6
                DirName:/CN=vpn.jenkins.io
                serial:08:01:AA:6D:1B:31:40:4F:7B:9C:75:54:54:78:B5:36:65:3B:7C:B3

            X509v3 Extended Key Usage: 
                TLS Web Client Authentication
            X509v3 Key Usage: 
                Digital Signature
    Signature Algorithm: sha256WithRSAEncryption
         82:76:f5:23:86:01:cb:4c:29:49:53:5f:f7:0f:7b:7a:0a:6a:
         2d:ab:77:ab:ce:a5:8e:1a:5a:3f:19:9f:c0:02:af:36:af:35:
         2c:6d:d7:d8:60:4c:d9:4e:22:fd:78:e9:34:7f:30:f4:5e:5e:
         a1:59:d6:42:a6:3c:a8:b0:26:82:3d:b3:13:64:d6:0b:59:38:
         43:12:64:ae:71:24:92:3d:16:87:cb:6e:ba:90:58:08:29:d9:
         a2:63:9c:65:fc:4f:55:37:f4:5c:06:49:22:c9:5c:0c:37:dd:
         6a:ab:22:92:fd:3a:71:c7:9a:17:c4:bf:ec:e2:1d:e1:47:1d:
         4d:bc:81:73:1d:e7:e6:ed:a2:14:18:36:7d:ab:56:9c:8c:75:
         85:01:36:29:7b:00:7e:22:91:0c:e1:ee:00:12:af:e4:4b:a2:
         bd:1c:67:bf:72:a4:0c:0a:79:46:1a:e5:8a:de:38:26:fa:6c:
         18:ae:24:09:b3:66:38:59:2f:4d:02:2b:d7:db:22:c0:0a:d3:
         11:30:4c:49:97:e0:3b:8b:29:e7:8a:13:ea:0a:13:f4:fd:70:
         55:60:92:58:13:eb:07:27:54:2c:f3:fa:ac:c4:0b:76:02:10:
         1a:ec:82:a3:fc:99:1d:45:78:52:96:a7:7a:6b:27:fc:8e:66:
         99:69:8e:01:b8:e5:21:70:8e:cd:f3:3e:20:da:6f:ed:26:ac:
         92:d8:a3:99:a8:b5:bc:ff:1f:05:47:92:0b:47:a7:58:dc:c7:
         2c:a2:22:0b:82:ce:3d:02:f5:d2:56:af:cc:d4:e7:5c:67:80:
         1b:6f:ae:5a:38:50:30:8f:38:79:78:87:98:a7:19:b3:a1:63:
         a1:84:3c:10:ce:ca:e6:b9:fb:c6:36:91:bf:56:3e:51:a4:f2:
         7b:d0:e5:3d:74:ad:30:64:26:0e:1a:8f:08:b6:37:0c:98:01:
         ba:4d:ab:82:3d:26:53:20:7b:da:ff:1c:c0:e1:70:7e:a0:4f:
         3a:cc:fd:35:7b:86:83:34:12:11:bf:79:b6:1f:68:80:e7:26:
         65:a6:67:72:15:4d:e3:8d:54:6c:d7:cd:5e:6a:b3:b6:03:1b:
         7c:11:55:44:e8:47:3e:18:a6:bc:7a:e6:c9:b5:98:47:0a:8a:
         cb:2d:4a:9d:54:8b:78:47:88:b4:86:53:99:df:c4:0c:be:a6:
         92:44:a3:9e:93:77:0f:bf:a6:08:63:65:1d:d6:d7:66:a2:f7:
         79:54:77:39:26:00:e5:18:53:b9:63:4a:1b:fb:22:ad:25:92:
         34:49:5a:fb:28:5b:72:91:36:98:78:79:6d:72:a4:79:79:85:
         ff:fc:ba:a5:e2:9f:ab:60
-----BEGIN CERTIFICATE-----
MIIFXzCCA0egAwIBAgIRANEPMBxyqOKRl6LfoXaQo3AwDQYJKoZIhvcNAQELBQAw
GTEXMBUGA1UEAwwOdnBuLmplbmtpbnMuaW8wHhcNMjIwMzA0MTMyMzUyWhcNMjUw
MjE2MTMyMzUyWjAVMRMwEQYDVQQDDApkYW5pZWxiZWNrMIICIjANBgkqhkiG9w0B
AQEFAAOCAg8AMIICCgKCAgEAz1D4bpBgCZH3n3n1LHsxhvh5XROK0AuiDiPQ51Zt
7cFWCe1aAvQHTqL0uMuv/cinn/gTMTI6wX/5ofosRWiT+MQ9AuIS2O9T3iYDs0n8
ZHX9gbQTW8VRWsJQu8QPEM6961tNBgT10BQDF1aHNfPTn0NXmkKvR/Nd0FwDepA8
oiWJXN7IEI36bq2PC+4wuPmfHsFKOc0pGUvm3k4KVgFLuAn5LkDAL4LJliFaavib
2A+RZ64rzp/7U3kRIoe9T/OUiBKu/+Q5shSMckpppkUF3vrzlbtZ3Bucw71qVJOB
guMTrHees6yatdj4jKQs+rq439MhQvANLXOxAjG54LSRo/GEmM2YYgM6W+UnLZ6/
ruzppaKumogYD/Ct5dj5byvQtoQyT6R7PA0SnWMOmF1NZMrJl0TNLcBWzlZR3Uzb
gRJXtVJNjiwCiU8eiiQzoDSH0W0+FLHuSmJbe/36J39R7kG901wVnybDrd8rzFru
699kyLd18Xic7c2jPLZ1n50SCDnxRC9zey3DTp4LaIS288FJOp1dI2XVr8oN6o3j
RWTJUwIGaFQwvQ5gE4WEYGyw22WzVOVWGQHrTFBh4+VqkboIwzOiTx2hrXfo0eqD
sczYDDu+7b/tc7EAod4syu19+E2E9EFnJnR2ykjdawbZenmaJGtFoxTBLyomf0JX
0uMCAwEAAaOBpTCBojAJBgNVHRMEAjAAMB0GA1UdDgQWBBT8+dy73a1at+pnfx7x
6VSgcZ+lPzBUBgNVHSMETTBLgBSHp8V1NwsUbL9GBIwqUuld2lHc5qEdpBswGTEX
MBUGA1UEAwwOdnBuLmplbmtpbnMuaW+CFAgBqm0bMUBPe5x1VFR4tTZlO3yzMBMG
A1UdJQQMMAoGCCsGAQUFBwMCMAsGA1UdDwQEAwIHgDANBgkqhkiG9w0BAQsFAAOC
AgEAgnb1I4YBy0wpSVNf9w97egpqLat3q86ljhpaPxmfwAKvNq81LG3X2GBM2U4i
/XjpNH8w9F5eoVnWQqY8qLAmgj2zE2TWC1k4QxJkrnEkkj0Wh8tuupBYCCnZomOc
ZfxPVTf0XAZJIslcDDfdaqsikv06cceaF8S/7OId4UcdTbyBcx3n5u2iFBg2fatW
nIx1hQE2KXsAfiKRDOHuABKv5EuivRxnv3KkDAp5Rhrlit44JvpsGK4kCbNmOFkv
TQIr19siwArTETBMSZfgO4sp54oT6goT9P1wVWCSWBPrBydULPP6rMQLdgIQGuyC
o/yZHUV4Upanemsn/I5mmWmOAbjlIXCOzfM+INpv7Sasktijmai1vP8fBUeSC0en
WNzHLKIiC4LOPQL10lavzNTnXGeAG2+uWjhQMI84eXiHmKcZs6FjoYQ8EM7K5rn7
xjaRv1Y+UaTye9DlPXStMGQmDhqPCLY3DJgBuk2rgj0mUyB72v8cwOFwfqBPOsz9
NXuGgzQSEb95th9ogOcmZaZnchVN441UbNfNXmqztgMbfBFVROhHPhimvHrmybWY
RwqKyy1KnVSLeEeItIZTmd/EDL6mkkSjnpN3D7+mCGNlHdbXZqL3eVR3OSYA5RhT
uWNKG/sirSWSNEla+yhbcpE2mHh5bXKkeXmF//y6peKfq2A=
-----END CERTIFICATE-----
