Certificate:
    Data:
        Version: 3 (0x2)
        Serial Number:
            d1:40:e3:70:35:bd:34:d4:4a:5b:f5:66:ad:25:bd:3f
        Signature Algorithm: sha256WithRSAEncryption
        Issuer: CN=vpn.jenkins.io
        Validity
            Not Before: Feb 24 12:48:14 2020 GMT
            Not After : Feb  8 12:48:14 2023 GMT
        Subject: CN=markewaite
        Subject Public Key Info:
            Public Key Algorithm: rsaEncryption
                RSA Public-Key: (4096 bit)
                Modulus:
                    00:cf:35:23:f8:8e:36:45:a3:81:9c:e5:21:da:b0:
                    4b:63:dd:49:f3:23:f2:0b:f7:94:65:c6:af:1a:7e:
                    23:40:d2:ae:6c:4b:6e:e8:3e:b9:9f:4c:ed:72:b1:
                    23:da:50:4c:dd:29:fc:51:98:a4:da:8d:de:91:37:
                    b5:67:01:c0:a7:e3:47:a2:db:9d:1b:65:61:e5:5e:
                    28:4f:65:a1:cd:f8:af:76:bf:44:9b:aa:f6:e0:7c:
                    46:2a:62:26:29:ce:fe:be:1b:b5:d1:94:70:6c:1e:
                    d7:be:ef:ed:f7:c0:1f:46:10:53:4f:40:12:60:c5:
                    cd:32:88:78:1f:52:82:58:eb:22:89:48:3b:a3:e4:
                    e8:78:c7:55:28:b0:d3:ec:9d:13:f5:23:6c:c2:b0:
                    a7:1d:bc:35:09:bb:9d:cc:12:01:c4:b4:d5:02:7c:
                    9c:09:ab:71:de:e3:1f:27:f4:49:cd:fd:7a:b9:59:
                    60:8d:ea:eb:8f:1f:a6:a7:90:5f:05:aa:aa:2d:4c:
                    b2:9a:fd:bf:e7:25:62:90:9f:82:81:a3:6a:a4:aa:
                    a4:58:99:70:2d:66:e3:96:d2:d5:60:cd:0b:0d:37:
                    09:1b:76:23:86:6d:7b:e0:65:0f:48:a1:19:04:47:
                    0e:ab:6d:b8:d5:f4:74:53:14:37:65:e8:21:8a:f8:
                    8d:06:72:42:f2:6d:a9:6c:98:34:28:b0:5d:23:26:
                    72:4b:c8:f8:56:cb:cf:40:dd:ad:49:35:f1:8f:38:
                    05:f7:c7:5a:d9:63:b0:03:06:8f:d8:44:4f:0c:de:
                    a4:d6:95:2f:12:be:f9:05:20:30:8c:c6:ae:13:e9:
                    2d:c0:83:7e:f9:bf:d4:93:5d:d1:b5:6e:1b:6b:78:
                    7c:89:ae:11:f7:58:9c:70:5a:20:2c:05:3b:2f:d6:
                    56:08:87:d8:c0:d0:90:86:c4:57:95:97:db:32:da:
                    c5:89:dd:da:d2:3a:06:9d:2e:2d:d0:61:65:c8:b3:
                    23:3b:24:02:35:85:f0:af:51:33:cd:66:29:96:b0:
                    27:32:5c:40:44:68:09:9c:05:e0:f1:37:2e:69:c7:
                    37:b3:b2:bf:83:5d:13:90:a2:33:f2:59:21:65:19:
                    7d:a3:ae:10:5f:12:ac:20:13:6d:5d:e3:ec:11:da:
                    ab:6c:5e:86:c6:13:e5:60:59:02:7f:05:03:26:74:
                    87:b3:f5:36:7b:b8:05:06:c0:d8:ba:d6:b2:58:fc:
                    93:18:b3:00:de:5d:6e:cf:7f:c6:72:87:7c:4c:74:
                    a6:b9:b5:55:95:f1:ca:41:f1:a0:2d:80:c7:31:80:
                    fd:aa:7b:5d:d9:9c:58:20:4a:46:b6:a7:c7:63:d4:
                    8c:65:2f
                Exponent: 65537 (0x10001)
        X509v3 extensions:
            X509v3 Basic Constraints: 
                CA:FALSE
            X509v3 Subject Key Identifier: 
                03:1D:A2:12:CB:EB:1C:7E:CC:C7:FE:F1:D0:81:2C:E1:A8:C6:C0:0C
            X509v3 Authority Key Identifier: 
                keyid:87:A7:C5:75:37:0B:14:6C:BF:46:04:8C:2A:52:E9:5D:DA:51:DC:E6
                DirName:/CN=vpn.jenkins.io
                serial:08:01:AA:6D:1B:31:40:4F:7B:9C:75:54:54:78:B5:36:65:3B:7C:B3

            X509v3 Extended Key Usage: 
                TLS Web Client Authentication
            X509v3 Key Usage: 
                Digital Signature
    Signature Algorithm: sha256WithRSAEncryption
         2b:26:42:64:0d:87:58:3e:6d:37:69:fe:e2:2e:f0:30:31:36:
         1c:37:2a:7c:ee:63:82:d1:ff:c4:61:82:4d:91:c5:4a:31:65:
         18:11:62:e4:95:6f:b5:2e:18:d9:54:5e:a4:24:9a:e5:53:76:
         40:97:7a:a9:7c:50:e0:9c:a6:df:3f:12:af:1e:4f:ac:26:91:
         b6:6e:b7:7f:6a:0d:da:1e:e4:56:4a:e3:9e:a2:de:4a:89:bf:
         44:7c:a0:45:33:ca:c7:d3:b1:f7:82:86:b3:33:f1:e5:07:bf:
         84:a7:74:7f:a4:3d:23:c8:a5:53:8e:60:d0:26:1d:a3:ef:e3:
         3c:70:29:7d:c8:64:a2:f1:ae:00:e1:83:da:13:95:78:f8:e3:
         90:b7:ce:52:67:42:33:0e:80:e8:1c:e1:17:5c:71:e2:4b:cd:
         d7:11:c4:12:6d:7c:3a:34:06:89:bf:02:59:3b:67:88:7b:de:
         ac:22:02:56:a5:0c:56:25:c5:b1:cb:a4:8d:f4:bf:8c:6e:63:
         73:f4:57:2a:9b:61:dc:06:e5:c1:82:8a:bc:62:49:89:d8:22:
         f6:58:a2:ef:fd:8f:1b:2b:dd:77:11:a6:6b:58:a6:5c:81:1f:
         32:13:e8:46:0a:68:f8:e8:78:cc:2e:ec:8e:30:07:fb:77:e1:
         8d:fd:4b:31:e8:11:d2:11:08:70:b8:6f:61:05:62:bc:2f:e4:
         fb:ab:b5:2f:69:03:63:f7:86:64:9b:d3:32:21:ca:45:ea:b7:
         06:2d:ad:1b:e3:43:33:27:5b:dd:33:23:f7:aa:e9:90:07:71:
         7d:96:5f:07:3b:e6:8d:27:42:12:6f:f3:4a:1b:a2:2b:21:33:
         a1:a3:ab:76:80:ee:17:06:bc:45:70:3c:2c:c5:40:d3:0c:8a:
         fd:e0:fa:fb:2f:c6:0c:67:55:33:5a:c5:57:a4:34:a0:e0:0f:
         8d:4b:ab:e2:40:c0:95:11:01:b1:19:72:f2:13:58:4d:d1:0a:
         44:39:58:46:ba:65:af:d7:3b:fb:76:3a:bb:73:17:7d:08:fb:
         6e:29:91:66:3d:69:bd:90:3c:04:63:af:57:fb:ed:d4:b7:a4:
         16:0d:ed:44:37:b0:e9:51:1d:35:98:f6:60:e6:18:ef:bd:65:
         e3:00:81:a5:a7:bf:f1:2a:2c:76:49:19:bf:16:51:6d:2f:53:
         52:aa:bb:63:16:7e:5b:4d:a9:b9:78:f2:19:a8:29:7d:65:ed:
         a2:20:1b:67:0b:d6:40:50:e8:8e:31:30:b3:fb:5c:e3:28:e8:
         35:8c:b2:e7:b9:bb:46:27:71:89:06:b1:19:a7:16:fd:c6:76:
         74:53:19:81:04:25:74:68
-----BEGIN CERTIFICATE-----
MIIFXzCCA0egAwIBAgIRANFA43A1vTTUSlv1Zq0lvT8wDQYJKoZIhvcNAQELBQAw
GTEXMBUGA1UEAwwOdnBuLmplbmtpbnMuaW8wHhcNMjAwMjI0MTI0ODE0WhcNMjMw
MjA4MTI0ODE0WjAVMRMwEQYDVQQDDAptYXJrZXdhaXRlMIICIjANBgkqhkiG9w0B
AQEFAAOCAg8AMIICCgKCAgEAzzUj+I42RaOBnOUh2rBLY91J8yPyC/eUZcavGn4j
QNKubEtu6D65n0ztcrEj2lBM3Sn8UZik2o3ekTe1ZwHAp+NHotudG2Vh5V4oT2Wh
zfivdr9Em6r24HxGKmImKc7+vhu10ZRwbB7Xvu/t98AfRhBTT0ASYMXNMoh4H1KC
WOsiiUg7o+ToeMdVKLDT7J0T9SNswrCnHbw1CbudzBIBxLTVAnycCatx3uMfJ/RJ
zf16uVlgjerrjx+mp5BfBaqqLUyymv2/5yVikJ+CgaNqpKqkWJlwLWbjltLVYM0L
DTcJG3Yjhm174GUPSKEZBEcOq2241fR0UxQ3ZeghiviNBnJC8m2pbJg0KLBdIyZy
S8j4VsvPQN2tSTXxjzgF98da2WOwAwaP2ERPDN6k1pUvEr75BSAwjMauE+ktwIN+
+b/Uk13RtW4ba3h8ia4R91iccFogLAU7L9ZWCIfYwNCQhsRXlZfbMtrFid3a0joG
nS4t0GFlyLMjOyQCNYXwr1EzzWYplrAnMlxARGgJnAXg8Tcuacc3s7K/g10TkKIz
8lkhZRl9o64QXxKsIBNtXePsEdqrbF6GxhPlYFkCfwUDJnSHs/U2e7gFBsDYutay
WPyTGLMA3l1uz3/Gcod8THSmubVVlfHKQfGgLYDHMYD9qntd2ZxYIEpGtqfHY9SM
ZS8CAwEAAaOBpTCBojAJBgNVHRMEAjAAMB0GA1UdDgQWBBQDHaISy+scfszH/vHQ
gSzhqMbADDBUBgNVHSMETTBLgBSHp8V1NwsUbL9GBIwqUuld2lHc5qEdpBswGTEX
MBUGA1UEAwwOdnBuLmplbmtpbnMuaW+CFAgBqm0bMUBPe5x1VFR4tTZlO3yzMBMG
A1UdJQQMMAoGCCsGAQUFBwMCMAsGA1UdDwQEAwIHgDANBgkqhkiG9w0BAQsFAAOC
AgEAKyZCZA2HWD5tN2n+4i7wMDE2HDcqfO5jgtH/xGGCTZHFSjFlGBFi5JVvtS4Y
2VRepCSa5VN2QJd6qXxQ4Jym3z8Srx5PrCaRtm63f2oN2h7kVkrjnqLeSom/RHyg
RTPKx9Ox94KGszPx5Qe/hKd0f6Q9I8ilU45g0CYdo+/jPHApfchkovGuAOGD2hOV
ePjjkLfOUmdCMw6A6BzhF1xx4kvN1xHEEm18OjQGib8CWTtniHverCICVqUMViXF
scukjfS/jG5jc/RXKpth3AblwYKKvGJJidgi9lii7/2PGyvddxGma1imXIEfMhPo
Rgpo+Oh4zC7sjjAH+3fhjf1LMegR0hEIcLhvYQVivC/k+6u1L2kDY/eGZJvTMiHK
Req3Bi2tG+NDMydb3TMj96rpkAdxfZZfBzvmjSdCEm/zShuiKyEzoaOrdoDuFwa8
RXA8LMVA0wyK/eD6+y/GDGdVM1rFV6Q0oOAPjUur4kDAlREBsRly8hNYTdEKRDlY
Rrplr9c7+3Y6u3MXfQj7bimRZj1pvZA8BGOvV/vt1LekFg3tRDew6VEdNZj2YOYY
771l4wCBpae/8SosdkkZvxZRbS9TUqq7YxZ+W02puXjyGagpfWXtoiAbZwvWQFDo
jjEws/tc4yjoNYyy57m7RidxiQaxGacW/cZ2dFMZgQQldGg=
-----END CERTIFICATE-----
