Certificate:
    Data:
        Version: 3 (0x2)
        Serial Number:
            d8:67:e7:97:45:aa:cb:e0:15:3f:34:d9:9a:b6:94:fc
        Signature Algorithm: sha256WithRSAEncryption
        Issuer: CN=cert.vpn.jenkins.io
        Validity
            Not Before: Mar 12 13:11:11 2019 GMT
            Not After : Feb 24 13:11:11 2022 GMT
        Subject: CN=olblak
        Subject Public Key Info:
            Public Key Algorithm: rsaEncryption
                RSA Public-Key: (4096 bit)
                Modulus:
                    00:a0:70:07:ce:c3:9e:7c:f4:48:cd:52:dd:a4:2a:
                    15:3a:33:63:8a:97:66:25:43:95:81:39:99:0c:cf:
                    5d:43:3b:c1:a9:3a:f1:f8:fc:ee:a7:28:64:83:5b:
                    5e:35:ad:bc:db:73:c8:48:c2:c2:de:b5:d7:32:d9:
                    c2:d9:4c:52:57:99:e2:c7:62:ed:02:d6:d5:4a:58:
                    31:ad:ed:cf:bc:69:28:78:ed:e6:a3:66:0d:dc:81:
                    0b:bd:52:9c:c1:a7:0b:d6:cd:79:ac:ec:51:9f:94:
                    2c:ee:f8:93:5b:f7:1d:ed:b2:c7:cb:d7:27:18:2a:
                    b5:46:af:34:f3:f1:a7:3f:f1:71:eb:e5:d6:24:bb:
                    87:63:04:a7:e6:bb:97:c0:52:c0:af:45:f9:a1:be:
                    92:3d:c1:c2:15:2b:88:2f:5e:3e:a4:7e:27:b3:71:
                    dc:c9:5e:01:87:ee:cc:84:6e:27:82:35:f2:08:4a:
                    b3:64:00:46:6a:94:a2:85:68:7b:11:11:1c:5c:13:
                    1e:97:07:1a:44:51:bb:fd:bf:ae:15:81:4d:c8:56:
                    7e:f8:14:c1:77:5e:66:48:ed:e5:34:d3:75:1d:fd:
                    aa:75:b6:ee:63:64:e9:78:21:13:0a:ef:37:d3:dd:
                    01:fe:b7:32:92:38:1c:2e:bb:49:36:95:b9:00:e5:
                    39:b2:a7:6b:f2:96:95:1d:b5:31:bd:0e:49:e0:7d:
                    34:22:43:43:e1:c7:df:be:53:5b:c0:01:db:c5:1a:
                    0e:02:fc:70:21:28:ba:2a:9a:23:b7:a9:6b:37:b6:
                    66:d2:4a:d8:20:95:87:c1:48:72:2b:00:d9:17:85:
                    a7:9d:8e:a6:03:54:0b:e6:81:c8:d0:4b:24:c1:f7:
                    36:e2:6d:57:a6:7f:b0:f0:0e:46:9a:98:d6:dc:6c:
                    c0:24:ac:ff:5e:b7:00:1e:3a:8a:f8:d5:44:6b:f2:
                    b5:0c:cd:b7:bb:cf:02:f8:bb:50:c1:28:d4:9d:60:
                    a2:4e:e5:16:f0:91:2c:4c:d0:d9:0a:21:b1:94:e2:
                    fb:8f:6c:54:3e:7c:d5:e4:40:05:6b:8a:0b:7f:e2:
                    54:cc:f9:8a:1f:20:b6:7c:6c:08:cf:af:52:88:94:
                    cc:57:18:98:08:84:20:4e:bf:7d:f8:f9:1c:c4:91:
                    1f:e4:df:96:48:eb:f7:34:0b:ba:2c:c1:9f:9d:1a:
                    0a:99:b6:48:7d:66:2b:35:92:ec:43:54:9b:99:eb:
                    cb:a6:77:f9:13:dd:5d:12:04:df:a3:0b:5c:55:9c:
                    ef:40:6d:d8:09:c2:ec:b7:c1:d9:78:5a:96:35:ea:
                    d5:7e:da:ad:db:1e:1d:35:57:06:6a:45:0b:da:9b:
                    d8:6c:dd
                Exponent: 65537 (0x10001)
        X509v3 extensions:
            X509v3 Basic Constraints: 
                CA:FALSE
            X509v3 Subject Key Identifier: 
                DB:7B:8C:A7:73:63:A0:CA:35:68:2E:70:24:09:0B:C6:C0:B7:5D:AA
            X509v3 Authority Key Identifier: 
                keyid:37:3A:6A:38:F9:ED:57:DD:E6:49:89:22:8E:62:EE:1A:77:74:D2:21
                DirName:/CN=cert.vpn.jenkins.io
                serial:2C:76:6D:8B:24:C7:DA:61:FF:37:0F:C4:DC:B8:AF:59:46:1A:E6:1E

            X509v3 Extended Key Usage: 
                TLS Web Client Authentication
            X509v3 Key Usage: 
                Digital Signature
    Signature Algorithm: sha256WithRSAEncryption
         72:fe:f4:06:b3:22:e3:8a:8d:a1:3d:fa:2e:b8:d0:c2:0f:d7:
         52:06:97:e2:70:0f:76:95:85:17:c5:d7:1e:d1:69:e4:c6:16:
         20:b1:20:c2:6c:70:23:05:52:1a:dd:1f:b5:44:bc:2d:1f:8e:
         d2:c1:ee:7f:cd:5b:57:ba:41:1b:b4:98:23:19:fe:97:8a:85:
         cc:4f:9f:33:37:24:0a:0b:67:8b:73:03:e5:39:f4:0d:b2:17:
         8e:d7:be:ff:8a:a8:89:b7:7c:6e:fa:fa:8d:d6:9f:67:e4:d7:
         c8:b2:05:50:57:04:1d:a3:4f:38:36:f5:98:0e:f9:dd:a4:c9:
         ac:90:7b:ef:72:c0:6e:fd:00:59:41:3e:af:43:ed:93:7a:54:
         e0:69:b6:1b:b6:9e:67:72:22:a7:f8:0b:9e:9c:b3:92:78:61:
         52:76:6c:1f:44:1c:8d:ee:1b:87:1f:a7:5c:98:d9:f7:8a:c6:
         3c:3b:56:66:36:b7:6a:88:32:58:73:cb:aa:48:c0:c9:d7:bb:
         8d:32:28:c7:6e:3d:93:05:ee:c7:35:c3:4e:fa:dc:ee:81:a3:
         50:a0:41:30:fa:18:c8:66:29:d8:9f:26:b7:ee:05:a9:81:cf:
         6a:bf:cf:b8:bd:75:86:3c:40:63:05:4c:81:ab:e8:0b:50:49:
         86:c3:4c:04:af:f8:e0:e8:d8:ad:48:34:41:ce:b2:12:f8:06:
         ea:ab:8f:d7:4e:2a:80:de:6d:9c:45:aa:fe:84:c2:8f:e1:78:
         ba:db:08:1f:82:1d:82:59:17:d2:df:b5:f9:05:62:3b:aa:24:
         28:98:ff:20:76:a3:69:0f:65:69:f1:38:38:5f:a2:fb:ca:2f:
         4f:bd:7c:98:f5:11:1b:04:ee:4d:36:31:b3:87:0c:6c:c3:a1:
         b8:c3:63:cc:c9:84:e2:6a:e7:4a:37:61:a7:0a:92:2a:d7:1e:
         81:4c:79:c5:68:91:b7:a7:4f:32:27:8f:20:62:b6:67:48:c2:
         59:3a:1d:5d:be:97:b3:f9:3f:27:ac:73:70:c7:bf:1a:e9:8a:
         ad:70:b5:67:90:c4:70:ea:8d:8a:81:a2:51:2a:a9:41:39:7f:
         06:63:f0:23:af:d1:cf:0f:ba:2e:60:18:14:80:c8:14:91:80:
         d5:c3:43:87:23:73:fd:e3:8c:7a:58:e5:17:be:c3:aa:ac:4b:
         92:9d:6c:1b:fd:72:c9:7c:2b:b7:30:5c:d7:37:8d:1f:56:bf:
         64:1b:f4:ad:6e:38:d5:72:c5:1b:25:60:26:14:64:4f:3d:4a:
         91:ea:46:41:d3:c3:f9:bc:b4:c5:02:16:9b:a6:dd:d6:ae:e3:
         2c:47:2e:2e:10:5d:cb:ab
-----BEGIN CERTIFICATE-----
MIIFZTCCA02gAwIBAgIRANhn55dFqsvgFT802Zq2lPwwDQYJKoZIhvcNAQELBQAw
HjEcMBoGA1UEAwwTY2VydC52cG4uamVua2lucy5pbzAeFw0xOTAzMTIxMzExMTFa
Fw0yMjAyMjQxMzExMTFaMBExDzANBgNVBAMMBm9sYmxhazCCAiIwDQYJKoZIhvcN
AQEBBQADggIPADCCAgoCggIBAKBwB87Dnnz0SM1S3aQqFTozY4qXZiVDlYE5mQzP
XUM7wak68fj87qcoZINbXjWtvNtzyEjCwt611zLZwtlMUleZ4sdi7QLW1UpYMa3t
z7xpKHjt5qNmDdyBC71SnMGnC9bNeazsUZ+ULO74k1v3He2yx8vXJxgqtUavNPPx
pz/xcevl1iS7h2MEp+a7l8BSwK9F+aG+kj3BwhUriC9ePqR+J7Nx3MleAYfuzIRu
J4I18ghKs2QARmqUooVoexERHFwTHpcHGkRRu/2/rhWBTchWfvgUwXdeZkjt5TTT
dR39qnW27mNk6XghEwrvN9PdAf63MpI4HC67STaVuQDlObKna/KWlR21Mb0OSeB9
NCJDQ+HH375TW8AB28UaDgL8cCEouiqaI7epaze2ZtJK2CCVh8FIcisA2ReFp52O
pgNUC+aByNBLJMH3NuJtV6Z/sPAORpqY1txswCSs/163AB46ivjVRGvytQzNt7vP
Avi7UMEo1J1gok7lFvCRLEzQ2QohsZTi+49sVD581eRABWuKC3/iVMz5ih8gtnxs
CM+vUoiUzFcYmAiEIE6/ffj5HMSRH+Tflkjr9zQLuizBn50aCpm2SH1mKzWS7ENU
m5nry6Z3+RPdXRIE36MLXFWc70Bt2AnC7LfB2XhaljXq1X7ardseHTVXBmpFC9qb
2GzdAgMBAAGjgaowgacwCQYDVR0TBAIwADAdBgNVHQ4EFgQU23uMp3NjoMo1aC5w
JAkLxsC3XaowWQYDVR0jBFIwUIAUNzpqOPntV93mSYkijmLuGnd00iGhIqQgMB4x
HDAaBgNVBAMME2NlcnQudnBuLmplbmtpbnMuaW+CFCx2bYskx9ph/zcPxNy4r1lG
GuYeMBMGA1UdJQQMMAoGCCsGAQUFBwMCMAsGA1UdDwQEAwIHgDANBgkqhkiG9w0B
AQsFAAOCAgEAcv70BrMi44qNoT36LrjQwg/XUgaX4nAPdpWFF8XXHtFp5MYWILEg
wmxwIwVSGt0ftUS8LR+O0sHuf81bV7pBG7SYIxn+l4qFzE+fMzckCgtni3MD5Tn0
DbIXjte+/4qoibd8bvr6jdafZ+TXyLIFUFcEHaNPODb1mA753aTJrJB773LAbv0A
WUE+r0Ptk3pU4Gm2G7aeZ3Iip/gLnpyzknhhUnZsH0Qcje4bhx+nXJjZ94rGPDtW
Zja3aogyWHPLqkjAyde7jTIox249kwXuxzXDTvrc7oGjUKBBMPoYyGYp2J8mt+4F
qYHPar/PuL11hjxAYwVMgavoC1BJhsNMBK/44OjYrUg0Qc6yEvgG6quP104qgN5t
nEWq/oTCj+F4utsIH4IdglkX0t+1+QViO6okKJj/IHajaQ9lafE4OF+i+8ovT718
mPURGwTuTTYxs4cMbMOhuMNjzMmE4mrnSjdhpwqSKtcegUx5xWiRt6dPMiePIGK2
Z0jCWTodXb6Xs/k/J6xzcMe/GumKrXC1Z5DEcOqNioGiUSqpQTl/BmPwI6/Rzw+6
LmAYFIDIFJGA1cNDhyNz/eOMeljlF77DqqxLkp1sG/1yyXwrtzBc1zeNH1a/ZBv0
rW441XLFGyVgJhRkTz1KkepGQdPD+by0xQIWm6bd1q7jLEcuLhBdy6s=
-----END CERTIFICATE-----
