Certificate:
    Data:
        Version: 3 (0x2)
        Serial Number:
            e2:aa:4f:96:ef:4c:75:9e:b1:19:3a:ae:c1:ad:72:12
        Signature Algorithm: sha256WithRSAEncryption
        Issuer: CN=vpn.jenkins.io
        Validity
            Not Before: Nov 14 16:08:33 2023 GMT
            Not After : Oct 29 16:08:33 2026 GMT
        Subject: CN=markewaite
        Subject Public Key Info:
            Public Key Algorithm: rsaEncryption
                Public-Key: (4096 bit)
                Modulus:
                    00:d0:a0:67:e7:cc:4b:bf:e2:86:67:f1:c8:86:b3:
                    82:93:29:de:ab:4a:b3:29:69:cb:b6:9d:dd:f8:ce:
                    37:a5:e4:e8:00:86:d6:5c:62:26:0a:0d:6d:70:55:
                    2f:21:b8:e1:35:29:75:20:11:f0:5a:59:d0:a8:6a:
                    bf:fd:c9:22:df:77:a4:d7:2e:48:ec:c9:89:72:12:
                    9e:c4:79:2b:4a:da:09:4a:4c:0e:b7:9e:7b:f4:8e:
                    3b:8b:30:a1:2f:de:27:ba:f0:76:6d:72:67:7b:b8:
                    75:d4:65:35:c5:4a:0c:2f:4c:ea:5f:5f:f1:ae:c2:
                    df:5b:82:aa:2b:4d:17:e4:d5:bf:74:e2:ff:b3:5c:
                    31:ae:d0:84:c7:00:84:0d:64:8c:5d:5f:ad:43:f5:
                    6f:70:4e:ee:f1:8a:71:57:50:79:e8:e3:58:86:00:
                    d5:93:21:59:0a:93:9d:70:2f:07:ae:8e:c3:e1:ff:
                    b1:ca:c0:40:f6:35:30:97:af:be:d9:74:18:cc:15:
                    ec:f8:6c:44:08:01:d0:7d:0d:0e:31:f8:1a:ce:2b:
                    26:dc:a6:59:1d:c6:ff:c4:ba:e3:15:25:0e:79:d8:
                    2c:47:24:4f:cb:a5:1b:0c:4a:d7:24:8c:79:e9:18:
                    c7:b7:4a:64:3b:ae:2b:bd:1e:64:28:b2:bc:62:75:
                    5e:47:4a:39:b1:e2:8c:20:ae:03:97:82:b7:4c:9e:
                    6e:0f:39:fd:84:c6:32:44:24:1c:34:79:24:87:d9:
                    94:4e:51:f8:44:5a:30:ed:1f:74:33:a3:66:41:c7:
                    01:b1:98:c3:a2:b0:f9:15:49:a9:78:e3:5e:9a:d2:
                    ab:8a:ef:71:22:ba:f2:e5:af:08:b9:10:c7:d4:e7:
                    69:42:28:3a:41:19:37:c3:52:02:d4:82:20:3c:2e:
                    ca:6a:3e:98:f2:40:f5:21:65:e0:6a:b9:ab:28:70:
                    57:b7:b8:2a:c0:4e:76:60:e7:26:92:34:19:84:70:
                    32:33:7e:ad:98:bb:28:3b:43:28:ca:bc:2e:79:72:
                    9d:c6:de:70:07:20:ec:19:a1:d7:42:6e:53:37:1b:
                    44:49:21:c4:97:86:a6:5d:de:41:63:61:fc:60:a4:
                    00:1f:19:5b:9c:52:de:42:15:e7:5c:ae:0f:f7:e0:
                    34:e8:d1:32:a8:07:13:2a:77:c6:62:13:b9:5e:74:
                    07:77:f8:36:b0:a4:eb:a7:84:bf:1d:94:e1:9a:8f:
                    c5:f6:bd:34:c1:fe:87:29:2a:ca:14:ec:38:5f:e0:
                    2b:ea:24:bb:a3:b8:e0:83:13:40:27:88:4e:e2:a0:
                    ab:e6:d7:13:c2:5e:69:4f:36:10:04:35:7a:fc:99:
                    b6:8f:3f
                Exponent: 65537 (0x10001)
        X509v3 extensions:
            X509v3 Basic Constraints: 
                CA:FALSE
            X509v3 Subject Key Identifier: 
                B4:6B:63:AF:02:57:05:2D:46:04:12:91:A7:98:4F:1A:10:F7:5E:13
            X509v3 Authority Key Identifier: 
                keyid:87:A7:C5:75:37:0B:14:6C:BF:46:04:8C:2A:52:E9:5D:DA:51:DC:E6
                DirName:/CN=vpn.jenkins.io
                serial:08:01:AA:6D:1B:31:40:4F:7B:9C:75:54:54:78:B5:36:65:3B:7C:B3
            X509v3 Extended Key Usage: 
                TLS Web Client Authentication
            X509v3 Key Usage: 
                Digital Signature
    Signature Algorithm: sha256WithRSAEncryption
    Signature Value:
        0f:b4:f8:46:ac:99:dc:31:17:24:14:60:e8:22:83:cf:79:2d:
        5b:c9:1c:ec:a5:17:7f:82:da:6e:98:ce:eb:c2:08:a9:1a:c2:
        41:06:15:98:13:d7:94:9f:59:7f:fb:97:2a:ab:f8:f9:82:95:
        33:18:4c:c8:8e:73:f4:34:19:6a:6f:5d:2e:37:9a:f4:c4:4b:
        bd:2e:5b:84:8b:c8:e8:f9:41:a0:24:da:a1:32:3c:97:90:b0:
        e9:41:15:df:b0:8d:4e:b9:3f:68:69:f2:94:74:5f:ff:e9:45:
        d4:63:7c:3c:55:a1:39:95:fd:5f:1f:d3:3a:bc:76:8d:f0:15:
        af:69:46:c0:95:06:ab:83:c0:79:da:c6:45:af:8b:7f:72:fe:
        85:f2:24:6d:19:1c:ad:09:f5:24:86:67:f0:f3:84:4f:a2:41:
        b9:7a:e8:e6:00:b2:99:b2:5e:57:4c:05:e2:e8:e5:1f:40:7e:
        89:56:ec:dd:17:ab:b5:57:27:bd:81:d6:16:6f:11:aa:af:37:
        41:e4:da:46:eb:d8:99:2c:e9:fa:96:98:ab:81:ad:3f:b6:7a:
        6d:1f:3c:57:44:7c:20:e9:18:02:51:59:31:8e:e8:d1:8d:2a:
        dd:86:dc:cb:c0:9b:03:16:13:15:e8:5e:c4:11:3d:60:df:2d:
        e9:6b:39:42:b5:cb:c8:0c:c7:6e:96:f4:d2:53:63:1e:ee:e9:
        ea:66:45:ce:52:f0:fe:71:4a:f7:14:79:69:ef:99:bc:a4:51:
        4a:d9:98:5d:11:a4:d8:ad:c6:00:4c:43:74:b2:e2:99:3e:37:
        73:03:ef:0b:4e:cd:e8:b5:98:5c:f0:ad:33:5b:31:c6:94:a5:
        f8:b9:40:79:ee:46:c1:da:97:82:95:fb:3c:78:47:1e:a2:3c:
        2f:ea:8e:7d:ff:cc:59:c3:20:5a:1b:81:28:20:c1:17:ca:d9:
        de:38:d7:e8:dc:a7:d2:30:0f:74:e6:fb:8a:88:57:ef:a8:b7:
        be:e2:2b:b4:7e:55:d1:07:8e:78:c5:4a:b7:d5:ca:82:bb:29:
        f9:12:20:de:e6:0a:36:cb:ef:c9:29:ae:f9:e6:81:f5:f0:56:
        5e:2d:58:17:d0:aa:2d:87:3e:e8:97:1a:60:bc:7c:45:69:f6:
        21:8d:a4:39:d8:52:74:81:c3:5f:92:f2:98:7d:46:ae:12:0c:
        fe:b9:76:9b:2d:94:51:f0:7e:cc:66:5d:54:19:e0:10:bf:08:
        6e:0c:33:97:3a:8f:36:ff:de:3e:53:e8:90:57:1f:75:ca:37:
        e2:1d:24:b0:7d:3f:2f:c9:c1:77:72:4f:e6:21:ec:41:5f:d8:
        d2:83:2e:e3:7d:ea:3a:2b
-----BEGIN CERTIFICATE-----
MIIFXzCCA0egAwIBAgIRAOKqT5bvTHWesRk6rsGtchIwDQYJKoZIhvcNAQELBQAw
GTEXMBUGA1UEAwwOdnBuLmplbmtpbnMuaW8wHhcNMjMxMTE0MTYwODMzWhcNMjYx
MDI5MTYwODMzWjAVMRMwEQYDVQQDDAptYXJrZXdhaXRlMIICIjANBgkqhkiG9w0B
AQEFAAOCAg8AMIICCgKCAgEA0KBn58xLv+KGZ/HIhrOCkyneq0qzKWnLtp3d+M43
peToAIbWXGImCg1tcFUvIbjhNSl1IBHwWlnQqGq//cki33ek1y5I7MmJchKexHkr
StoJSkwOt5579I47izChL94nuvB2bXJne7h11GU1xUoML0zqX1/xrsLfW4KqK00X
5NW/dOL/s1wxrtCExwCEDWSMXV+tQ/VvcE7u8YpxV1B56ONYhgDVkyFZCpOdcC8H
ro7D4f+xysBA9jUwl6++2XQYzBXs+GxECAHQfQ0OMfgazism3KZZHcb/xLrjFSUO
edgsRyRPy6UbDErXJIx56RjHt0pkO64rvR5kKLK8YnVeR0o5seKMIK4Dl4K3TJ5u
Dzn9hMYyRCQcNHkkh9mUTlH4RFow7R90M6NmQccBsZjDorD5FUmpeONemtKriu9x
Irry5a8IuRDH1OdpQig6QRk3w1IC1IIgPC7Kaj6Y8kD1IWXgarmrKHBXt7gqwE52
YOcmkjQZhHAyM36tmLsoO0MoyrwueXKdxt5wByDsGaHXQm5TNxtESSHEl4amXd5B
Y2H8YKQAHxlbnFLeQhXnXK4P9+A06NEyqAcTKnfGYhO5XnQHd/g2sKTrp4S/HZTh
mo/F9r00wf6HKSrKFOw4X+Ar6iS7o7jggxNAJ4hO4qCr5tcTwl5pTzYQBDV6/Jm2
jz8CAwEAAaOBpTCBojAJBgNVHRMEAjAAMB0GA1UdDgQWBBS0a2OvAlcFLUYEEpGn
mE8aEPdeEzBUBgNVHSMETTBLgBSHp8V1NwsUbL9GBIwqUuld2lHc5qEdpBswGTEX
MBUGA1UEAwwOdnBuLmplbmtpbnMuaW+CFAgBqm0bMUBPe5x1VFR4tTZlO3yzMBMG
A1UdJQQMMAoGCCsGAQUFBwMCMAsGA1UdDwQEAwIHgDANBgkqhkiG9w0BAQsFAAOC
AgEAD7T4RqyZ3DEXJBRg6CKDz3ktW8kc7KUXf4LabpjO68IIqRrCQQYVmBPXlJ9Z
f/uXKqv4+YKVMxhMyI5z9DQZam9dLjea9MRLvS5bhIvI6PlBoCTaoTI8l5Cw6UEV
37CNTrk/aGnylHRf/+lF1GN8PFWhOZX9Xx/TOrx2jfAVr2lGwJUGq4PAedrGRa+L
f3L+hfIkbRkcrQn1JIZn8POET6JBuXro5gCymbJeV0wF4ujlH0B+iVbs3RertVcn
vYHWFm8Rqq83QeTaRuvYmSzp+paYq4GtP7Z6bR88V0R8IOkYAlFZMY7o0Y0q3Ybc
y8CbAxYTFehexBE9YN8t6Ws5QrXLyAzHbpb00lNjHu7p6mZFzlLw/nFK9xR5ae+Z
vKRRStmYXRGk2K3GAExDdLLimT43cwPvC07N6LWYXPCtM1sxxpSl+LlAee5GwdqX
gpX7PHhHHqI8L+qOff/MWcMgWhuBKCDBF8rZ3jjX6Nyn0jAPdOb7iohX76i3vuIr
tH5V0QeOeMVKt9XKgrsp+RIg3uYKNsvvySmu+eaB9fBWXi1YF9CqLYc+6JcaYLx8
RWn2IY2kOdhSdIHDX5LymH1GrhIM/rl2my2UUfB+zGZdVBngEL8IbgwzlzqPNv/e
PlPokFcfdco34h0ksH0/L8nBd3JP5iHsQV/Y0oMu433qOis=
-----END CERTIFICATE-----
