Certificate:
    Data:
        Version: 3 (0x2)
        Serial Number:
            ec:f6:fe:95:1a:20:51:78:71:b6:fe:15:b3:67:80:fe
        Signature Algorithm: sha256WithRSAEncryption
        Issuer: CN=vpn.jenkins.io
        Validity
            Not Before: Feb 17 11:45:01 2025 GMT
            Not After : Feb  2 11:45:01 2028 GMT
        Subject: CN=daniel-beck
        Subject Public Key Info:
            Public Key Algorithm: rsaEncryption
                Public-Key: (4096 bit)
                Modulus:
                    00:dc:3a:b0:17:94:a0:7e:bb:24:93:ca:26:ea:3d:
                    ad:03:02:c8:77:f4:97:0c:36:46:2d:29:f4:62:d0:
                    fb:e1:92:2b:e8:fb:e2:28:8d:d4:4a:c5:60:f0:f0:
                    ba:45:9f:5b:05:e5:e4:24:f9:07:59:26:6e:6d:79:
                    5e:36:db:5c:6b:b2:dd:c6:22:26:58:28:ef:25:9f:
                    eb:14:99:3a:d0:ea:bd:71:60:2b:97:25:da:3f:39:
                    68:c7:24:3f:62:08:e4:45:c1:7e:56:2b:98:b9:7d:
                    1d:47:79:3c:0e:80:da:aa:b3:9b:0b:cd:8b:fa:21:
                    2c:07:55:8d:5b:96:b4:8b:da:1f:c3:6e:13:38:99:
                    4b:f1:13:65:83:71:b7:3d:97:ee:53:84:44:10:f6:
                    68:5c:35:4a:be:e6:36:77:8d:cc:25:b4:e0:51:1f:
                    d6:fb:7c:e5:2d:11:d8:00:b9:ad:28:dc:d9:6d:34:
                    8b:e9:0a:68:a6:37:ea:a5:94:53:63:0f:31:81:be:
                    e5:69:6c:65:80:67:42:fb:ae:46:38:7a:99:09:59:
                    b9:a8:9b:2a:b7:c2:58:cf:43:02:b7:5c:23:1a:b5:
                    3e:16:63:a1:79:02:9e:b1:ae:13:ad:0b:9b:d8:b1:
                    34:c2:92:b5:be:fc:9c:e8:49:07:5e:a3:7a:79:5d:
                    d6:28:e5:42:71:5e:d5:b6:ac:c7:6a:a9:7a:22:62:
                    d9:69:bf:26:ea:cd:7f:00:50:8a:46:46:cb:82:40:
                    c4:bf:b2:b1:a5:0c:a6:f9:0b:4e:8d:5a:6d:84:89:
                    e3:70:03:eb:4b:ea:37:5d:01:19:f4:bb:3b:25:6a:
                    3a:9e:3e:ff:50:a1:3f:9b:8b:ff:32:0e:ab:63:ac:
                    10:00:28:1a:ec:f8:e9:36:60:83:91:34:a6:69:a6:
                    74:f6:18:f6:9c:3c:11:37:cd:55:84:08:29:bc:a1:
                    80:2d:75:69:1c:d2:2b:6f:34:4f:b5:33:20:2c:f2:
                    45:5d:d4:e5:6c:1d:2c:59:af:0a:87:96:f9:7e:2a:
                    30:82:c1:e8:13:fa:1b:35:3a:46:ff:6e:d5:05:15:
                    c0:73:39:e2:5b:24:ef:c7:5f:c7:0a:f1:bd:ea:1a:
                    2d:31:af:f6:33:0f:0c:6e:06:31:5b:10:03:44:23:
                    e3:59:d4:4a:c5:f2:20:12:28:8d:bc:be:7a:87:76:
                    12:be:26:62:4a:e6:bb:e7:f6:11:11:ad:d9:a0:f1:
                    e1:e5:0e:2b:e1:06:d6:c2:2d:c0:9e:be:06:31:7e:
                    f8:8b:17:47:18:dd:5b:6c:81:fe:7c:bd:a1:77:b4:
                    40:88:73:6e:b8:ae:ae:03:b4:f0:46:19:e2:97:33:
                    22:34:19
                Exponent: 65537 (0x10001)
        X509v3 extensions:
            X509v3 Basic Constraints: 
                CA:FALSE
            X509v3 Subject Key Identifier: 
                A9:6A:7E:C3:93:A2:D4:DC:2C:09:4E:0F:F5:F3:F8:0B:68:22:64:C4
            X509v3 Authority Key Identifier: 
                keyid:87:A7:C5:75:37:0B:14:6C:BF:46:04:8C:2A:52:E9:5D:DA:51:DC:E6
                DirName:/CN=vpn.jenkins.io
                serial:08:01:AA:6D:1B:31:40:4F:7B:9C:75:54:54:78:B5:36:65:3B:7C:B3
            X509v3 Extended Key Usage: 
                TLS Web Client Authentication
            X509v3 Key Usage: 
                Digital Signature
    Signature Algorithm: sha256WithRSAEncryption
    Signature Value:
        a8:f3:f6:c0:22:0e:a2:33:72:a6:1b:e8:30:d0:44:de:e5:60:
        73:46:25:f2:ce:b1:79:58:13:95:4e:67:d7:be:a0:70:b1:6c:
        05:d1:49:99:55:ce:4a:44:bb:18:aa:7a:0f:79:16:98:35:12:
        8e:14:b4:7f:29:da:82:4b:bb:de:79:91:61:d2:fc:db:55:2e:
        d0:8d:8c:ab:fd:7a:8d:4d:32:16:c9:03:50:85:06:9f:4b:76:
        b1:a1:34:f2:7c:e6:83:c1:06:78:45:0f:85:3a:34:aa:33:d5:
        95:1b:1e:ff:93:e3:f2:bc:0f:92:d5:4d:3e:56:d0:22:9b:b1:
        34:c6:55:12:d1:ee:16:f3:4c:07:45:2e:19:6e:fe:55:02:5d:
        8e:dd:6f:c5:42:8d:20:d8:93:75:72:0d:82:ef:b7:40:bd:ec:
        f8:ed:5e:e3:4e:df:99:2f:f0:1f:0c:37:94:de:ee:da:bf:9d:
        48:83:40:06:b1:09:43:b2:f7:0d:82:34:34:38:8d:54:d7:4f:
        a2:6b:da:06:10:f8:f2:89:38:86:85:2e:cf:67:a3:8a:04:2c:
        99:ee:e1:7b:60:b4:99:cf:17:e7:92:6a:0c:e3:12:6e:3d:9b:
        de:68:96:64:6e:d6:0a:fa:5c:2a:d5:bf:b5:bc:b6:d0:3a:d8:
        d1:1c:90:fc:bd:76:50:3c:5c:b1:43:39:99:fc:cc:f4:aa:7c:
        33:ca:91:24:1b:27:fe:0d:bd:b1:94:74:ff:42:84:69:ec:30:
        ba:b4:83:5d:79:b3:52:31:c0:e0:f3:d0:fc:71:59:f8:4f:4d:
        50:d1:93:5f:85:be:f9:f9:a1:a9:bc:09:4a:74:70:33:2f:d6:
        29:97:e1:a2:8e:d1:0f:ed:49:48:56:74:50:ad:de:4b:b3:22:
        92:df:58:d8:c4:d7:e3:92:65:27:50:c8:4f:13:58:ea:16:30:
        9b:d3:d6:20:04:16:db:f3:e5:06:b7:4b:55:63:a4:c0:63:7d:
        54:d4:f6:92:e4:e8:86:c9:c3:6c:28:88:49:c6:b3:0a:3a:d9:
        e9:10:b7:8b:6b:d9:69:02:8d:f7:59:40:01:8b:9d:03:25:c2:
        b2:84:81:f0:59:65:a4:53:51:1f:38:0b:b0:dd:37:23:cf:83:
        7e:72:0e:3c:5e:9d:35:81:46:4a:c0:fa:ee:4d:95:0a:f9:02:
        86:07:51:69:9b:14:ed:36:2e:7a:70:ae:13:1d:5b:12:1b:8c:
        f2:e4:a8:96:49:5c:0e:99:7d:aa:bb:9f:a1:e0:dd:61:61:56:
        67:bd:72:ba:16:65:c7:62:fa:7a:3d:68:20:20:d5:7f:1c:39:
        84:4e:70:0d:fb:66:55:37
-----BEGIN CERTIFICATE-----
MIIFYDCCA0igAwIBAgIRAOz2/pUaIFF4cbb+FbNngP4wDQYJKoZIhvcNAQELBQAw
GTEXMBUGA1UEAwwOdnBuLmplbmtpbnMuaW8wHhcNMjUwMjE3MTE0NTAxWhcNMjgw
MjAyMTE0NTAxWjAWMRQwEgYDVQQDDAtkYW5pZWwtYmVjazCCAiIwDQYJKoZIhvcN
AQEBBQADggIPADCCAgoCggIBANw6sBeUoH67JJPKJuo9rQMCyHf0lww2Ri0p9GLQ
++GSK+j74iiN1ErFYPDwukWfWwXl5CT5B1kmbm15XjbbXGuy3cYiJlgo7yWf6xSZ
OtDqvXFgK5cl2j85aMckP2II5EXBflYrmLl9HUd5PA6A2qqzmwvNi/ohLAdVjVuW
tIvaH8NuEziZS/ETZYNxtz2X7lOERBD2aFw1Sr7mNneNzCW04FEf1vt85S0R2AC5
rSjc2W00i+kKaKY36qWUU2MPMYG+5WlsZYBnQvuuRjh6mQlZuaibKrfCWM9DArdc
Ixq1PhZjoXkCnrGuE60Lm9ixNMKStb78nOhJB16jenld1ijlQnFe1basx2qpeiJi
2Wm/JurNfwBQikZGy4JAxL+ysaUMpvkLTo1abYSJ43AD60vqN10BGfS7OyVqOp4+
/1ChP5uL/zIOq2OsEAAoGuz46TZgg5E0pmmmdPYY9pw8ETfNVYQIKbyhgC11aRzS
K280T7UzICzyRV3U5WwdLFmvCoeW+X4qMILB6BP6GzU6Rv9u1QUVwHM54lsk78df
xwrxveoaLTGv9jMPDG4GMVsQA0Qj41nUSsXyIBIojby+eod2Er4mYkrmu+f2ERGt
2aDx4eUOK+EG1sItwJ6+BjF++IsXRxjdW2yB/ny9oXe0QIhzbriurgO08EYZ4pcz
IjQZAgMBAAGjgaUwgaIwCQYDVR0TBAIwADAdBgNVHQ4EFgQUqWp+w5Oi1NwsCU4P
9fP4C2giZMQwVAYDVR0jBE0wS4AUh6fFdTcLFGy/RgSMKlLpXdpR3OahHaQbMBkx
FzAVBgNVBAMMDnZwbi5qZW5raW5zLmlvghQIAaptGzFAT3ucdVRUeLU2ZTt8szAT
BgNVHSUEDDAKBggrBgEFBQcDAjALBgNVHQ8EBAMCB4AwDQYJKoZIhvcNAQELBQAD
ggIBAKjz9sAiDqIzcqYb6DDQRN7lYHNGJfLOsXlYE5VOZ9e+oHCxbAXRSZlVzkpE
uxiqeg95Fpg1Eo4UtH8p2oJLu955kWHS/NtVLtCNjKv9eo1NMhbJA1CFBp9LdrGh
NPJ85oPBBnhFD4U6NKoz1ZUbHv+T4/K8D5LVTT5W0CKbsTTGVRLR7hbzTAdFLhlu
/lUCXY7db8VCjSDYk3VyDYLvt0C97PjtXuNO35kv8B8MN5Te7tq/nUiDQAaxCUOy
9w2CNDQ4jVTXT6Jr2gYQ+PKJOIaFLs9no4oELJnu4XtgtJnPF+eSagzjEm49m95o
lmRu1gr6XCrVv7W8ttA62NEckPy9dlA8XLFDOZn8zPSqfDPKkSQbJ/4NvbGUdP9C
hGnsMLq0g115s1IxwODz0PxxWfhPTVDRk1+Fvvn5oam8CUp0cDMv1imX4aKO0Q/t
SUhWdFCt3kuzIpLfWNjE1+OSZSdQyE8TWOoWMJvT1iAEFtvz5Qa3S1VjpMBjfVTU
9pLk6IbJw2woiEnGswo62ekQt4tr2WkCjfdZQAGLnQMlwrKEgfBZZaRTUR84C7Dd
NyPPg35yDjxenTWBRkrA+u5NlQr5AoYHUWmbFO02LnpwrhMdWxIbjPLkqJZJXA6Z
faq7n6Hg3WFhVme9croWZcdi+no9aCAg1X8cOYROcA37ZlU3
-----END CERTIFICATE-----
