Certificate:
    Data:
        Version: 3 (0x2)
        Serial Number:
            ed:12:35:18:3b:4f:94:6a:b5:bf:9c:2b:12:c9:29:0e
        Signature Algorithm: sha256WithRSAEncryption
        Issuer: CN=vpn.jenkins.io
        Validity
            Not Before: Mar 13 13:40:45 2019 GMT
            Not After : Feb 25 13:40:45 2022 GMT
        Subject: CN=olblak
        Subject Public Key Info:
            Public Key Algorithm: rsaEncryption
                RSA Public-Key: (4096 bit)
                Modulus:
                    00:be:b8:6d:be:5a:46:2a:34:54:09:65:6a:85:25:
                    33:b6:44:3a:6a:f9:92:f6:f2:87:c4:f6:d3:4d:51:
                    c2:ec:bf:a3:c0:1e:d4:e6:42:60:97:b5:d8:fc:ab:
                    16:42:a4:92:4a:16:9d:0e:84:9e:46:8d:f2:b6:b8:
                    c0:30:6d:10:5a:8f:09:2f:d5:83:ac:ff:24:76:79:
                    c6:5b:cb:6a:88:fb:08:d5:41:33:76:7d:e0:7a:1f:
                    42:12:bb:85:a5:07:f8:92:d8:6f:82:6b:20:24:e9:
                    d8:2b:05:5a:e2:6b:09:e6:80:ff:88:81:0e:c3:4d:
                    fc:80:87:70:c3:a3:60:45:98:35:27:cf:22:28:84:
                    67:6b:fd:96:c7:8c:ed:02:66:0c:09:3e:ae:ad:7b:
                    91:3d:66:e7:25:b0:04:f7:67:f7:72:26:17:45:a5:
                    d1:3a:b7:c6:2b:0b:b3:e4:0d:5b:d2:00:4b:c4:74:
                    ca:d6:50:4a:23:58:98:e0:7c:d9:9b:ca:4d:d2:a8:
                    da:e6:ac:bd:1f:7f:9a:0c:ec:1d:e6:13:92:31:3b:
                    d1:e2:47:da:3e:80:54:84:e5:e1:1b:75:b3:3b:63:
                    fc:0d:83:29:f2:7d:91:e6:3c:28:6a:36:bb:d1:2f:
                    cc:dc:9a:a0:80:02:93:e3:59:c3:6d:e7:0f:1a:8d:
                    e7:90:6e:53:2a:a8:66:4f:11:a1:69:32:e3:02:54:
                    3b:08:16:de:79:19:61:4b:78:f5:56:b9:bb:da:f1:
                    3e:28:fa:cf:9f:d7:6c:d5:fc:34:e3:d9:db:b6:59:
                    6d:34:1f:d0:9a:be:3e:24:81:73:2d:3c:a1:c5:33:
                    ca:22:1d:37:6f:7d:c1:1d:d7:3a:53:a8:16:d0:c9:
                    83:21:27:67:9d:fb:34:07:79:2a:79:bd:d9:26:27:
                    b6:ee:dd:f0:d1:71:cc:16:3f:27:d5:bd:e7:ae:02:
                    82:e3:dc:7d:e8:76:6e:c5:16:44:6d:e9:21:94:7a:
                    1e:13:e1:62:c6:c6:bd:7a:74:a6:a8:45:9f:68:93:
                    21:1f:df:72:9a:08:56:19:3e:df:a1:98:87:60:bf:
                    f1:39:0b:bb:d6:b5:b4:71:84:2d:79:79:a1:b6:4f:
                    1a:fa:64:b9:d6:9c:7a:e8:7c:73:6f:e1:ab:df:cd:
                    ed:23:b5:01:60:31:2b:8c:1f:2c:a4:9b:ee:ae:0d:
                    c1:60:bf:f5:84:73:0c:9b:94:c3:71:f5:26:88:36:
                    b7:ca:7b:42:5f:87:c5:ab:f8:e9:7d:2f:9e:49:30:
                    40:48:e6:d4:2e:25:50:4b:dc:a7:fa:6a:f3:b7:23:
                    81:fb:77:74:19:e4:3c:46:02:ac:1a:b8:da:d7:b1:
                    20:65:d5
                Exponent: 65537 (0x10001)
        X509v3 extensions:
            X509v3 Basic Constraints: 
                CA:FALSE
            X509v3 Subject Key Identifier: 
                C8:19:ED:D4:B5:67:34:3E:23:05:DA:89:0B:4F:1F:6E:67:C0:46:8F
            X509v3 Authority Key Identifier: 
                keyid:87:A7:C5:75:37:0B:14:6C:BF:46:04:8C:2A:52:E9:5D:DA:51:DC:E6
                DirName:/CN=vpn.jenkins.io
                serial:08:01:AA:6D:1B:31:40:4F:7B:9C:75:54:54:78:B5:36:65:3B:7C:B3

            X509v3 Extended Key Usage: 
                TLS Web Client Authentication
            X509v3 Key Usage: 
                Digital Signature
    Signature Algorithm: sha256WithRSAEncryption
         77:25:33:59:2e:2c:64:d7:47:8e:d6:ae:13:e4:b5:6e:63:dc:
         2f:5f:89:d2:84:21:23:f2:22:87:eb:06:2d:3d:4c:5d:13:fa:
         1e:81:93:0c:0c:c9:b6:09:ad:00:3b:9e:78:53:a2:1b:4c:56:
         cb:cf:22:53:73:07:2b:c6:35:41:7a:4a:94:27:e6:c8:77:16:
         99:de:2f:1e:34:97:b3:d0:1e:83:05:4d:88:77:20:11:64:16:
         1e:94:1e:bc:22:4d:06:20:e5:a3:46:96:9f:72:f4:29:75:02:
         2d:26:37:ee:c4:b2:12:67:82:0a:25:f0:07:2e:81:00:3f:6d:
         e5:7f:4a:af:ed:7f:ed:5d:d7:c6:7a:00:e0:cd:71:ea:36:1d:
         c0:05:e6:a7:ba:fc:fb:61:2d:60:d0:aa:41:bd:13:1c:80:ff:
         d4:ee:5e:2d:44:0c:c7:df:ae:4d:26:9c:0b:1d:b7:64:25:26:
         ed:6e:81:81:fc:c7:c2:44:8b:2e:99:a5:b5:6d:98:81:a7:f3:
         c3:e7:08:86:ee:20:9b:5e:29:5a:65:da:bc:23:ea:5e:86:65:
         48:be:d1:df:a7:40:9b:f0:5c:81:87:96:34:a3:6f:04:49:5b:
         1b:ad:74:b5:c7:24:f3:fa:c7:c2:09:90:fb:52:c1:90:cf:53:
         16:c0:3e:fd:b9:d7:df:77:3b:12:ca:05:78:66:f8:b8:58:48:
         78:2f:f0:97:01:f3:df:0e:8d:24:12:b5:0a:46:20:cb:aa:02:
         eb:07:4b:c8:5d:03:2f:66:37:69:b1:40:30:cf:19:b0:ae:44:
         83:02:da:4d:48:f0:4f:f9:ab:24:43:0b:b8:a9:c1:1e:9a:e8:
         cb:87:30:5d:1d:71:67:fe:e2:b1:64:2d:c1:b5:13:af:3a:ac:
         d9:1e:d7:75:8c:1a:ca:f8:33:8d:79:7e:5b:fb:08:d1:34:b6:
         3b:dd:04:21:12:e4:d7:46:a1:5c:1a:72:5a:92:7b:d3:4b:ac:
         36:63:be:a7:3b:00:03:7d:49:70:98:71:a5:c2:5a:79:fb:bc:
         80:3d:65:31:90:eb:52:b7:46:d2:73:95:26:f3:44:4c:27:05:
         4e:82:dc:68:d2:b1:dc:28:f0:c6:68:a6:3d:86:4b:c8:4b:80:
         07:0d:f0:e0:4a:1c:ee:a4:16:ba:83:c5:e1:ec:00:13:b1:22:
         c3:61:4b:47:07:b0:72:55:31:5e:eb:2f:89:c6:be:4c:41:4c:
         ee:cd:0f:7c:30:d5:4c:69:55:56:08:7d:14:48:3a:31:f1:45:
         89:21:b3:45:21:cd:78:e5:e8:5c:a7:4c:cd:a9:37:d0:ce:fc:
         10:c7:16:53:ef:e1:d5:e1
-----BEGIN CERTIFICATE-----
MIIFWzCCA0OgAwIBAgIRAO0SNRg7T5Rqtb+cKxLJKQ4wDQYJKoZIhvcNAQELBQAw
GTEXMBUGA1UEAwwOdnBuLmplbmtpbnMuaW8wHhcNMTkwMzEzMTM0MDQ1WhcNMjIw
MjI1MTM0MDQ1WjARMQ8wDQYDVQQDDAZvbGJsYWswggIiMA0GCSqGSIb3DQEBAQUA
A4ICDwAwggIKAoICAQC+uG2+WkYqNFQJZWqFJTO2RDpq+ZL28ofE9tNNUcLsv6PA
HtTmQmCXtdj8qxZCpJJKFp0OhJ5GjfK2uMAwbRBajwkv1YOs/yR2ecZby2qI+wjV
QTN2feB6H0ISu4WlB/iS2G+CayAk6dgrBVriawnmgP+IgQ7DTfyAh3DDo2BFmDUn
zyIohGdr/ZbHjO0CZgwJPq6te5E9ZuclsAT3Z/dyJhdFpdE6t8YrC7PkDVvSAEvE
dMrWUEojWJjgfNmbyk3SqNrmrL0ff5oM7B3mE5IxO9HiR9o+gFSE5eEbdbM7Y/wN
gynyfZHmPChqNrvRL8zcmqCAApPjWcNt5w8ajeeQblMqqGZPEaFpMuMCVDsIFt55
GWFLePVWubva8T4o+s+f12zV/DTj2du2WW00H9Cavj4kgXMtPKHFM8oiHTdvfcEd
1zpTqBbQyYMhJ2ed+zQHeSp5vdkmJ7bu3fDRccwWPyfVveeuAoLj3H3odm7FFkRt
6SGUeh4T4WLGxr16dKaoRZ9okyEf33KaCFYZPt+hmIdgv/E5C7vWtbRxhC15eaG2
Txr6ZLnWnHrofHNv4avfze0jtQFgMSuMHyykm+6uDcFgv/WEcwyblMNx9SaINrfK
e0Jfh8Wr+Ol9L55JMEBI5tQuJVBL3Kf6avO3I4H7d3QZ5DxGAqwauNrXsSBl1QID
AQABo4GlMIGiMAkGA1UdEwQCMAAwHQYDVR0OBBYEFMgZ7dS1ZzQ+IwXaiQtPH25n
wEaPMFQGA1UdIwRNMEuAFIenxXU3CxRsv0YEjCpS6V3aUdzmoR2kGzAZMRcwFQYD
VQQDDA52cG4uamVua2lucy5pb4IUCAGqbRsxQE97nHVUVHi1NmU7fLMwEwYDVR0l
BAwwCgYIKwYBBQUHAwIwCwYDVR0PBAQDAgeAMA0GCSqGSIb3DQEBCwUAA4ICAQB3
JTNZLixk10eO1q4T5LVuY9wvX4nShCEj8iKH6wYtPUxdE/oegZMMDMm2Ca0AO554
U6IbTFbLzyJTcwcrxjVBekqUJ+bIdxaZ3i8eNJez0B6DBU2IdyARZBYelB68Ik0G
IOWjRpafcvQpdQItJjfuxLISZ4IKJfAHLoEAP23lf0qv7X/tXdfGegDgzXHqNh3A
Beanuvz7YS1g0KpBvRMcgP/U7l4tRAzH365NJpwLHbdkJSbtboGB/MfCRIsumaW1
bZiBp/PD5wiG7iCbXilaZdq8I+pehmVIvtHfp0Cb8FyBh5Y0o28ESVsbrXS1xyTz
+sfCCZD7UsGQz1MWwD79udffdzsSygV4Zvi4WEh4L/CXAfPfDo0kErUKRiDLqgLr
B0vIXQMvZjdpsUAwzxmwrkSDAtpNSPBP+askQwu4qcEemujLhzBdHXFn/uKxZC3B
tROvOqzZHtd1jBrK+DONeX5b+wjRNLY73QQhEuTXRqFcGnJaknvTS6w2Y76nOwAD
fUlwmHGlwlp5+7yAPWUxkOtSt0bSc5Um80RMJwVOgtxo0rHcKPDGaKY9hkvIS4AH
DfDgShzupBa6g8Xh7AATsSLDYUtHB7ByVTFe6y+Jxr5MQUzuzQ98MNVMaVVWCH0U
SDox8UWJIbNFIc145ehcp0zNqTfQzvwQxxZT7+HV4Q==
-----END CERTIFICATE-----
