Certificate:
    Data:
        Version: 3 (0x2)
        Serial Number:
            f4:f9:0d:d6:29:29:cd:b7:4d:6d:ba:36:97:12:47:04
        Signature Algorithm: sha256WithRSAEncryption
        Issuer: CN=vpn.jenkins.io
        Validity
            Not Before: Oct 20 14:07:36 2025 GMT
            Not After : Oct  4 14:07:36 2028 GMT
        Subject: CN=wfollonier
        Subject Public Key Info:
            Public Key Algorithm: rsaEncryption
                Public-Key: (4096 bit)
                Modulus:
                    00:c7:c7:97:7c:74:a0:a2:ed:02:e5:40:3b:2b:d5:
                    64:69:ad:e9:d0:17:46:ad:be:89:1e:50:28:7e:4e:
                    bd:0e:9c:f2:4d:fe:79:5f:28:2c:93:ab:54:e8:11:
                    07:d3:58:a5:f7:6e:72:ba:89:51:c0:54:91:eb:52:
                    57:af:2d:ac:23:e1:a8:20:69:f7:c8:d9:50:98:f7:
                    43:26:3b:72:1d:72:9a:62:94:4e:cc:14:a4:08:07:
                    da:b3:5b:57:2e:9f:66:76:8b:36:08:f8:75:70:53:
                    96:3e:55:c2:a6:af:49:c0:6f:51:6c:18:b6:f0:1e:
                    a3:18:24:43:27:72:19:07:8c:d3:23:43:03:31:ea:
                    89:e8:3f:70:34:bb:83:f7:f5:55:13:e5:a5:63:f6:
                    11:06:c6:72:e4:b4:e9:3c:b5:fb:86:9b:65:1c:4a:
                    91:04:05:1d:ee:e4:f4:fb:0e:95:75:15:c0:1c:10:
                    9e:2e:71:97:74:d5:c4:c8:8a:7c:6f:67:06:21:8f:
                    1e:bf:a5:d0:bf:3c:08:c3:e4:17:a7:f1:9c:ec:c9:
                    94:57:d2:62:08:30:f9:50:ef:b4:2a:cd:3d:28:c5:
                    9a:9a:bf:f0:6a:92:58:6e:5e:3d:91:ea:67:8c:dd:
                    da:82:4f:47:3b:14:3b:7b:ba:ea:7f:2b:f6:aa:02:
                    86:39:96:53:25:10:4b:20:ae:d0:16:53:a3:b1:fb:
                    2e:77:3d:f7:85:d4:5d:93:37:ca:6a:12:51:0c:c1:
                    3c:69:66:05:b3:50:e6:c4:22:93:c3:7c:51:8f:84:
                    f2:0d:2c:6d:4f:22:28:67:d5:46:f2:b9:b5:f1:3d:
                    76:2e:b0:6a:5e:26:82:58:9b:2d:f6:10:64:e9:71:
                    df:0f:a6:82:8a:c1:92:56:81:3a:68:ec:42:63:e7:
                    9c:d6:ba:83:03:2a:0a:c1:fd:49:37:3f:51:86:71:
                    49:89:58:a7:ec:df:2a:f5:7c:fc:ff:73:bd:4a:b4:
                    a2:94:31:da:6d:08:16:9f:cd:d4:4e:e5:f1:2c:c6:
                    18:a3:97:4a:fb:84:c8:08:90:9c:28:f8:d1:00:03:
                    3a:85:88:08:61:fc:0d:60:36:91:cd:11:77:4b:76:
                    0c:5b:49:78:4e:ce:ce:f2:ee:70:7d:bc:cb:30:52:
                    b6:7f:e4:35:60:39:e4:38:fd:26:9c:c2:36:4c:9d:
                    d8:08:19:1f:11:a0:cd:0b:79:2f:68:46:e7:64:34:
                    84:fd:79:06:9c:55:f3:ba:a6:e2:7c:af:71:d4:39:
                    43:d8:72:b5:16:66:c4:bb:c1:25:63:e6:12:2e:5e:
                    65:a5:7b:f5:87:32:72:8e:02:a9:36:fd:5f:e8:7f:
                    de:fe:0b
                Exponent: 65537 (0x10001)
        X509v3 extensions:
            X509v3 Basic Constraints: 
                CA:FALSE
            X509v3 Subject Key Identifier: 
                18:FE:FB:FA:28:F7:6C:78:52:51:E7:E6:49:F6:93:0B:86:FD:8B:10
            X509v3 Authority Key Identifier: 
                keyid:87:A7:C5:75:37:0B:14:6C:BF:46:04:8C:2A:52:E9:5D:DA:51:DC:E6
                DirName:/CN=vpn.jenkins.io
                serial:08:01:AA:6D:1B:31:40:4F:7B:9C:75:54:54:78:B5:36:65:3B:7C:B3
            X509v3 Extended Key Usage: 
                TLS Web Client Authentication
            X509v3 Key Usage: 
                Digital Signature
    Signature Algorithm: sha256WithRSAEncryption
    Signature Value:
        a2:18:0a:a7:57:a0:15:fd:16:1c:cc:f2:c6:01:d5:85:e3:bf:
        f3:61:3b:98:27:2a:a6:4c:13:21:f3:d3:e8:50:4d:5e:02:ed:
        d9:94:c4:60:08:cb:72:c3:c0:83:3a:c2:24:68:8b:c1:ba:39:
        3f:79:a5:93:ae:bf:35:d6:10:3d:48:b0:1b:34:ec:75:75:db:
        cf:a9:d0:1f:07:d7:c1:7d:ab:5d:e1:73:b1:06:72:7f:5c:f4:
        c8:25:77:96:38:24:8e:8c:6e:c5:03:1e:69:bd:b0:a3:b3:ca:
        f9:0d:67:17:ac:0d:de:47:29:c3:36:8c:3c:18:9b:b6:a4:ef:
        87:a4:42:07:7f:21:66:b8:63:30:63:a2:95:5a:0a:ba:fb:88:
        c4:0e:84:33:c9:77:bd:99:bc:67:cb:f4:b2:dd:3c:ad:de:12:
        28:18:2d:f7:00:8d:b4:03:b4:0b:27:73:c9:b7:77:a6:12:d1:
        14:ad:d5:27:9f:82:74:aa:6b:b1:05:9a:c9:bb:34:af:c5:8d:
        76:9d:33:fc:1e:64:fa:f8:06:12:2c:f0:4f:8e:aa:2a:16:e1:
        ce:0d:36:a6:b1:77:cb:f6:f8:bf:cb:fd:6e:18:35:1e:fa:8f:
        1c:82:82:68:d1:d8:d8:9a:31:e5:c4:c3:5d:95:5f:21:ac:2f:
        0d:53:63:2a:be:01:81:a2:c0:b7:34:bd:87:7a:89:09:aa:68:
        1e:5e:a9:59:13:7f:7d:5c:2a:d5:99:7e:76:51:1a:55:c5:fa:
        e1:8b:f1:97:31:98:d5:2f:77:94:63:27:90:4c:4d:b9:52:5b:
        63:8b:cd:af:02:aa:71:54:33:20:be:ea:3e:37:82:bd:c4:74:
        2a:24:2f:e7:6d:e0:4b:1a:ce:94:d6:3a:68:b6:25:04:c2:82:
        29:b5:5b:ed:bc:85:c1:12:56:26:9e:4c:77:18:11:5d:3b:09:
        7e:86:00:bf:2c:3e:8f:ad:80:9c:b2:97:84:23:9c:58:bd:34:
        fb:26:71:68:8e:27:42:e1:30:34:1e:68:b5:49:1d:cd:8c:85:
        d9:44:e0:0e:0a:92:7e:e9:9d:ba:ce:fc:c4:0c:89:ae:41:46:
        a8:be:5a:4f:0e:16:91:9f:03:45:26:9a:50:8b:8c:e9:66:61:
        45:f7:d2:de:0b:1e:07:cb:91:a3:6f:57:f2:b7:e0:4d:8c:5b:
        f6:d3:73:6c:9a:df:12:56:95:bd:30:1c:29:1a:26:90:69:3d:
        d0:e6:2f:7f:42:af:46:60:01:f4:6e:8a:9f:b7:de:90:c0:18:
        60:b0:36:fa:fd:56:99:b0:1c:49:5b:a3:91:6c:d9:eb:1d:4e:
        a9:38:e4:06:75:0f:14:1a
-----BEGIN CERTIFICATE-----
MIIFXzCCA0egAwIBAgIRAPT5DdYpKc23TW26NpcSRwQwDQYJKoZIhvcNAQELBQAw
GTEXMBUGA1UEAwwOdnBuLmplbmtpbnMuaW8wHhcNMjUxMDIwMTQwNzM2WhcNMjgx
MDA0MTQwNzM2WjAVMRMwEQYDVQQDDAp3Zm9sbG9uaWVyMIICIjANBgkqhkiG9w0B
AQEFAAOCAg8AMIICCgKCAgEAx8eXfHSgou0C5UA7K9Vkaa3p0BdGrb6JHlAofk69
DpzyTf55Xygsk6tU6BEH01il925yuolRwFSR61JXry2sI+GoIGn3yNlQmPdDJjty
HXKaYpROzBSkCAfas1tXLp9mdos2CPh1cFOWPlXCpq9JwG9RbBi28B6jGCRDJ3IZ
B4zTI0MDMeqJ6D9wNLuD9/VVE+WlY/YRBsZy5LTpPLX7hptlHEqRBAUd7uT0+w6V
dRXAHBCeLnGXdNXEyIp8b2cGIY8ev6XQvzwIw+QXp/Gc7MmUV9JiCDD5UO+0Ks09
KMWamr/wapJYbl49kepnjN3agk9HOxQ7e7rqfyv2qgKGOZZTJRBLIK7QFlOjsfsu
dz33hdRdkzfKahJRDME8aWYFs1DmxCKTw3xRj4TyDSxtTyIoZ9VG8rm18T12LrBq
XiaCWJst9hBk6XHfD6aCisGSVoE6aOxCY+ec1rqDAyoKwf1JNz9RhnFJiVin7N8q
9Xz8/3O9SrSilDHabQgWn83UTuXxLMYYo5dK+4TICJCcKPjRAAM6hYgIYfwNYDaR
zRF3S3YMW0l4Ts7O8u5wfbzLMFK2f+Q1YDnkOP0mnMI2TJ3YCBkfEaDNC3kvaEbn
ZDSE/XkGnFXzuqbifK9x1DlD2HK1FmbEu8ElY+YSLl5lpXv1hzJyjgKpNv1f6H/e
/gsCAwEAAaOBpTCBojAJBgNVHRMEAjAAMB0GA1UdDgQWBBQY/vv6KPdseFJR5+ZJ
9pMLhv2LEDBUBgNVHSMETTBLgBSHp8V1NwsUbL9GBIwqUuld2lHc5qEdpBswGTEX
MBUGA1UEAwwOdnBuLmplbmtpbnMuaW+CFAgBqm0bMUBPe5x1VFR4tTZlO3yzMBMG
A1UdJQQMMAoGCCsGAQUFBwMCMAsGA1UdDwQEAwIHgDANBgkqhkiG9w0BAQsFAAOC
AgEAohgKp1egFf0WHMzyxgHVheO/82E7mCcqpkwTIfPT6FBNXgLt2ZTEYAjLcsPA
gzrCJGiLwbo5P3mlk66/NdYQPUiwGzTsdXXbz6nQHwfXwX2rXeFzsQZyf1z0yCV3
ljgkjoxuxQMeab2wo7PK+Q1nF6wN3kcpwzaMPBibtqTvh6RCB38hZrhjMGOilVoK
uvuIxA6EM8l3vZm8Z8v0st08rd4SKBgt9wCNtAO0Cydzybd3phLRFK3VJ5+CdKpr
sQWaybs0r8WNdp0z/B5k+vgGEizwT46qKhbhzg02prF3y/b4v8v9bhg1HvqPHIKC
aNHY2Jox5cTDXZVfIawvDVNjKr4BgaLAtzS9h3qJCapoHl6pWRN/fVwq1Zl+dlEa
VcX64YvxlzGY1S93lGMnkExNuVJbY4vNrwKqcVQzIL7qPjeCvcR0KiQv523gSxrO
lNY6aLYlBMKCKbVb7byFwRJWJp5MdxgRXTsJfoYAvyw+j62AnLKXhCOcWL00+yZx
aI4nQuEwNB5otUkdzYyF2UTgDgqSfumdus78xAyJrkFGqL5aTw4WkZ8DRSaaUIuM
6WZhRffS3gseB8uRo29X8rfgTYxb9tNzbJrfElaVvTAcKRomkGk90OYvf0KvRmAB
9G6Kn7fekMAYYLA2+v1WmbAcSVujkWzZ6x1OqTjkBnUPFBo=
-----END CERTIFICATE-----
