Certificate:
    Data:
        Version: 3 (0x2)
        Serial Number:
            f8:ab:ff:82:4d:8b:3b:7c:fc:58:48:11:c2:50:94:36
    Signature Algorithm: sha256WithRSAEncryption
        Issuer: CN=vpn.jenkins.io
        Validity
            Not Before: Jan 20 08:37:48 2023 GMT
            Not After : Jan  4 08:37:48 2026 GMT
        Subject: CN=markewaite
        Subject Public Key Info:
            Public Key Algorithm: rsaEncryption
                RSA Public-Key: (4096 bit)
                Modulus:
                    00:c0:3b:ab:14:2c:3a:1a:2b:83:7c:3d:23:40:af:
                    7e:23:ab:df:f0:df:80:b6:38:1f:00:95:c4:97:6e:
                    04:04:78:7a:f7:e9:2f:e0:2b:e7:e8:74:75:d7:8e:
                    ee:0e:3f:83:8f:fb:2a:03:92:95:6c:8c:22:86:98:
                    79:fb:88:22:64:b6:c3:1e:b1:72:98:9d:15:6e:80:
                    0a:a6:3e:39:40:6b:92:9f:d2:4b:40:fa:00:cb:3a:
                    89:c2:eb:ff:8b:cb:e5:65:dd:e9:8c:5c:96:ff:17:
                    9e:8a:4f:12:35:c1:0e:23:72:be:fe:08:b7:c7:f8:
                    f8:86:05:86:c3:d2:7a:43:68:db:42:28:a7:a6:b2:
                    73:8a:9c:4f:79:e7:f4:43:64:9e:93:e7:98:68:f9:
                    6a:b4:47:ab:bb:72:fc:2f:e4:cb:08:b4:c8:89:d0:
                    e4:b6:e7:b5:fa:f5:7d:b2:28:5e:f4:6c:4d:5a:f5:
                    6c:92:5d:68:a5:d9:46:25:da:bf:01:00:de:04:73:
                    9d:d3:5e:09:4c:d8:71:2d:32:9d:94:db:0d:c9:3c:
                    0c:53:11:cd:e4:f4:dd:53:2b:0b:8a:9a:dd:51:bf:
                    b9:26:16:e9:fb:1a:a4:e9:44:c8:cc:21:c2:67:b5:
                    7e:38:d4:aa:f6:99:03:d9:1d:49:84:f7:47:be:f9:
                    6c:26:f4:eb:6f:e9:cd:97:1f:e8:0d:3c:ba:6a:df:
                    49:17:cd:21:e3:96:04:69:b6:94:71:64:1a:32:d2:
                    ff:e2:16:7a:06:0a:de:a5:15:ca:6a:b3:01:f6:f9:
                    9f:cc:ff:9e:12:38:53:ff:f1:bd:18:b5:85:81:5f:
                    df:d0:00:c1:d5:c0:f1:e4:4e:11:d6:99:2e:28:03:
                    cb:3e:5d:74:c1:43:60:20:ea:ed:b0:7c:bb:f1:2c:
                    b3:57:b9:54:96:18:a8:fb:2a:9c:c8:22:c8:fd:97:
                    04:77:3c:ed:f7:2c:64:d9:b6:e8:4e:0a:06:44:86:
                    ee:36:e7:93:25:8e:5c:dc:3e:f9:30:fc:7d:00:b4:
                    c0:89:73:47:78:66:95:92:04:e7:ad:66:44:16:0e:
                    7b:33:9f:1d:ee:fb:30:1b:c5:62:d9:b4:d1:c9:b8:
                    8c:aa:55:6c:4a:4d:58:1e:37:0d:d4:d5:48:3c:42:
                    27:9d:90:9d:70:60:56:71:db:32:df:94:64:80:99:
                    dd:cb:ad:06:32:fa:f4:50:6d:e2:a8:35:d2:6d:68:
                    55:18:2f:f9:ec:56:78:fc:25:57:70:55:1d:fe:65:
                    6f:48:20:61:57:2b:91:c2:c1:92:b5:f6:73:38:93:
                    3d:e1:7a:c4:f5:00:ca:54:17:fd:e2:68:5c:06:82:
                    89:ea:ff
                Exponent: 65537 (0x10001)
        X509v3 extensions:
            X509v3 Basic Constraints: 
                CA:FALSE
            X509v3 Subject Key Identifier: 
                57:D9:F4:75:47:7A:A9:57:53:C7:EF:CA:0B:0B:E2:83:F7:FF:48:31
            X509v3 Authority Key Identifier: 
                keyid:87:A7:C5:75:37:0B:14:6C:BF:46:04:8C:2A:52:E9:5D:DA:51:DC:E6
                DirName:/CN=vpn.jenkins.io
                serial:08:01:AA:6D:1B:31:40:4F:7B:9C:75:54:54:78:B5:36:65:3B:7C:B3

            X509v3 Extended Key Usage: 
                TLS Web Client Authentication
            X509v3 Key Usage: 
                Digital Signature
    Signature Algorithm: sha256WithRSAEncryption
         73:4b:20:28:1d:ed:30:5d:0f:ad:92:df:a0:c3:d8:e7:da:cf:
         3e:1f:f7:7e:a9:c3:a2:f8:bb:93:0c:8c:44:cf:00:19:2e:9a:
         0e:aa:91:18:67:30:69:84:d5:d3:f1:ff:12:91:36:69:e3:a1:
         0c:e1:2b:d7:60:9d:df:3a:90:f5:cc:73:3e:95:e3:5b:2b:a5:
         3d:05:f3:05:6c:71:4a:9f:97:06:77:eb:ab:52:47:ee:c5:00:
         86:98:d5:18:fc:a5:fd:29:2a:cc:17:73:e3:d5:1d:68:c1:81:
         75:e9:48:48:b4:47:0c:df:d2:d0:e7:db:f0:8a:b7:72:7b:7c:
         9b:64:bc:60:20:31:4b:be:c4:69:b9:76:47:31:a0:1f:db:f1:
         e3:ad:95:69:f1:6d:15:c8:23:35:6b:36:b9:56:60:40:1e:93:
         5a:54:62:8a:4c:4e:ef:5c:fa:c4:37:e1:b8:84:a5:b3:79:e0:
         dd:49:af:7a:0a:81:5e:d8:2f:cd:c4:35:c3:92:c0:b1:b8:28:
         e1:9b:ba:f2:94:bf:06:74:f2:1c:eb:8d:a8:09:78:18:b0:ad:
         72:bd:21:97:f2:38:b9:cd:c4:90:d5:12:c7:11:61:0b:7b:6d:
         80:fd:a0:45:fa:64:8f:63:d8:a9:3a:a4:22:53:b9:f7:10:91:
         20:44:99:bb:6c:84:66:4d:37:90:16:74:f9:77:31:95:0f:f1:
         d5:b4:11:58:c7:03:d8:99:64:25:7d:bc:bb:00:66:3d:9f:c0:
         2c:c7:a1:c5:c0:86:63:c3:22:bd:2e:13:8e:89:a4:fa:47:89:
         7d:34:ad:d9:cd:aa:4b:82:e6:85:64:22:89:47:65:8f:4b:e4:
         a5:c9:7a:1c:71:38:16:b0:03:71:b4:e6:05:97:20:bb:c1:1f:
         1a:9c:3a:ea:b4:85:79:3e:61:7c:aa:6c:4f:51:73:aa:aa:f9:
         02:b0:d4:df:19:93:71:3b:58:86:b5:a8:cb:cf:52:eb:ff:b9:
         ba:0b:c2:90:e9:1f:bf:5c:c5:7f:9c:b6:0a:d4:e6:34:44:74:
         cd:ce:5a:30:31:d0:5c:9a:88:7e:63:df:d1:fb:01:90:af:67:
         28:c7:d9:34:8c:c4:a7:8a:ec:ad:8e:24:1b:97:23:b9:3e:8f:
         ad:76:c8:cc:31:29:b4:ca:1b:0f:17:29:ec:d6:0e:78:1d:7c:
         b3:8f:7d:f1:b3:2f:92:ca:e1:01:d9:d0:7d:44:e8:46:8b:c8:
         aa:7e:57:cf:9a:ab:0b:56:95:fc:33:a7:61:88:ad:9f:55:06:
         a5:ac:cb:6f:01:16:04:0c:0b:75:e1:7c:05:ac:3f:0d:56:84:
         86:32:c0:e9:3f:1d:cf:f0
-----BEGIN CERTIFICATE-----
MIIFXzCCA0egAwIBAgIRAPir/4JNizt8/FhIEcJQlDYwDQYJKoZIhvcNAQELBQAw
GTEXMBUGA1UEAwwOdnBuLmplbmtpbnMuaW8wHhcNMjMwMTIwMDgzNzQ4WhcNMjYw
MTA0MDgzNzQ4WjAVMRMwEQYDVQQDDAptYXJrZXdhaXRlMIICIjANBgkqhkiG9w0B
AQEFAAOCAg8AMIICCgKCAgEAwDurFCw6GiuDfD0jQK9+I6vf8N+AtjgfAJXEl24E
BHh69+kv4Cvn6HR1147uDj+Dj/sqA5KVbIwihph5+4giZLbDHrFymJ0VboAKpj45
QGuSn9JLQPoAyzqJwuv/i8vlZd3pjFyW/xeeik8SNcEOI3K+/gi3x/j4hgWGw9J6
Q2jbQiinprJzipxPeef0Q2Sek+eYaPlqtEeru3L8L+TLCLTIidDktue1+vV9sihe
9GxNWvVskl1opdlGJdq/AQDeBHOd014JTNhxLTKdlNsNyTwMUxHN5PTdUysLiprd
Ub+5Jhbp+xqk6UTIzCHCZ7V+ONSq9pkD2R1JhPdHvvlsJvTrb+nNlx/oDTy6at9J
F80h45YEabaUcWQaMtL/4hZ6BgrepRXKarMB9vmfzP+eEjhT//G9GLWFgV/f0ADB
1cDx5E4R1pkuKAPLPl10wUNgIOrtsHy78SyzV7lUlhio+yqcyCLI/ZcEdzzt9yxk
2bboTgoGRIbuNueTJY5c3D75MPx9ALTAiXNHeGaVkgTnrWZEFg57M58d7vswG8Vi
2bTRybiMqlVsSk1YHjcN1NVIPEInnZCdcGBWcdsy35RkgJndy60GMvr0UG3iqDXS
bWhVGC/57FZ4/CVXcFUd/mVvSCBhVyuRwsGStfZzOJM94XrE9QDKVBf94mhcBoKJ
6v8CAwEAAaOBpTCBojAJBgNVHRMEAjAAMB0GA1UdDgQWBBRX2fR1R3qpV1PH78oL
C+KD9/9IMTBUBgNVHSMETTBLgBSHp8V1NwsUbL9GBIwqUuld2lHc5qEdpBswGTEX
MBUGA1UEAwwOdnBuLmplbmtpbnMuaW+CFAgBqm0bMUBPe5x1VFR4tTZlO3yzMBMG
A1UdJQQMMAoGCCsGAQUFBwMCMAsGA1UdDwQEAwIHgDANBgkqhkiG9w0BAQsFAAOC
AgEAc0sgKB3tMF0PrZLfoMPY59rPPh/3fqnDovi7kwyMRM8AGS6aDqqRGGcwaYTV
0/H/EpE2aeOhDOEr12Cd3zqQ9cxzPpXjWyulPQXzBWxxSp+XBnfrq1JH7sUAhpjV
GPyl/SkqzBdz49UdaMGBdelISLRHDN/S0Ofb8Iq3cnt8m2S8YCAxS77Eabl2RzGg
H9vx462VafFtFcgjNWs2uVZgQB6TWlRiikxO71z6xDfhuISls3ng3UmvegqBXtgv
zcQ1w5LAsbgo4Zu68pS/BnTyHOuNqAl4GLCtcr0hl/I4uc3EkNUSxxFhC3ttgP2g
Rfpkj2PYqTqkIlO59xCRIESZu2yEZk03kBZ0+XcxlQ/x1bQRWMcD2JlkJX28uwBm
PZ/ALMehxcCGY8MivS4Tjomk+keJfTSt2c2qS4LmhWQiiUdlj0vkpcl6HHE4FrAD
cbTmBZcgu8EfGpw66rSFeT5hfKpsT1Fzqqr5ArDU3xmTcTtYhrWoy89S6/+5ugvC
kOkfv1zFf5y2CtTmNER0zc5aMDHQXJqIfmPf0fsBkK9nKMfZNIzEp4rsrY4kG5cj
uT6PrXbIzDEptMobDxcp7NYOeB18s4998bMvksrhAdnQfUToRovIqn5Xz5qrC1aV
/DOnYYitn1UGpazLbwEWBAwLdeF8Baw/DVaEhjLA6T8dz/A=
-----END CERTIFICATE-----
