Certificate:
    Data:
        Version: 3 (0x2)
        Serial Number:
            fb:83:07:47:eb:5b:d0:c6:f2:87:41:59:17:d1:36:f6
        Signature Algorithm: sha256WithRSAEncryption
        Issuer: CN=vpn.jenkins.io
        Validity
            Not Before: Jun 13 11:48:37 2019 GMT
            Not After : May 28 11:48:37 2022 GMT
        Subject: CN=mpapo
        Subject Public Key Info:
            Public Key Algorithm: rsaEncryption
                RSA Public-Key: (4096 bit)
                Modulus:
                    00:b2:c2:88:56:22:ca:fe:35:f0:a0:ce:ea:60:e5:
                    e5:ed:35:52:69:14:4e:68:89:32:5e:d0:95:43:23:
                    bc:94:2e:db:bb:ea:33:25:c1:97:72:bf:76:6f:78:
                    18:78:04:e4:55:59:90:36:a8:d6:67:51:71:5f:38:
                    6b:5e:9c:27:65:32:b0:43:ad:b1:89:e8:a5:0c:cb:
                    0f:b6:da:28:87:57:23:fe:fa:42:d4:11:a3:0e:b3:
                    f7:62:16:55:46:e7:db:e5:d6:b3:52:9e:4f:2a:06:
                    0a:a0:ce:76:bb:45:a9:92:ff:ed:e5:03:65:81:f9:
                    ea:ab:99:24:f7:ff:af:43:24:01:4a:3e:13:6c:9e:
                    ff:94:c6:03:bd:33:d2:b8:b4:cf:c8:7d:29:9c:45:
                    6b:7e:44:1c:36:d4:8c:fa:0c:3d:60:7e:6d:e1:eb:
                    dd:b8:f5:2d:67:66:b0:3e:38:90:3e:46:c0:a6:bc:
                    c9:e5:83:f7:37:54:1b:38:8d:72:4b:68:ca:39:91:
                    d6:97:16:06:6f:d5:00:17:8c:8f:0c:84:7d:ee:79:
                    3c:47:6c:25:9d:5a:b1:3a:0d:af:8d:b2:28:65:03:
                    da:94:46:35:94:bc:32:3b:16:15:bd:ab:19:d2:d6:
                    ad:aa:47:b2:18:ca:42:13:fa:56:1e:de:2d:58:08:
                    60:af:83:a8:e8:47:f8:4d:76:46:89:9e:ca:8c:72:
                    8a:d4:82:e4:42:db:68:6a:6a:99:45:df:cd:43:98:
                    40:93:ec:45:08:45:e6:4f:3e:5b:0a:26:0d:09:f8:
                    f6:18:ea:34:fa:d3:90:54:09:0f:5b:af:6a:50:ba:
                    ec:8a:44:97:86:81:c2:d9:cc:7a:27:67:da:29:30:
                    df:99:7c:b2:28:eb:99:81:ad:a2:ac:91:fd:32:ca:
                    3a:1e:b6:db:c2:38:a0:35:f4:87:8a:28:8b:4a:0a:
                    73:2f:ce:3c:1b:3e:e8:60:c6:04:61:cc:ea:ff:b9:
                    28:42:ff:07:23:31:34:43:89:cb:0d:15:51:a8:6d:
                    a1:9d:a8:be:0c:d5:83:b8:a0:7d:19:18:bf:67:3a:
                    e1:ff:4e:b8:ec:ca:a7:8b:19:79:fa:62:b9:5f:b0:
                    9f:b8:db:55:df:9f:0e:15:85:47:3e:e8:a2:21:20:
                    09:5a:56:ea:7e:11:34:6e:43:e2:78:de:85:71:1a:
                    4c:24:54:ee:94:13:75:12:14:ba:1a:ee:c4:36:ea:
                    f5:7e:44:42:00:b0:34:bc:8a:26:cc:3f:75:ee:2d:
                    41:a6:41:4f:9c:2e:e7:c1:60:4b:f5:31:67:8e:fe:
                    c4:63:9b:26:4c:5c:c3:6e:32:41:d5:43:33:39:ff:
                    2c:4b:8b
                Exponent: 65537 (0x10001)
        X509v3 extensions:
            X509v3 Basic Constraints: 
                CA:FALSE
            X509v3 Subject Key Identifier: 
                AE:32:96:53:46:9B:10:23:67:2F:4A:EA:0C:FF:F8:27:49:E9:C2:CE
            X509v3 Authority Key Identifier: 
                keyid:87:A7:C5:75:37:0B:14:6C:BF:46:04:8C:2A:52:E9:5D:DA:51:DC:E6
                DirName:/CN=vpn.jenkins.io
                serial:08:01:AA:6D:1B:31:40:4F:7B:9C:75:54:54:78:B5:36:65:3B:7C:B3

            X509v3 Extended Key Usage: 
                TLS Web Client Authentication
            X509v3 Key Usage: 
                Digital Signature
    Signature Algorithm: sha256WithRSAEncryption
         af:5a:e1:70:83:80:9f:48:12:5c:9b:a3:ac:7b:fd:48:a8:de:
         af:db:c5:a7:62:dd:0d:10:86:4e:12:6b:56:24:c5:f6:c7:ea:
         84:d9:45:2f:3e:f1:a4:20:2c:d9:8a:67:b5:93:b0:6a:09:9f:
         a1:9c:db:2e:b6:77:0e:34:87:1c:5d:f7:16:0c:c4:d3:92:0a:
         8d:44:64:db:df:02:10:0a:db:fd:1b:dc:c1:67:63:d4:bb:77:
         7a:e5:c6:77:cf:c5:cb:14:9a:44:2d:38:ea:b0:f1:51:de:e0:
         a4:7b:5a:e3:a3:ab:7b:ed:95:7b:65:33:c5:54:b2:fd:b0:fe:
         85:cb:4c:f6:2d:53:91:df:9f:8b:96:3b:59:89:71:2c:c9:f0:
         65:c4:02:d2:1f:87:04:31:10:be:d2:48:78:1e:40:93:fb:68:
         35:ee:1f:c2:a7:86:d0:40:20:0b:7f:ed:da:d8:74:b7:24:4e:
         83:66:08:1d:64:4f:70:b9:ed:58:62:81:a3:4c:6c:86:a7:b3:
         74:83:e7:1a:73:ff:50:26:c2:e8:86:c5:21:ef:33:74:99:60:
         ef:e4:d3:70:03:bc:66:1c:5b:3c:df:84:85:b9:88:57:43:6c:
         44:ea:de:c2:84:33:61:c6:90:dc:0f:e9:84:a4:79:81:60:44:
         2a:af:83:52:70:d8:0e:f2:6a:9f:4b:73:0b:77:ec:b0:ea:6d:
         c9:a3:30:a5:f8:33:a7:fc:dd:1b:03:85:4d:46:60:14:c0:1d:
         e1:16:26:90:2e:22:90:e5:52:e3:c9:83:65:f2:b4:f2:7a:e5:
         53:8c:1d:7a:8b:50:29:51:36:90:86:bb:85:fa:26:19:9c:6d:
         ca:fb:12:8e:15:61:de:ee:63:da:42:10:03:f5:a4:f6:b0:6c:
         d7:3a:8e:4b:99:4f:49:6b:2b:8d:5e:c4:30:42:85:10:2c:e3:
         4f:b0:16:3c:e5:29:01:52:93:cd:ba:d8:27:21:51:3b:42:f4:
         99:51:67:df:bf:0b:ac:1b:70:64:7e:a8:41:75:90:19:d5:20:
         1c:0f:5f:ed:fe:55:5a:6f:25:72:6a:4a:f1:d1:c4:a1:f8:58:
         7e:d7:66:3e:76:a0:6c:d7:0f:31:cf:da:45:d8:49:4c:aa:ed:
         6b:19:6e:41:e1:de:18:4d:84:99:3c:a1:e9:fa:af:4c:aa:9d:
         9d:1f:d3:5d:77:75:c6:40:08:ff:07:8c:f8:05:06:2e:a6:0e:
         12:84:32:f1:1b:ae:4b:0e:fd:9b:ae:4e:de:2f:4f:0b:79:83:
         b8:e7:75:b1:a3:d4:3b:5b:a4:f0:76:49:dd:b9:1b:21:7a:44:
         8f:fd:2b:58:b6:20:be:f5
-----BEGIN CERTIFICATE-----
MIIFWjCCA0KgAwIBAgIRAPuDB0frW9DG8odBWRfRNvYwDQYJKoZIhvcNAQELBQAw
GTEXMBUGA1UEAwwOdnBuLmplbmtpbnMuaW8wHhcNMTkwNjEzMTE0ODM3WhcNMjIw
NTI4MTE0ODM3WjAQMQ4wDAYDVQQDDAVtcGFwbzCCAiIwDQYJKoZIhvcNAQEBBQAD
ggIPADCCAgoCggIBALLCiFYiyv418KDO6mDl5e01UmkUTmiJMl7QlUMjvJQu27vq
MyXBl3K/dm94GHgE5FVZkDao1mdRcV84a16cJ2UysEOtsYnopQzLD7baKIdXI/76
QtQRow6z92IWVUbn2+XWs1KeTyoGCqDOdrtFqZL/7eUDZYH56quZJPf/r0MkAUo+
E2ye/5TGA70z0ri0z8h9KZxFa35EHDbUjPoMPWB+beHr3bj1LWdmsD44kD5GwKa8
yeWD9zdUGziNcktoyjmR1pcWBm/VABeMjwyEfe55PEdsJZ1asToNr42yKGUD2pRG
NZS8MjsWFb2rGdLWrapHshjKQhP6Vh7eLVgIYK+DqOhH+E12RomeyoxyitSC5ELb
aGpqmUXfzUOYQJPsRQhF5k8+WwomDQn49hjqNPrTkFQJD1uvalC67IpEl4aBwtnM
eidn2ikw35l8sijrmYGtoqyR/TLKOh6228I4oDX0h4ooi0oKcy/OPBs+6GDGBGHM
6v+5KEL/ByMxNEOJyw0VUahtoZ2ovgzVg7igfRkYv2c64f9OuOzKp4sZefpiuV+w
n7jbVd+fDhWFRz7ooiEgCVpW6n4RNG5D4njehXEaTCRU7pQTdRIUuhruxDbq9X5E
QgCwNLyKJsw/de4tQaZBT5wu58FgS/UxZ47+xGObJkxcw24yQdVDMzn/LEuLAgMB
AAGjgaUwgaIwCQYDVR0TBAIwADAdBgNVHQ4EFgQUrjKWU0abECNnL0rqDP/4J0np
ws4wVAYDVR0jBE0wS4AUh6fFdTcLFGy/RgSMKlLpXdpR3OahHaQbMBkxFzAVBgNV
BAMMDnZwbi5qZW5raW5zLmlvghQIAaptGzFAT3ucdVRUeLU2ZTt8szATBgNVHSUE
DDAKBggrBgEFBQcDAjALBgNVHQ8EBAMCB4AwDQYJKoZIhvcNAQELBQADggIBAK9a
4XCDgJ9IElybo6x7/Uio3q/bxadi3Q0Qhk4Sa1YkxfbH6oTZRS8+8aQgLNmKZ7WT
sGoJn6Gc2y62dw40hxxd9xYMxNOSCo1EZNvfAhAK2/0b3MFnY9S7d3rlxnfPxcsU
mkQtOOqw8VHe4KR7WuOjq3vtlXtlM8VUsv2w/oXLTPYtU5Hfn4uWO1mJcSzJ8GXE
AtIfhwQxEL7SSHgeQJP7aDXuH8KnhtBAIAt/7drYdLckToNmCB1kT3C57VhigaNM
bIans3SD5xpz/1AmwuiGxSHvM3SZYO/k03ADvGYcWzzfhIW5iFdDbETq3sKEM2HG
kNwP6YSkeYFgRCqvg1Jw2A7yap9Lcwt37LDqbcmjMKX4M6f83RsDhU1GYBTAHeEW
JpAuIpDlUuPJg2XytPJ65VOMHXqLUClRNpCGu4X6Jhmcbcr7Eo4VYd7uY9pCEAP1
pPawbNc6jkuZT0lrK41exDBChRAs40+wFjzlKQFSk8262CchUTtC9JlRZ9+/C6wb
cGR+qEF1kBnVIBwPX+3+VVpvJXJqSvHRxKH4WH7XZj52oGzXDzHP2kXYSUyq7WsZ
bkHh3hhNhJk8oen6r0yqnZ0f0113dcZACP8HjPgFBi6mDhKEMvEbrksO/ZuuTt4v
Twt5g7jndbGj1DtbpPB2Sd25GyF6RI/9K1i2IL71
-----END CERTIFICATE-----
