Certificate:
    Data:
        Version: 3 (0x2)
        Serial Number:
            fb:f7:e3:f6:8f:9e:9b:77:17:bd:50:ce:36:aa:bc:10
    Signature Algorithm: sha256WithRSAEncryption
        Issuer: CN=vpn.jenkins.io
        Validity
            Not Before: Dec 12 15:24:36 2022 GMT
            Not After : Nov 26 15:24:36 2025 GMT
        Subject: CN=hlemeur
        Subject Public Key Info:
            Public Key Algorithm: rsaEncryption
                Public-Key: (4096 bit)
                Modulus:
                    00:cc:c1:22:d1:72:b6:d2:cb:2b:3e:0e:b7:f8:22:
                    98:40:ef:b8:a0:6d:96:26:4d:8a:bf:ef:b4:67:80:
                    c1:b0:08:8d:db:32:c5:76:3e:44:9f:2c:14:ea:82:
                    3a:16:2d:24:ea:7a:53:6a:54:50:71:e0:4b:96:d9:
                    69:37:bb:d1:cd:da:88:f0:19:33:b6:a4:ce:97:f9:
                    b4:2d:ca:3a:0d:30:27:93:63:cb:91:e4:f4:76:66:
                    cd:bc:ab:66:1c:bc:8d:08:cd:dc:b0:ac:b7:12:69:
                    a4:82:50:e0:48:40:bc:48:1d:5d:23:8c:11:90:87:
                    bc:2e:4a:28:0c:18:46:1f:24:c3:a5:59:e1:df:59:
                    db:a6:59:2a:00:43:7e:a3:32:bb:8f:b5:1b:70:f1:
                    00:f1:19:9d:cd:93:98:6e:72:6b:e1:97:83:43:64:
                    f8:60:56:b9:4e:18:72:0c:db:78:14:d3:07:c6:60:
                    90:e6:39:01:f9:12:88:13:9f:24:21:58:40:e7:41:
                    c8:d1:2e:a7:4e:c3:1d:9e:b7:c9:58:29:48:f6:91:
                    17:69:3b:de:df:89:3a:e6:28:06:8b:38:85:bd:8a:
                    b9:64:fb:f9:7e:92:bf:71:55:aa:6d:3a:aa:5c:35:
                    b9:c9:4b:52:68:5c:6a:f6:6f:49:df:fc:0a:10:7e:
                    8a:60:2b:27:be:91:40:0b:b0:41:62:05:c2:c6:70:
                    1c:b4:c3:8e:8b:67:d5:78:60:40:a3:bd:b0:35:63:
                    4b:3e:c2:8d:2d:14:ee:ad:42:d9:eb:fb:6c:27:3b:
                    c0:37:89:b8:7f:1d:56:1b:af:b4:70:90:b1:16:f4:
                    36:f9:32:59:10:ca:c0:19:63:e0:f4:66:ce:dd:eb:
                    c8:86:d8:21:7a:80:1f:78:43:68:c4:1f:c3:d2:11:
                    2f:18:58:4f:aa:e0:71:06:59:d9:7c:96:51:9c:d6:
                    2d:00:18:28:0e:f5:9c:10:77:f8:2b:e0:18:94:bb:
                    37:fc:aa:9d:db:c5:14:9a:c3:78:58:fc:1a:77:2a:
                    02:e1:8a:ee:57:42:d8:a1:a9:81:5a:09:01:2e:e9:
                    11:2d:de:4e:e3:4b:8b:f4:48:ff:a7:18:f2:e8:09:
                    4c:0f:52:4a:a8:b0:29:c1:e4:2a:f1:02:30:58:a3:
                    cb:87:36:6a:d4:d5:f7:2d:08:38:15:3e:59:16:5b:
                    41:b3:de:74:9f:85:55:69:49:7a:e5:4d:7c:c8:4e:
                    e9:ee:4a:b0:cd:d2:69:83:5e:04:c8:a6:c7:0b:4d:
                    ee:d4:99:f1:ca:49:56:44:30:fc:a2:50:22:a8:9a:
                    bd:df:07:76:4b:a4:55:6c:ab:1c:df:81:ae:14:ee:
                    9c:05:d3
                Exponent: 65537 (0x10001)
        X509v3 extensions:
            X509v3 Basic Constraints: 
                CA:FALSE
            X509v3 Subject Key Identifier: 
                45:71:1D:59:9B:5B:9B:8A:D0:23:C5:2C:6A:7E:E7:50:FB:39:4E:92
            X509v3 Authority Key Identifier: 
                keyid:87:A7:C5:75:37:0B:14:6C:BF:46:04:8C:2A:52:E9:5D:DA:51:DC:E6
                DirName:/CN=vpn.jenkins.io
                serial:08:01:AA:6D:1B:31:40:4F:7B:9C:75:54:54:78:B5:36:65:3B:7C:B3

            X509v3 Extended Key Usage: 
                TLS Web Client Authentication
            X509v3 Key Usage: 
                Digital Signature
    Signature Algorithm: sha256WithRSAEncryption
         6f:67:58:7d:b7:36:07:fc:78:ab:b5:a1:85:cd:8c:b6:da:69:
         48:c8:0f:c5:e8:18:60:83:b3:e4:c8:3d:e2:d5:d2:91:1e:1b:
         06:01:b8:7b:4e:63:e4:84:71:a1:00:61:a5:ee:80:8f:3a:97:
         48:4f:dd:01:d6:56:d8:d8:ef:b1:fd:9b:0b:84:8b:92:cb:fd:
         bb:6c:88:5b:ca:00:55:32:26:8c:b8:a3:a7:29:68:09:85:ac:
         32:9b:ce:17:2f:32:3a:64:13:70:5a:80:73:cf:55:d5:bb:cc:
         7b:5f:c1:63:94:e0:f1:a6:77:bd:e6:85:6a:38:b2:a7:68:30:
         f6:bf:dc:ef:3b:03:22:67:2e:1d:c3:be:60:4e:72:8e:67:38:
         95:d0:26:8f:c3:68:29:d5:68:ab:b7:b5:be:38:25:7d:4d:a5:
         8a:1c:f1:05:62:37:9f:91:90:bd:ae:06:4c:15:e5:51:52:a3:
         d0:36:f5:e5:e0:24:66:e3:60:47:8b:0d:71:af:6f:35:6c:73:
         b7:3a:55:6c:46:c8:e8:4d:56:26:f0:7f:1d:d7:a7:b5:86:6f:
         0a:36:1b:1e:e1:ab:9a:ad:ba:d3:6b:98:3e:f5:91:72:df:07:
         b9:8d:78:0b:94:8b:7a:f5:93:6d:6e:39:3b:81:99:69:87:cf:
         e5:9a:ba:ea:16:e6:7b:3e:3f:7c:9a:7c:86:8f:b4:a8:62:52:
         f3:a5:f3:32:5f:8f:bf:a9:b7:09:aa:49:f0:fa:18:2e:83:2e:
         7f:d8:63:ec:d1:50:49:39:83:c7:e2:8e:6b:91:8c:de:51:45:
         31:17:bc:19:c5:c9:92:6d:c3:dc:59:e1:75:b1:4f:db:16:2e:
         5e:7a:48:6e:dc:b9:0e:f9:7f:69:b6:0c:5c:d3:a6:f8:09:d0:
         2e:af:5d:e5:4c:1c:7c:ed:18:0b:71:8a:d3:cd:3e:9b:1d:ff:
         ec:88:e3:a9:32:a1:16:ea:a7:26:cb:6e:37:aa:b1:f3:1f:7e:
         4e:c5:69:c6:d4:dc:f6:2f:91:59:df:66:91:76:61:81:40:5c:
         51:2d:90:44:6f:86:73:73:ee:ea:9b:f9:d0:48:72:07:74:d7:
         4b:2a:3a:e5:20:6a:af:c5:da:95:0f:45:c1:28:36:d0:f9:0f:
         31:85:e1:b8:45:c4:2a:96:a9:69:19:46:0b:1c:e0:f7:85:13:
         e9:98:28:41:ca:99:18:f7:bb:48:a7:c7:1d:2f:bd:fa:26:4a:
         e8:fd:52:46:d2:9a:a5:22:93:f9:6f:82:1e:d4:a7:c9:d9:d7:
         8e:fe:1a:8c:a0:f7:44:f8:c2:99:d9:af:20:bc:1d:49:41:8a:
         ee:ae:14:3a:b0:d5:8e:14
-----BEGIN CERTIFICATE-----
MIIFXDCCA0SgAwIBAgIRAPv34/aPnpt3F71QzjaqvBAwDQYJKoZIhvcNAQELBQAw
GTEXMBUGA1UEAwwOdnBuLmplbmtpbnMuaW8wHhcNMjIxMjEyMTUyNDM2WhcNMjUx
MTI2MTUyNDM2WjASMRAwDgYDVQQDDAdobGVtZXVyMIICIjANBgkqhkiG9w0BAQEF
AAOCAg8AMIICCgKCAgEAzMEi0XK20ssrPg63+CKYQO+4oG2WJk2Kv++0Z4DBsAiN
2zLFdj5EnywU6oI6Fi0k6npTalRQceBLltlpN7vRzdqI8BkztqTOl/m0Lco6DTAn
k2PLkeT0dmbNvKtmHLyNCM3csKy3EmmkglDgSEC8SB1dI4wRkIe8LkooDBhGHyTD
pVnh31nbplkqAEN+ozK7j7UbcPEA8RmdzZOYbnJr4ZeDQ2T4YFa5ThhyDNt4FNMH
xmCQ5jkB+RKIE58kIVhA50HI0S6nTsMdnrfJWClI9pEXaTve34k65igGiziFvYq5
ZPv5fpK/cVWqbTqqXDW5yUtSaFxq9m9J3/wKEH6KYCsnvpFAC7BBYgXCxnActMOO
i2fVeGBAo72wNWNLPsKNLRTurULZ6/tsJzvAN4m4fx1WG6+0cJCxFvQ2+TJZEMrA
GWPg9GbO3evIhtgheoAfeENoxB/D0hEvGFhPquBxBlnZfJZRnNYtABgoDvWcEHf4
K+AYlLs3/Kqd28UUmsN4WPwadyoC4YruV0LYoamBWgkBLukRLd5O40uL9Ej/pxjy
6AlMD1JKqLApweQq8QIwWKPLhzZq1NX3LQg4FT5ZFltBs950n4VVaUl65U18yE7p
7kqwzdJpg14EyKbHC03u1JnxyklWRDD8olAiqJq93wd2S6RVbKsc34GuFO6cBdMC
AwEAAaOBpTCBojAJBgNVHRMEAjAAMB0GA1UdDgQWBBRFcR1Zm1ubitAjxSxqfudQ
+zlOkjBUBgNVHSMETTBLgBSHp8V1NwsUbL9GBIwqUuld2lHc5qEdpBswGTEXMBUG
A1UEAwwOdnBuLmplbmtpbnMuaW+CFAgBqm0bMUBPe5x1VFR4tTZlO3yzMBMGA1Ud
JQQMMAoGCCsGAQUFBwMCMAsGA1UdDwQEAwIHgDANBgkqhkiG9w0BAQsFAAOCAgEA
b2dYfbc2B/x4q7Whhc2MttppSMgPxegYYIOz5Mg94tXSkR4bBgG4e05j5IRxoQBh
pe6AjzqXSE/dAdZW2Njvsf2bC4SLksv9u2yIW8oAVTImjLijpyloCYWsMpvOFy8y
OmQTcFqAc89V1bvMe1/BY5Tg8aZ3veaFajiyp2gw9r/c7zsDImcuHcO+YE5yjmc4
ldAmj8NoKdVoq7e1vjglfU2lihzxBWI3n5GQva4GTBXlUVKj0Db15eAkZuNgR4sN
ca9vNWxztzpVbEbI6E1WJvB/HdentYZvCjYbHuGrmq2602uYPvWRct8HuY14C5SL
evWTbW45O4GZaYfP5Zq66hbmez4/fJp8ho+0qGJS86XzMl+Pv6m3CapJ8PoYLoMu
f9hj7NFQSTmDx+KOa5GM3lFFMRe8GcXJkm3D3FnhdbFP2xYuXnpIbty5Dvl/abYM
XNOm+AnQLq9d5UwcfO0YC3GK080+mx3/7IjjqTKhFuqnJstuN6qx8x9+TsVpxtTc
9i+RWd9mkXZhgUBcUS2QRG+Gc3Pu6pv50EhyB3TXSyo65SBqr8XalQ9FwSg20PkP
MYXhuEXEKpapaRlGCxzg94UT6ZgoQcqZGPe7SKfHHS+9+iZK6P1SRtKapSKT+W+C
HtSnydnXjv4ajKD3RPjCmdmvILwdSUGK7q4UOrDVjhQ=
-----END CERTIFICATE-----
