Certificate:
    Data:
        Version: 3 (0x2)
        Serial Number:
            fe:08:4f:22:ff:c7:4d:f3:9d:6a:25:72:c5:e3:a7:c5
        Signature Algorithm: sha256WithRSAEncryption
        Issuer: CN=vpn.jenkins.io
        Validity
            Not Before: Nov 15 14:39:01 2019 GMT
            Not After : Oct 30 14:39:01 2022 GMT
        Subject: CN=oleg_nenashev
        Subject Public Key Info:
            Public Key Algorithm: rsaEncryption
                RSA Public-Key: (4096 bit)
                Modulus:
                    00:af:87:a3:bc:13:4a:9f:96:f8:62:e3:c6:14:be:
                    13:87:e5:21:e7:8f:f2:5d:ae:8e:0d:2f:72:e8:dd:
                    46:21:f6:63:6a:52:9c:61:76:e4:03:19:92:3d:56:
                    96:65:8c:a0:c2:0f:8c:5d:22:f3:e6:5e:e7:77:65:
                    ea:75:de:1f:2a:e4:69:8f:67:44:2a:d0:3a:83:77:
                    54:25:41:c0:80:26:4b:75:a0:c0:45:85:45:42:b9:
                    f3:78:52:5c:b7:65:8e:a9:e2:99:83:ff:4b:59:36:
                    47:03:31:6e:ef:64:58:83:46:dd:1c:0e:10:4f:04:
                    46:8f:5e:2b:b0:d2:20:49:a9:c1:2e:82:29:47:d8:
                    4b:a2:04:ab:fe:d5:84:40:04:43:4f:61:44:93:c3:
                    d1:4e:01:b2:10:00:d9:61:e4:19:ed:72:c9:b3:d9:
                    6b:e1:f8:a2:43:6e:f1:fb:ab:25:20:b4:ec:7e:98:
                    7c:43:a8:02:a9:60:c6:61:d0:3a:3b:55:cc:2f:ff:
                    c6:6e:49:cc:ae:8a:11:0f:ca:8b:3f:e0:5f:1d:6f:
                    0b:54:47:1e:47:c8:f4:09:bc:c3:bd:db:a4:82:84:
                    c8:08:3e:4d:91:a1:a8:bf:c9:f5:94:85:ee:76:50:
                    22:08:21:b7:47:da:95:84:31:17:8c:d9:5e:0c:bd:
                    15:39:41:88:f1:51:f1:95:38:3e:0f:a2:03:27:65:
                    08:d5:2f:12:5e:34:fc:8d:98:77:e2:44:ed:c7:ac:
                    24:26:db:08:64:08:61:60:cf:8b:95:91:dd:c9:33:
                    aa:4b:0f:26:85:bd:35:f1:2c:2b:7e:d1:f3:ef:c3:
                    f3:8e:2e:8f:a3:06:c7:ae:29:c7:44:84:03:2a:b8:
                    29:87:ca:50:e6:e0:6d:d9:f3:e8:70:06:b6:3f:f7:
                    bd:56:bc:5e:d3:26:6f:e2:81:39:54:fa:10:33:db:
                    80:20:d5:42:43:dd:ba:41:05:2c:03:0f:27:14:9b:
                    dc:0b:2b:6d:7b:75:bb:d8:2a:42:eb:04:54:fa:b6:
                    68:b0:39:2a:21:ef:dc:d4:79:f3:23:13:0a:aa:01:
                    1c:cb:bf:6c:9a:d4:74:0b:27:45:d5:d5:77:41:c1:
                    8f:80:7d:36:11:f8:30:9b:97:12:27:60:b3:32:d4:
                    38:54:9c:40:7d:bf:04:7e:31:27:fd:90:d0:5b:94:
                    fd:01:9d:dd:22:5f:67:f0:df:53:92:ad:c6:9f:34:
                    14:18:4e:bd:76:63:c2:1c:fe:1f:38:30:dc:d3:35:
                    dd:b3:a2:e9:ac:40:90:e3:11:3d:c1:0b:5c:4f:b5:
                    0e:66:09:82:d0:39:94:35:ba:49:7f:86:96:42:60:
                    dc:6a:23
                Exponent: 65537 (0x10001)
        X509v3 extensions:
            X509v3 Basic Constraints: 
                CA:FALSE
            X509v3 Subject Key Identifier: 
                DF:67:55:39:6A:89:84:4E:DF:63:09:7F:68:16:69:10:3B:E7:FE:7B
            X509v3 Authority Key Identifier: 
                keyid:87:A7:C5:75:37:0B:14:6C:BF:46:04:8C:2A:52:E9:5D:DA:51:DC:E6
                DirName:/CN=vpn.jenkins.io
                serial:08:01:AA:6D:1B:31:40:4F:7B:9C:75:54:54:78:B5:36:65:3B:7C:B3

            X509v3 Extended Key Usage: 
                TLS Web Client Authentication
            X509v3 Key Usage: 
                Digital Signature
    Signature Algorithm: sha256WithRSAEncryption
         55:71:fd:a2:35:7f:92:3b:b1:ce:af:29:c5:4e:5f:cb:c0:36:
         d9:4c:0d:9f:b9:57:79:36:21:90:3a:1b:38:2c:f8:95:45:13:
         74:eb:2d:9d:29:58:b6:1a:b8:8e:49:16:39:33:fe:cf:67:4c:
         a1:92:33:61:bc:cb:0f:21:fc:1a:73:1f:76:c6:5b:11:7c:f1:
         7e:e1:bf:e8:49:af:7b:bf:fd:c3:2e:4b:3a:5d:90:a4:1b:d0:
         dd:12:41:8e:11:3a:69:fa:46:0b:ba:ff:7c:9f:3b:89:bf:65:
         86:e2:8c:d9:15:c8:b5:ec:60:be:88:5c:0f:6a:eb:57:df:71:
         75:90:d2:32:81:3c:4c:0f:16:5e:d8:3c:ed:ba:40:99:7c:2a:
         51:df:63:9c:a4:8d:6f:91:05:f2:00:24:16:ad:d1:9f:76:87:
         f5:38:51:80:62:0b:55:4c:f2:05:b3:e1:b7:67:a4:21:ae:e5:
         f8:68:69:b2:82:02:98:62:31:59:6e:79:eb:c8:8d:60:99:7c:
         fb:68:7d:75:07:7c:fb:e6:a4:f7:6e:a7:60:6b:c1:8b:ef:4c:
         1c:e6:af:6d:8f:6a:37:f2:0f:1b:bf:ae:95:e9:2a:d5:f4:fb:
         a6:f9:bc:31:3d:f0:fc:1b:10:3b:6d:9c:e9:5d:fb:9c:d8:81:
         95:05:90:4b:82:f0:cd:28:c2:ad:04:fa:38:a9:a4:21:da:9d:
         57:3d:64:9e:36:0f:6f:41:52:26:1d:37:e1:31:9d:f5:f7:8c:
         d1:84:0a:60:a3:a8:b8:5d:8f:9f:0d:3d:13:64:3b:e2:7a:60:
         9f:ed:31:d6:89:5e:c5:4b:b6:f5:3e:50:9c:f3:74:41:13:47:
         6f:84:08:96:50:36:76:21:ad:67:ba:d8:af:8d:2f:c4:28:94:
         21:99:24:67:16:d2:fc:86:8b:46:0f:9e:6f:68:9d:06:bb:7f:
         6b:90:bc:6c:ac:bb:9a:5b:86:a4:7b:86:73:54:34:9b:07:d1:
         a4:4c:ad:6f:23:ac:65:74:ea:99:74:9b:a7:5c:08:9d:5f:89:
         ed:7a:59:62:f3:d7:2e:d6:5b:43:89:69:70:45:79:31:4e:39:
         17:07:59:b3:94:8e:02:05:74:9c:b8:ed:61:7e:e7:69:15:cd:
         fd:9d:23:68:46:d6:89:97:e9:01:a3:5f:85:9b:43:1d:9c:75:
         07:b0:30:78:f4:81:99:30:92:34:4f:b2:69:88:b9:8b:15:95:
         06:81:fe:0a:45:92:0c:c1:9a:c9:69:0b:3a:bc:be:9b:26:ae:
         86:4e:6c:55:4f:43:0c:a1:6d:da:6e:da:4e:e9:b5:55:fd:9f:
         29:ee:72:2c:6a:00:81:a6
-----BEGIN CERTIFICATE-----
MIIFYjCCA0qgAwIBAgIRAP4ITyL/x03znWolcsXjp8UwDQYJKoZIhvcNAQELBQAw
GTEXMBUGA1UEAwwOdnBuLmplbmtpbnMuaW8wHhcNMTkxMTE1MTQzOTAxWhcNMjIx
MDMwMTQzOTAxWjAYMRYwFAYDVQQDDA1vbGVnX25lbmFzaGV2MIICIjANBgkqhkiG
9w0BAQEFAAOCAg8AMIICCgKCAgEAr4ejvBNKn5b4YuPGFL4Th+Uh54/yXa6ODS9y
6N1GIfZjalKcYXbkAxmSPVaWZYygwg+MXSLz5l7nd2Xqdd4fKuRpj2dEKtA6g3dU
JUHAgCZLdaDARYVFQrnzeFJct2WOqeKZg/9LWTZHAzFu72RYg0bdHA4QTwRGj14r
sNIgSanBLoIpR9hLogSr/tWEQARDT2FEk8PRTgGyEADZYeQZ7XLJs9lr4fiiQ27x
+6slILTsfph8Q6gCqWDGYdA6O1XML//GbknMrooRD8qLP+BfHW8LVEceR8j0CbzD
vdukgoTICD5NkaGov8n1lIXudlAiCCG3R9qVhDEXjNleDL0VOUGI8VHxlTg+D6ID
J2UI1S8SXjT8jZh34kTtx6wkJtsIZAhhYM+LlZHdyTOqSw8mhb018SwrftHz78Pz
ji6PowbHrinHRIQDKrgph8pQ5uBt2fPocAa2P/e9Vrxe0yZv4oE5VPoQM9uAINVC
Q926QQUsAw8nFJvcCytte3W72CpC6wRU+rZosDkqIe/c1HnzIxMKqgEcy79smtR0
CydF1dV3QcGPgH02Efgwm5cSJ2CzMtQ4VJxAfb8EfjEn/ZDQW5T9AZ3dIl9n8N9T
kq3GnzQUGE69dmPCHP4fODDc0zXds6LprECQ4xE9wQtcT7UOZgmC0DmUNbpJf4aW
QmDcaiMCAwEAAaOBpTCBojAJBgNVHRMEAjAAMB0GA1UdDgQWBBTfZ1U5aomETt9j
CX9oFmkQO+f+ezBUBgNVHSMETTBLgBSHp8V1NwsUbL9GBIwqUuld2lHc5qEdpBsw
GTEXMBUGA1UEAwwOdnBuLmplbmtpbnMuaW+CFAgBqm0bMUBPe5x1VFR4tTZlO3yz
MBMGA1UdJQQMMAoGCCsGAQUFBwMCMAsGA1UdDwQEAwIHgDANBgkqhkiG9w0BAQsF
AAOCAgEAVXH9ojV/kjuxzq8pxU5fy8A22UwNn7lXeTYhkDobOCz4lUUTdOstnSlY
thq4jkkWOTP+z2dMoZIzYbzLDyH8GnMfdsZbEXzxfuG/6Emve7/9wy5LOl2QpBvQ
3RJBjhE6afpGC7r/fJ87ib9lhuKM2RXItexgvohcD2rrV99xdZDSMoE8TA8WXtg8
7bpAmXwqUd9jnKSNb5EF8gAkFq3Rn3aH9ThRgGILVUzyBbPht2ekIa7l+GhpsoIC
mGIxWW5568iNYJl8+2h9dQd8++ak926nYGvBi+9MHOavbY9qN/IPG7+ulekq1fT7
pvm8MT3w/BsQO22c6V37nNiBlQWQS4LwzSjCrQT6OKmkIdqdVz1knjYPb0FSJh03
4TGd9feM0YQKYKOouF2Pnw09E2Q74npgn+0x1olexUu29T5QnPN0QRNHb4QIllA2
diGtZ7rYr40vxCiUIZkkZxbS/IaLRg+eb2idBrt/a5C8bKy7mluGpHuGc1Q0mwfR
pEytbyOsZXTqmXSbp1wInV+J7XpZYvPXLtZbQ4lpcEV5MU45FwdZs5SOAgV0nLjt
YX7naRXN/Z0jaEbWiZfpAaNfhZtDHZx1B7AwePSBmTCSNE+yaYi5ixWVBoH+CkWS
DMGayWkLOry+myauhk5sVU9DDKFt2m7aTum1Vf2fKe5yLGoAgaY=
-----END CERTIFICATE-----
