Certificate:
    Data:
        Version: 3 (0x2)
        Serial Number:
            2f:29:74:c1:27:55:61:a0:c2:87:09:91:49:f1:93:a2
        Signature Algorithm: sha256WithRSAEncryption
        Issuer: CN=vpn.jenkins.io
        Validity
            Not Before: Mar 14 12:54:59 2019 GMT
            Not After : Feb 26 12:54:59 2022 GMT
        Subject: CN=vpn.jenkins.io
        Subject Public Key Info:
            Public Key Algorithm: rsaEncryption
                RSA Public-Key: (4096 bit)
                Modulus:
                    00:ca:55:a6:3b:3e:a2:8c:85:dd:0b:aa:f5:fb:11:
                    b4:43:75:4a:e0:62:d5:da:ec:d4:f5:7b:38:e4:a2:
                    fb:e8:57:6d:53:1a:cb:8a:4d:da:23:cb:64:3e:1f:
                    d2:9f:52:ce:b8:a8:42:02:6f:31:d0:af:88:72:15:
                    9b:4f:ad:42:91:d7:0c:d8:d5:1f:2a:26:c6:62:a1:
                    c4:1f:66:9c:ef:6e:13:03:58:9a:75:23:b7:b3:df:
                    32:ff:eb:19:a2:cf:f7:86:4b:9d:f4:c5:bc:c6:1c:
                    2b:18:99:fc:bf:9d:1d:4f:0d:58:f4:09:21:fe:01:
                    13:00:d6:b9:0c:f5:18:e3:5b:3f:30:8f:d4:d0:fe:
                    9f:df:0b:ab:f1:29:18:3f:63:15:c2:53:aa:87:80:
                    a9:b5:c7:7e:c9:6f:f8:7b:ad:e8:a8:da:41:b8:00:
                    e7:7c:d5:6a:0e:45:d0:6b:a1:6e:b8:50:97:f4:c6:
                    fb:2d:57:bd:6c:04:15:75:c2:04:e1:c5:c7:a5:91:
                    9e:2f:0b:f5:10:0b:a2:7a:70:f8:3c:44:35:d5:0b:
                    19:54:b7:32:0a:db:e5:b6:97:0f:d0:09:4a:b3:05:
                    50:99:7b:72:cd:1b:b0:f9:50:b1:5c:50:99:cf:0b:
                    bc:02:91:cf:f8:64:b3:fa:44:3b:9d:50:b1:ec:cb:
                    b7:9a:c9:4d:f9:8e:19:3d:57:27:ee:02:95:ab:ee:
                    ff:aa:93:0f:87:07:da:a4:d0:b6:b6:d0:5c:b6:c3:
                    83:80:0c:e1:73:53:fc:6a:ba:42:27:39:f0:ab:95:
                    5e:53:28:95:5c:fb:23:ea:dc:39:5d:cd:b2:45:d7:
                    1b:81:23:24:a6:25:40:86:ed:85:97:a8:d8:39:38:
                    c3:b1:54:d1:71:d0:8e:b9:c5:e6:3f:24:e9:de:72:
                    5f:ab:ce:e3:50:1e:c8:45:50:1d:12:b5:bc:59:8e:
                    e4:9d:3b:57:f4:a5:1c:b5:63:4e:a8:c9:fb:13:8b:
                    7d:22:82:fa:51:ec:9d:8e:f3:e5:37:92:4f:e3:2e:
                    7f:ad:33:6e:64:77:93:06:af:12:08:0c:35:c0:af:
                    fb:2f:90:7c:18:ef:36:94:70:a7:8b:7f:25:ef:26:
                    99:fe:6c:0f:2a:32:a5:58:60:ba:a9:25:73:d5:d0:
                    52:4f:0b:9b:22:25:2c:93:0e:cc:d5:e9:44:90:c7:
                    d7:62:cd:34:38:5f:b7:8b:35:e2:2a:b0:3d:da:be:
                    c8:61:2c:6e:5e:04:f4:0a:27:47:e6:84:cf:22:ea:
                    15:22:2e:36:eb:63:de:cd:e2:a2:7f:bc:44:bf:b5:
                    33:5e:dd:5c:9c:ad:e9:6d:2d:5a:49:73:e2:3c:30:
                    7c:42:2d
                Exponent: 65537 (0x10001)
        X509v3 extensions:
            X509v3 Basic Constraints: 
                CA:FALSE
            X509v3 Subject Key Identifier: 
                A1:62:65:99:2E:8E:E9:A4:0E:57:B9:E1:F5:72:E1:A2:98:8D:C4:A5
            X509v3 Authority Key Identifier: 
                keyid:87:A7:C5:75:37:0B:14:6C:BF:46:04:8C:2A:52:E9:5D:DA:51:DC:E6
                DirName:/CN=vpn.jenkins.io
                serial:08:01:AA:6D:1B:31:40:4F:7B:9C:75:54:54:78:B5:36:65:3B:7C:B3

            X509v3 Extended Key Usage: 
                TLS Web Client Authentication
            X509v3 Key Usage: 
                Digital Signature
    Signature Algorithm: sha256WithRSAEncryption
         1a:3d:de:71:4c:dc:39:c3:c1:f1:07:6c:d4:41:55:bf:2f:25:
         97:c7:92:80:b4:8d:f1:91:e8:bb:ef:9e:6f:ae:19:58:5c:c2:
         3c:da:80:a7:fd:c0:62:9e:b9:f5:2d:fc:11:6a:52:7f:66:77:
         2d:94:37:1b:d5:a5:67:df:33:53:f0:4d:d7:8a:c1:bc:0e:80:
         aa:b3:f9:c6:11:c1:14:84:cd:a4:83:bf:20:ee:21:f0:a7:97:
         e3:7d:63:25:7a:c5:21:91:22:ca:b1:17:c3:c6:c4:03:8a:99:
         ae:48:70:e5:46:8c:73:30:80:b7:d5:e2:ab:d4:13:4e:96:19:
         e4:e6:7e:b9:6c:22:4f:79:62:94:79:2b:79:ac:df:f5:93:05:
         4f:ac:62:ba:6e:82:14:da:d2:0f:a0:2a:02:bf:a9:9d:13:eb:
         cd:4b:05:85:d9:f6:85:49:8a:d1:3e:ea:9d:9d:ad:9f:15:b2:
         9c:d5:2b:15:38:cc:1e:d0:2f:79:94:15:4c:5c:65:6a:c4:1d:
         75:af:a1:cf:af:6c:cb:e2:e7:9b:54:18:22:8d:09:4e:eb:06:
         67:50:f9:11:b3:db:f5:c2:36:2a:58:ce:e0:68:8e:34:97:86:
         c5:5f:de:0d:19:cd:db:ce:e7:39:53:cd:68:ce:9e:0f:d3:5f:
         0d:5f:b6:48:77:49:28:11:8a:a9:ba:48:b8:51:1e:c6:a9:9b:
         1e:10:46:27:17:03:eb:a2:23:7b:e4:79:7b:bc:7f:1d:8b:03:
         c9:bc:ca:77:f4:a0:df:a3:91:46:47:2e:98:21:b1:5e:3e:db:
         05:01:2f:75:f8:12:29:bb:99:5e:f1:c4:6b:f3:cb:64:e6:7c:
         7f:a0:69:26:0a:68:07:12:a1:85:2c:dc:16:0d:66:99:cc:d9:
         93:d0:b5:aa:80:be:35:8b:9c:9e:50:8f:9e:46:10:9f:1a:2b:
         ba:09:0e:72:9b:51:62:f6:28:35:f4:b8:6a:66:c9:14:29:1e:
         c7:35:9a:d9:be:1c:d1:01:8f:a8:d7:04:9a:8b:ca:f1:2b:5c:
         2f:62:00:35:fb:e1:09:ba:ce:96:36:e0:24:9f:8c:6f:e7:dd:
         9a:52:38:27:f8:08:cb:e4:be:58:9c:a6:9d:28:ab:2e:eb:78:
         b8:75:60:ab:8e:60:7d:a3:66:ec:55:6b:3f:49:6f:75:f8:92:
         9f:6d:8f:c8:56:86:58:26:78:d2:47:56:3b:f3:51:c9:c1:33:
         aa:58:3b:e6:c2:68:f1:72:67:21:5b:a4:47:e2:da:2d:3d:d8:
         5b:28:a3:91:4d:5f:2f:73:07:37:3f:b6:fb:fc:bd:96:55:8e:
         f0:b9:6a:42:a2:29:17:93
-----BEGIN CERTIFICATE-----
MIIFYjCCA0qgAwIBAgIQLyl0wSdVYaDChwmRSfGTojANBgkqhkiG9w0BAQsFADAZ
MRcwFQYDVQQDDA52cG4uamVua2lucy5pbzAeFw0xOTAzMTQxMjU0NTlaFw0yMjAy
MjYxMjU0NTlaMBkxFzAVBgNVBAMMDnZwbi5qZW5raW5zLmlvMIICIjANBgkqhkiG
9w0BAQEFAAOCAg8AMIICCgKCAgEAylWmOz6ijIXdC6r1+xG0Q3VK4GLV2uzU9Xs4
5KL76FdtUxrLik3aI8tkPh/Sn1LOuKhCAm8x0K+IchWbT61CkdcM2NUfKibGYqHE
H2ac724TA1iadSO3s98y/+sZos/3hkud9MW8xhwrGJn8v50dTw1Y9Akh/gETANa5
DPUY41s/MI/U0P6f3wur8SkYP2MVwlOqh4Cptcd+yW/4e63oqNpBuADnfNVqDkXQ
a6FuuFCX9Mb7LVe9bAQVdcIE4cXHpZGeLwv1EAuienD4PEQ11QsZVLcyCtvltpcP
0AlKswVQmXtyzRuw+VCxXFCZzwu8ApHP+GSz+kQ7nVCx7Mu3mslN+Y4ZPVcn7gKV
q+7/qpMPhwfapNC2ttBctsODgAzhc1P8arpCJznwq5VeUyiVXPsj6tw5Xc2yRdcb
gSMkpiVAhu2Fl6jYOTjDsVTRcdCOucXmPyTp3nJfq87jUB7IRVAdErW8WY7knTtX
9KUctWNOqMn7E4t9IoL6UeydjvPlN5JP4y5/rTNuZHeTBq8SCAw1wK/7L5B8GO82
lHCni38l7yaZ/mwPKjKlWGC6qSVz1dBSTwubIiUskw7M1elEkMfXYs00OF+3izXi
KrA92r7IYSxuXgT0CidH5oTPIuoVIi4262PezeKif7xEv7UzXt1cnK3pbS1aSXPi
PDB8Qi0CAwEAAaOBpTCBojAJBgNVHRMEAjAAMB0GA1UdDgQWBBShYmWZLo7ppA5X
ueH1cuGimI3EpTBUBgNVHSMETTBLgBSHp8V1NwsUbL9GBIwqUuld2lHc5qEdpBsw
GTEXMBUGA1UEAwwOdnBuLmplbmtpbnMuaW+CFAgBqm0bMUBPe5x1VFR4tTZlO3yz
MBMGA1UdJQQMMAoGCCsGAQUFBwMCMAsGA1UdDwQEAwIHgDANBgkqhkiG9w0BAQsF
AAOCAgEAGj3ecUzcOcPB8Qds1EFVvy8ll8eSgLSN8ZHou++eb64ZWFzCPNqAp/3A
Yp659S38EWpSf2Z3LZQ3G9WlZ98zU/BN14rBvA6AqrP5xhHBFITNpIO/IO4h8KeX
431jJXrFIZEiyrEXw8bEA4qZrkhw5UaMczCAt9Xiq9QTTpYZ5OZ+uWwiT3lilHkr
eazf9ZMFT6xium6CFNrSD6AqAr+pnRPrzUsFhdn2hUmK0T7qnZ2tnxWynNUrFTjM
HtAveZQVTFxlasQdda+hz69sy+Lnm1QYIo0JTusGZ1D5EbPb9cI2KljO4GiONJeG
xV/eDRnN287nOVPNaM6eD9NfDV+2SHdJKBGKqbpIuFEexqmbHhBGJxcD66Ije+R5
e7x/HYsDybzKd/Sg36ORRkcumCGxXj7bBQEvdfgSKbuZXvHEa/PLZOZ8f6BpJgpo
BxKhhSzcFg1mmczZk9C1qoC+NYucnlCPnkYQnxorugkOcptRYvYoNfS4ambJFCke
xzWa2b4c0QGPqNcEmovK8StcL2IANfvhCbrOljbgJJ+Mb+fdmlI4J/gIy+S+WJym
nSirLut4uHVgq45gfaNm7FVrP0lvdfiSn22PyFaGWCZ40kdWO/NRycEzqlg75sJo
8XJnIVukR+LaLT3YWyijkU1fL3MHNz+2+/y9llWO8LlqQqIpF5M=
-----END CERTIFICATE-----
