Certificate:
    Data:
        Version: 3 (0x2)
        Serial Number:
            76:26:11:d8:bc:15:50:18:ca:84:86:9b:65:a0:34:68
        Signature Algorithm: sha256WithRSAEncryption
        Issuer: CN=vpn.jenkins.io
        Validity
            Not Before: Nov 15 09:27:55 2019 GMT
            Not After : Oct 30 09:27:55 2022 GMT
        Subject: CN=olivergondza
        Subject Public Key Info:
            Public Key Algorithm: rsaEncryption
                RSA Public-Key: (4096 bit)
                Modulus:
                    00:bf:66:fc:af:40:99:78:1a:26:73:4d:3d:83:0d:
                    61:c8:f6:89:50:51:38:f3:a9:22:a0:2c:7d:82:d9:
                    43:8d:b7:e0:fc:48:48:33:2b:32:cc:98:c2:d9:6a:
                    a9:1c:01:bd:b9:82:19:f7:91:48:00:91:98:28:75:
                    97:f1:97:a0:55:49:27:bc:a2:d6:ae:61:67:d4:08:
                    d9:9b:e3:95:24:86:5c:fd:a9:89:f5:54:4d:c4:04:
                    81:d0:be:67:89:32:9f:6b:65:a8:61:db:c3:4c:37:
                    9b:d2:c0:eb:b8:af:94:eb:b3:3b:bc:f0:38:c5:9d:
                    93:e4:4a:07:50:69:e1:27:ba:48:71:99:37:6d:2d:
                    1c:41:da:64:5f:44:51:8c:a2:91:39:8e:79:c0:8a:
                    c0:1b:ac:c5:2e:57:91:16:22:c1:35:fe:37:04:92:
                    23:c4:7b:e2:ff:6c:39:04:14:c0:09:b7:13:d6:23:
                    2b:c5:a0:dc:2c:36:c8:f8:47:e3:75:93:c2:b4:44:
                    40:03:fa:1b:88:9a:c0:c5:27:29:68:97:bd:09:d8:
                    30:b2:b3:8b:4d:ba:03:83:45:9e:35:fe:b2:08:63:
                    34:3a:89:59:5c:ce:55:93:4c:fd:f8:9a:9e:73:5d:
                    e5:bc:4c:13:ae:95:88:bd:05:71:33:98:3b:30:58:
                    c8:ec:4a:e3:1c:27:2c:61:f8:a2:57:2f:f1:39:63:
                    e6:9c:8b:3b:fc:18:21:e2:13:da:e6:5d:db:97:25:
                    42:c4:60:49:a3:aa:16:4e:d6:eb:ae:c5:75:e1:eb:
                    6d:7c:b6:ba:e0:21:49:7e:df:e5:42:c5:52:11:1d:
                    fa:43:64:21:db:b3:da:d6:f2:50:fe:d7:92:bc:cd:
                    61:a7:66:6e:56:e0:9f:0c:6e:0a:6f:5d:16:53:03:
                    e9:15:77:a1:bb:bf:ca:44:61:78:22:6a:1b:36:2b:
                    45:36:95:18:1c:d4:f2:a4:47:50:0a:7b:ff:6b:19:
                    4c:4c:31:8d:97:e4:4b:6d:f0:e1:35:76:00:4c:c6:
                    36:a9:d9:c9:67:d5:3d:f3:3a:49:77:e6:e7:a0:98:
                    19:e4:65:6b:da:22:7a:3d:12:fc:9e:07:af:f7:dd:
                    46:2d:03:73:02:9f:93:0d:6a:3e:bb:c4:55:f6:a8:
                    f0:33:27:df:cc:4d:0a:a8:5c:49:05:00:a0:8d:cc:
                    4b:f1:4a:22:c7:70:4d:12:f2:70:22:be:7e:1d:ab:
                    b1:c6:81:63:1a:0e:55:d6:37:4c:8c:ed:94:b4:1f:
                    d4:78:c9:df:53:51:44:5a:da:3a:1e:71:60:a6:59:
                    29:d2:84:99:4f:be:2d:2d:a0:cf:16:92:27:73:9b:
                    70:d0:4b
                Exponent: 65537 (0x10001)
        X509v3 extensions:
            X509v3 Basic Constraints: 
                CA:FALSE
            X509v3 Subject Key Identifier: 
                E0:62:62:52:28:86:C4:E4:42:79:40:B6:C8:81:9C:B4:5A:70:EB:05
            X509v3 Authority Key Identifier: 
                keyid:87:A7:C5:75:37:0B:14:6C:BF:46:04:8C:2A:52:E9:5D:DA:51:DC:E6
                DirName:/CN=vpn.jenkins.io
                serial:08:01:AA:6D:1B:31:40:4F:7B:9C:75:54:54:78:B5:36:65:3B:7C:B3

            X509v3 Extended Key Usage: 
                TLS Web Client Authentication
            X509v3 Key Usage: 
                Digital Signature
    Signature Algorithm: sha256WithRSAEncryption
         20:72:5a:94:16:f7:e3:b3:19:30:d8:76:60:50:5f:c0:0f:c3:
         50:b6:ae:74:22:78:6b:a6:4c:e0:2f:c8:3e:20:82:af:94:c9:
         4d:3a:63:bd:1a:01:20:d1:b2:ce:19:84:66:1d:24:91:75:5a:
         f4:fa:37:f1:f3:1b:da:46:4c:dc:f2:ce:e8:40:c4:05:e2:9e:
         e9:55:1c:bc:4f:e5:c0:a9:33:37:ff:63:6a:1c:ea:80:1b:ad:
         26:cd:70:43:bb:7a:6d:30:c3:33:d6:fc:21:0d:89:0c:74:58:
         7e:3a:d5:0a:05:41:e4:74:f3:76:f0:50:0d:83:73:0e:7e:62:
         a7:14:3b:d9:3b:ea:59:4d:fe:bd:64:0f:7f:59:19:d7:fe:d1:
         d9:40:7c:f9:2d:d9:08:49:18:66:95:2d:ca:66:0a:0b:67:1a:
         13:ea:76:f3:7f:44:58:f5:db:20:03:e8:8f:98:34:4c:76:23:
         08:66:da:58:6e:ea:3f:11:ca:6f:ac:0a:e5:1e:e1:ed:9f:40:
         a4:02:df:2e:05:f7:d8:4d:8b:c3:a6:bf:44:23:3b:f0:fd:ef:
         e2:45:64:cd:80:00:4d:8e:b5:b5:d8:94:55:2d:68:13:a0:4a:
         91:f0:5b:7f:17:fc:69:5f:db:3b:cf:e2:7a:12:6b:d6:c1:63:
         bc:17:27:27:76:99:26:26:19:8b:52:51:f8:3c:b9:00:3c:2e:
         3e:4e:88:3e:5f:6f:5e:8c:49:fa:df:c7:cb:d1:6b:fb:b1:1c:
         be:b5:5c:b1:7d:e0:f1:89:93:fe:ef:b3:9b:12:2a:29:09:bb:
         28:80:ef:48:dd:29:38:d4:ca:43:13:46:c6:28:62:77:1a:ef:
         9d:c1:49:23:23:75:4c:64:71:0f:39:e5:48:b4:8e:47:05:d3:
         5a:f3:1a:03:0a:ed:5f:37:cf:ed:e1:cb:5a:7c:d1:7d:72:72:
         ce:94:a4:35:d7:75:03:42:02:6f:df:77:e1:3f:e9:a2:33:26:
         d6:2a:ca:94:26:0a:24:84:9e:ed:9d:2a:ce:d1:60:76:5b:40:
         ab:fc:27:b5:ae:39:a5:b3:9b:db:76:a4:88:da:4a:cf:10:f0:
         20:9d:a4:81:ce:66:d5:2e:6d:18:f8:f0:b3:69:f7:db:bd:14:
         97:7d:26:be:0b:63:da:2f:ee:3a:89:97:ae:8f:e5:1b:66:35:
         21:91:7f:86:01:e5:f0:67:ac:50:19:9e:a8:a6:4b:c6:c3:d4:
         7d:9d:67:5a:01:17:ba:69:d3:d9:3f:0c:dc:17:d6:60:e1:3f:
         be:fb:00:fa:8d:cc:19:d1:f4:3f:2e:1a:a8:04:15:34:f0:fd:
         e3:6c:55:a3:92:db:81:6d
-----BEGIN CERTIFICATE-----
MIIFYDCCA0igAwIBAgIQdiYR2LwVUBjKhIabZaA0aDANBgkqhkiG9w0BAQsFADAZ
MRcwFQYDVQQDDA52cG4uamVua2lucy5pbzAeFw0xOTExMTUwOTI3NTVaFw0yMjEw
MzAwOTI3NTVaMBcxFTATBgNVBAMMDG9saXZlcmdvbmR6YTCCAiIwDQYJKoZIhvcN
AQEBBQADggIPADCCAgoCggIBAL9m/K9AmXgaJnNNPYMNYcj2iVBROPOpIqAsfYLZ
Q4234PxISDMrMsyYwtlqqRwBvbmCGfeRSACRmCh1l/GXoFVJJ7yi1q5hZ9QI2Zvj
lSSGXP2pifVUTcQEgdC+Z4kyn2tlqGHbw0w3m9LA67ivlOuzO7zwOMWdk+RKB1Bp
4Se6SHGZN20tHEHaZF9EUYyikTmOecCKwBusxS5XkRYiwTX+NwSSI8R74v9sOQQU
wAm3E9YjK8Wg3Cw2yPhH43WTwrREQAP6G4iawMUnKWiXvQnYMLKzi026A4NFnjX+
sghjNDqJWVzOVZNM/fiannNd5bxME66ViL0FcTOYOzBYyOxK4xwnLGH4olcv8Tlj
5pyLO/wYIeIT2uZd25clQsRgSaOqFk7W667FdeHrbXy2uuAhSX7f5ULFUhEd+kNk
Iduz2tbyUP7XkrzNYadmblbgnwxuCm9dFlMD6RV3obu/ykRheCJqGzYrRTaVGBzU
8qRHUAp7/2sZTEwxjZfkS23w4TV2AEzGNqnZyWfVPfM6SXfm56CYGeRla9oiej0S
/J4Hr/fdRi0DcwKfkw1qPrvEVfao8DMn38xNCqhcSQUAoI3MS/FKIsdwTRLycCK+
fh2rscaBYxoOVdY3TIztlLQf1HjJ31NRRFraOh5xYKZZKdKEmU++LS2gzxaSJ3Ob
cNBLAgMBAAGjgaUwgaIwCQYDVR0TBAIwADAdBgNVHQ4EFgQU4GJiUiiGxORCeUC2
yIGctFpw6wUwVAYDVR0jBE0wS4AUh6fFdTcLFGy/RgSMKlLpXdpR3OahHaQbMBkx
FzAVBgNVBAMMDnZwbi5qZW5raW5zLmlvghQIAaptGzFAT3ucdVRUeLU2ZTt8szAT
BgNVHSUEDDAKBggrBgEFBQcDAjALBgNVHQ8EBAMCB4AwDQYJKoZIhvcNAQELBQAD
ggIBACByWpQW9+OzGTDYdmBQX8APw1C2rnQieGumTOAvyD4ggq+UyU06Y70aASDR
ss4ZhGYdJJF1WvT6N/HzG9pGTNzyzuhAxAXinulVHLxP5cCpMzf/Y2oc6oAbrSbN
cEO7em0wwzPW/CENiQx0WH461QoFQeR083bwUA2Dcw5+YqcUO9k76llN/r1kD39Z
Gdf+0dlAfPkt2QhJGGaVLcpmCgtnGhPqdvN/RFj12yAD6I+YNEx2Iwhm2lhu6j8R
ym+sCuUe4e2fQKQC3y4F99hNi8Omv0QjO/D97+JFZM2AAE2OtbXYlFUtaBOgSpHw
W38X/Glf2zvP4noSa9bBY7wXJyd2mSYmGYtSUfg8uQA8Lj5OiD5fb16MSfrfx8vR
a/uxHL61XLF94PGJk/7vs5sSKikJuyiA70jdKTjUykMTRsYoYnca753BSSMjdUxk
cQ855Ui0jkcF01rzGgMK7V83z+3hy1p80X1ycs6UpDXXdQNCAm/fd+E/6aIzJtYq
ypQmCiSEnu2dKs7RYHZbQKv8J7WuOaWzm9t2pIjaSs8Q8CCdpIHOZtUubRj48LNp
99u9FJd9Jr4LY9ov7jqJl66P5RtmNSGRf4YB5fBnrFAZnqimS8bD1H2dZ1oBF7pp
09k/DNwX1mDhP777APqNzBnR9D8uGqgEFTTw/eNsVaOS24Ft
-----END CERTIFICATE-----
