Certificate:
    Data:
        Version: 3 (0x2)
        Serial Number:
            80:7b:95:17:19:2a:e8:52:e1:ce:62:5d:ca:1d:0b:86
    Signature Algorithm: sha256WithRSAEncryption
        Issuer: CN=vpn.jenkins.io
        Validity
            Not Before: May 27 12:44:40 2022 GMT
            Not After : May 11 12:44:40 2025 GMT
        Subject: CN=yafenkin
        Subject Public Key Info:
            Public Key Algorithm: rsaEncryption
                Public-Key: (4096 bit)
                Modulus:
                    00:d2:4c:27:90:53:17:ba:3a:ca:b2:30:0b:86:4f:
                    9a:46:a6:0f:05:fa:2d:69:1d:c5:af:90:99:a6:7b:
                    d4:e2:f5:7c:35:0c:77:f4:7d:54:91:67:1b:1d:91:
                    67:c7:2c:b2:66:3c:2e:14:56:75:4b:24:42:dc:82:
                    f4:30:be:a9:87:9c:25:e4:6e:af:3d:97:aa:50:14:
                    a6:75:7f:eb:c9:f1:c0:14:d8:55:1e:9d:df:db:e3:
                    90:41:af:7d:5c:df:8f:83:74:b3:f1:8c:24:ae:d4:
                    aa:40:af:e6:45:8a:4a:25:b3:a6:1b:9f:5b:b8:56:
                    f0:4a:a8:dc:8b:da:ac:4a:7c:2f:d5:c4:c9:e7:6b:
                    2f:02:84:1b:63:46:37:70:fc:4a:6f:c7:15:56:9e:
                    85:69:96:9c:c6:a8:70:34:fd:e5:15:ed:1f:a2:d6:
                    14:b6:6e:19:87:98:9a:ba:fd:47:22:1a:45:62:a6:
                    7a:93:f4:1d:4a:29:a6:67:af:2a:b6:1c:05:3e:ed:
                    cb:85:eb:99:ee:49:64:f8:f5:e7:aa:7c:97:54:68:
                    cc:8d:ec:1e:5e:ce:54:67:a8:09:9f:f0:f2:a8:d6:
                    7e:fc:53:7d:3f:4f:86:41:42:0a:45:99:c9:69:77:
                    93:78:c6:7c:c6:d1:88:a7:23:03:55:17:ce:67:74:
                    86:01:11:52:99:6e:a9:21:39:28:b1:6c:d3:9e:94:
                    c3:95:5d:a1:ab:01:b0:c8:2c:1c:07:a4:16:70:53:
                    91:7f:62:2a:e3:57:fa:a0:39:69:25:e4:78:6e:31:
                    79:b6:49:f8:c9:e8:bb:58:cc:bf:51:a9:8b:13:04:
                    2f:3f:cc:da:95:22:8f:e3:b3:71:bc:b8:e5:83:b9:
                    ab:1c:e3:b4:26:12:89:ac:08:e6:d0:0b:3e:16:70:
                    fe:00:17:0c:ad:47:87:8f:a9:6c:f2:92:66:cb:5b:
                    b9:cf:9c:5f:22:bd:32:42:ed:46:60:cb:4b:18:34:
                    71:11:1a:6b:11:73:59:17:c6:bc:45:24:09:ee:56:
                    24:cb:5a:e1:cb:60:4c:f9:a0:55:cf:52:ea:43:64:
                    b8:71:ab:30:e7:d4:50:2a:84:e4:35:19:c2:8f:0a:
                    b4:91:64:52:d2:b3:2f:1f:12:c9:c1:19:47:1b:2e:
                    f1:f9:a1:12:af:97:f1:04:29:9f:13:81:36:3e:19:
                    1f:97:cf:18:7d:b4:3b:db:89:56:9d:71:b5:42:a8:
                    32:9e:c8:ad:36:22:c6:22:f2:c8:97:65:65:65:e9:
                    76:b1:37:ac:e9:cc:a8:1b:d1:16:4a:da:cd:0f:27:
                    23:69:e2:e6:ef:6d:e5:da:ab:de:49:8a:90:51:05:
                    86:7e:5d
                Exponent: 65537 (0x10001)
        X509v3 extensions:
            X509v3 Basic Constraints: 
                CA:FALSE
            X509v3 Subject Key Identifier: 
                0F:18:B2:B7:C8:D1:7F:AC:A2:76:23:ED:CE:C5:9F:E7:D1:DB:24:CF
            X509v3 Authority Key Identifier: 
                keyid:87:A7:C5:75:37:0B:14:6C:BF:46:04:8C:2A:52:E9:5D:DA:51:DC:E6
                DirName:/CN=vpn.jenkins.io
                serial:08:01:AA:6D:1B:31:40:4F:7B:9C:75:54:54:78:B5:36:65:3B:7C:B3

            X509v3 Extended Key Usage: 
                TLS Web Client Authentication
            X509v3 Key Usage: 
                Digital Signature
    Signature Algorithm: sha256WithRSAEncryption
         44:44:25:3e:3a:3e:96:c3:79:8c:aa:cb:a8:4e:ad:d1:da:c2:
         fa:0e:76:8a:01:34:42:7e:83:0a:29:79:14:b6:12:b5:57:8b:
         95:be:f7:a4:f4:95:bf:69:31:76:c2:40:3e:85:b3:a1:ef:cf:
         7c:37:41:ce:bf:c0:f7:45:8e:89:73:f4:8d:12:84:d2:29:c5:
         cb:86:4a:7f:59:c4:5e:c0:4c:c2:b6:a7:22:34:47:66:be:13:
         3b:a1:2b:aa:2c:e3:3b:08:f3:32:69:77:4a:bb:f0:b5:f6:32:
         a0:c1:24:00:0e:a7:eb:3b:87:d0:27:63:43:9f:3b:e9:1d:bf:
         96:e6:02:e0:c9:c6:1d:87:34:9f:c3:cb:d8:69:9a:8b:2e:58:
         38:ac:6d:12:72:31:1a:b3:7a:04:ee:db:ee:97:fd:d1:d9:7c:
         c6:55:15:02:50:d7:a6:bd:a3:29:f5:34:2f:71:a1:aa:3b:db:
         5f:b8:08:20:ad:fe:fc:05:18:58:30:2d:4d:42:78:59:db:07:
         5a:84:5a:0f:b5:80:e0:1b:b8:3d:f8:8e:19:c7:56:a4:19:81:
         55:33:87:71:aa:d0:4c:a0:8c:b0:d1:a9:31:f4:9d:66:be:f2:
         5a:be:54:c4:a0:73:ed:00:9a:66:39:16:bb:89:a4:2a:0d:ed:
         ed:55:10:01:e0:e1:97:a8:2d:8c:f9:9c:f2:cf:01:49:c7:d8:
         72:01:76:0c:79:30:82:a9:9c:b3:d0:8f:f5:76:ee:cc:5a:78:
         a7:1a:ff:c4:2a:a0:44:5c:a7:1c:3e:2d:4b:e2:0a:58:7f:c5:
         f3:d1:cd:fb:c5:fd:ab:7e:44:e3:2a:14:fa:43:24:a0:aa:0b:
         e5:d0:8a:2f:84:79:53:6e:c7:fe:12:8e:56:c5:92:bb:43:59:
         43:d5:d8:df:29:12:f4:a2:bb:53:6a:f5:94:19:44:2e:a1:d8:
         91:0a:5d:ae:e9:4d:86:56:70:73:28:5b:65:2e:2d:a4:9c:b7:
         15:0b:43:89:b5:ca:c5:be:68:53:6f:e9:12:2a:71:b8:2a:79:
         e9:7e:38:be:ae:d3:ae:5b:5f:e1:04:03:b8:2a:ce:7c:77:d8:
         b9:55:4a:97:93:b3:31:e5:11:91:a6:bd:df:db:27:4a:9b:f6:
         05:96:25:8e:40:27:7e:5f:6b:01:c2:62:fd:3c:76:a2:45:c4:
         fe:08:92:56:4f:e8:6f:c4:63:e9:ee:5c:73:e8:8f:a4:29:fd:
         22:22:cc:5e:e3:e9:dc:bc:ac:64:ce:ff:12:4a:05:22:0c:6f:
         c6:3f:ce:1b:29:b5:e9:31:56:51:ef:8b:11:3c:47:55:49:75:
         f5:ba:51:96:85:ec:62:33
-----BEGIN CERTIFICATE-----
MIIFXTCCA0WgAwIBAgIRAIB7lRcZKuhS4c5iXcodC4YwDQYJKoZIhvcNAQELBQAw
GTEXMBUGA1UEAwwOdnBuLmplbmtpbnMuaW8wHhcNMjIwNTI3MTI0NDQwWhcNMjUw
NTExMTI0NDQwWjATMREwDwYDVQQDDAh5YWZlbmtpbjCCAiIwDQYJKoZIhvcNAQEB
BQADggIPADCCAgoCggIBANJMJ5BTF7o6yrIwC4ZPmkamDwX6LWkdxa+QmaZ71OL1
fDUMd/R9VJFnGx2RZ8cssmY8LhRWdUskQtyC9DC+qYecJeRurz2XqlAUpnV/68nx
wBTYVR6d39vjkEGvfVzfj4N0s/GMJK7UqkCv5kWKSiWzphufW7hW8Eqo3IvarEp8
L9XEyedrLwKEG2NGN3D8Sm/HFVaehWmWnMaocDT95RXtH6LWFLZuGYeYmrr9RyIa
RWKmepP0HUoppmevKrYcBT7ty4Xrme5JZPj156p8l1RozI3sHl7OVGeoCZ/w8qjW
fvxTfT9PhkFCCkWZyWl3k3jGfMbRiKcjA1UXzmd0hgERUpluqSE5KLFs056Uw5Vd
oasBsMgsHAekFnBTkX9iKuNX+qA5aSXkeG4xebZJ+Mnou1jMv1GpixMELz/M2pUi
j+Ozcby45YO5qxzjtCYSiawI5tALPhZw/gAXDK1Hh4+pbPKSZstbuc+cXyK9MkLt
RmDLSxg0cREaaxFzWRfGvEUkCe5WJMta4ctgTPmgVc9S6kNkuHGrMOfUUCqE5DUZ
wo8KtJFkUtKzLx8SycEZRxsu8fmhEq+X8QQpnxOBNj4ZH5fPGH20O9uJVp1xtUKo
Mp7IrTYixiLyyJdlZWXpdrE3rOnMqBvRFkrazQ8nI2ni5u9t5dqr3kmKkFEFhn5d
AgMBAAGjgaUwgaIwCQYDVR0TBAIwADAdBgNVHQ4EFgQUDxiyt8jRf6yidiPtzsWf
59HbJM8wVAYDVR0jBE0wS4AUh6fFdTcLFGy/RgSMKlLpXdpR3OahHaQbMBkxFzAV
BgNVBAMMDnZwbi5qZW5raW5zLmlvghQIAaptGzFAT3ucdVRUeLU2ZTt8szATBgNV
HSUEDDAKBggrBgEFBQcDAjALBgNVHQ8EBAMCB4AwDQYJKoZIhvcNAQELBQADggIB
AEREJT46PpbDeYyqy6hOrdHawvoOdooBNEJ+gwopeRS2ErVXi5W+96T0lb9pMXbC
QD6Fs6Hvz3w3Qc6/wPdFjolz9I0ShNIpxcuGSn9ZxF7ATMK2pyI0R2a+EzuhK6os
4zsI8zJpd0q78LX2MqDBJAAOp+s7h9AnY0OfO+kdv5bmAuDJxh2HNJ/Dy9hpmosu
WDisbRJyMRqzegTu2+6X/dHZfMZVFQJQ16a9oyn1NC9xoao721+4CCCt/vwFGFgw
LU1CeFnbB1qEWg+1gOAbuD34jhnHVqQZgVUzh3Gq0EygjLDRqTH0nWa+8lq+VMSg
c+0AmmY5FruJpCoN7e1VEAHg4ZeoLYz5nPLPAUnH2HIBdgx5MIKpnLPQj/V27sxa
eKca/8QqoERcpxw+LUviClh/xfPRzfvF/at+ROMqFPpDJKCqC+XQii+EeVNux/4S
jlbFkrtDWUPV2N8pEvSiu1Nq9ZQZRC6h2JEKXa7pTYZWcHMoW2UuLaSctxULQ4m1
ysW+aFNv6RIqcbgqeel+OL6u065bX+EEA7gqznx32LlVSpeTszHlEZGmvd/bJ0qb
9gWWJY5AJ35fawHCYv08dqJFxP4IklZP6G/EY+nuXHPoj6Qp/SIizF7j6dy8rGTO
/xJKBSIMb8Y/zhsptekxVlHvixE8R1VJdfW6UZaF7GIz
-----END CERTIFICATE-----
