Certificate:
    Data:
        Version: 3 (0x2)
        Serial Number:
            a0:b2:85:fb:36:e7:41:71:3b:e1:0e:cb:5c:2f:f2:e8
        Signature Algorithm: sha256WithRSAEncryption
        Issuer: CN=vpn.jenkins.io
        Validity
            Not Before: Apr 26 07:36:01 2019 GMT
            Not After : Apr 10 07:36:01 2022 GMT
        Subject: CN=jvz
        Subject Public Key Info:
            Public Key Algorithm: rsaEncryption
                RSA Public-Key: (4096 bit)
                Modulus:
                    00:bd:4e:3b:2d:da:a3:0c:40:5a:87:84:48:96:ee:
                    43:45:1f:52:9e:06:95:2b:06:5e:27:b6:e3:6d:c3:
                    11:97:34:12:a3:13:bb:d1:09:83:d0:d8:43:b1:91:
                    b2:ed:a3:0e:ca:09:4f:35:28:37:87:33:f5:c2:cf:
                    ae:97:a0:e0:40:67:51:61:0b:3f:54:c4:3a:5f:77:
                    71:0b:95:42:cf:da:8a:a3:70:5f:80:60:4c:0d:a7:
                    71:f5:35:90:42:1b:3a:33:61:cc:b7:6c:fd:c7:6a:
                    ea:1d:52:40:b2:b0:09:f3:7b:40:a7:2d:f5:08:ad:
                    64:c4:6f:72:4c:b3:f1:4c:d9:5c:04:fe:2b:a3:3b:
                    6b:25:8a:03:c5:da:2c:d0:0e:29:09:54:3d:8f:fa:
                    8b:a5:33:a3:81:53:85:eb:7c:c3:11:a5:6d:07:8b:
                    a0:00:96:d8:e0:65:de:4b:3d:0e:52:cc:ed:37:97:
                    5f:c9:c7:75:b5:14:4e:8d:c4:a2:63:7b:c5:c3:7f:
                    d4:8d:cf:c3:6f:d1:20:c5:bd:79:1f:43:0e:c1:b9:
                    81:d0:5c:69:9f:d7:75:c3:58:0b:bb:5a:58:46:00:
                    44:93:0b:79:77:98:67:91:ac:8b:c9:fd:08:12:8a:
                    5e:97:d6:7a:76:70:14:7e:9f:02:f0:52:9d:1c:2f:
                    12:20:93:33:98:6b:69:c1:cb:6d:ce:ff:ba:77:b3:
                    0c:e5:3d:9c:91:ac:c0:f6:10:95:d2:ed:7c:b7:6f:
                    45:88:fa:ea:de:d0:27:1b:81:bb:0a:3a:47:34:20:
                    5d:d6:ea:60:1f:53:01:d8:f0:0f:f5:79:82:61:36:
                    ad:84:2d:95:ff:41:dd:27:a4:08:41:e9:cd:09:43:
                    f3:d1:09:f7:78:21:6b:7f:64:2d:b3:02:45:df:6f:
                    f4:7a:46:a6:95:b7:09:2c:3a:82:75:31:43:12:b9:
                    eb:a3:b2:4b:f3:a2:2f:bb:6d:d5:41:a5:72:3b:a5:
                    66:66:33:52:53:03:9e:53:c9:2c:63:1d:20:c7:aa:
                    4d:52:5f:fd:a3:47:e3:32:9f:15:81:b9:41:96:f2:
                    d5:19:fb:da:e8:74:3c:72:29:ef:26:3a:75:20:17:
                    15:c5:fc:cc:fe:b3:20:25:cb:84:79:81:8b:1f:c9:
                    76:17:e6:a2:99:6e:d1:e8:04:10:5e:ff:83:eb:e4:
                    e5:83:9f:33:b7:d2:e7:16:53:31:d6:95:34:b5:bd:
                    b5:7e:1c:0d:e5:39:e1:27:07:ba:4d:d7:cb:95:40:
                    6b:47:91:0a:20:cb:53:bf:03:ff:f0:58:fc:81:52:
                    40:4b:58:d2:98:e7:5b:6c:29:c9:b2:00:bd:44:26:
                    b7:84:03
                Exponent: 65537 (0x10001)
        X509v3 extensions:
            X509v3 Basic Constraints: 
                CA:FALSE
            X509v3 Subject Key Identifier: 
                1E:0A:03:BB:84:94:FF:DC:79:93:87:B7:FD:D4:20:47:A8:63:8A:9F
            X509v3 Authority Key Identifier: 
                keyid:87:A7:C5:75:37:0B:14:6C:BF:46:04:8C:2A:52:E9:5D:DA:51:DC:E6
                DirName:/CN=vpn.jenkins.io
                serial:08:01:AA:6D:1B:31:40:4F:7B:9C:75:54:54:78:B5:36:65:3B:7C:B3

            X509v3 Extended Key Usage: 
                TLS Web Client Authentication
            X509v3 Key Usage: 
                Digital Signature
    Signature Algorithm: sha256WithRSAEncryption
         12:47:0f:d5:2f:bc:e4:f7:c7:99:47:e5:78:9b:65:ea:79:f8:
         34:27:80:5e:37:ba:6f:21:86:1e:d7:32:3c:44:0c:eb:cc:eb:
         b6:a7:72:a9:9a:ce:85:20:7d:27:f2:c1:d9:c2:89:aa:22:84:
         86:1e:b0:56:6e:8b:58:06:07:81:6e:26:9a:48:b7:63:41:43:
         66:40:34:01:71:77:11:73:ba:e3:d1:f3:1a:d4:6e:26:7b:e8:
         68:fc:b8:f2:36:83:d6:02:46:cf:3a:eb:95:b1:87:d0:a2:8f:
         a2:b2:1c:a0:30:50:f3:c3:55:25:55:f0:1b:35:4e:c8:99:ad:
         f2:b0:74:52:83:6a:94:8c:0a:12:35:c8:c2:e1:52:e5:e8:18:
         a0:eb:09:f7:6d:ea:92:7b:78:e8:00:31:8d:7d:d7:84:48:9b:
         3a:b8:dc:14:cc:b7:97:8b:56:96:fa:54:ca:21:6a:3b:b2:8b:
         a3:81:e1:8c:51:e0:b5:17:61:46:2b:bd:06:7d:1f:3b:a8:8a:
         49:33:98:e5:e3:5f:17:42:46:e4:33:f8:5c:b2:4b:76:e6:a9:
         80:78:64:09:30:c4:ea:08:40:f8:4e:f1:ce:ea:7e:5d:b5:a3:
         b7:55:83:f2:ac:7d:48:29:59:0e:8d:a2:87:91:e5:5e:3f:66:
         94:30:1f:a7:8d:a1:83:07:b4:1e:65:df:1f:2e:47:e1:2c:0a:
         49:04:30:97:bb:97:f9:4b:ac:4e:c5:82:f7:be:12:b0:f6:e1:
         bc:61:27:60:6d:3a:27:73:dd:d7:9c:90:98:e8:f5:d0:13:fd:
         8c:5c:bf:8c:f5:52:71:06:32:7f:f7:36:07:9e:04:fc:1d:30:
         f6:7a:f1:28:59:33:6d:ac:fd:c8:cc:8a:e2:16:5a:50:ba:99:
         d4:06:0f:07:ab:87:35:a3:fb:a5:ed:0a:f6:3b:75:b3:2e:a3:
         f9:f5:97:11:fd:31:ec:39:e9:73:68:3c:86:a8:24:f2:61:4e:
         a3:28:83:15:36:47:29:f0:49:87:ba:be:1a:55:38:94:c5:13:
         5d:e6:d5:8e:c2:da:2d:7f:ab:69:6d:dc:5d:73:13:16:a1:36:
         ee:64:88:90:04:d6:e2:a1:cc:52:dd:19:b0:bc:bf:f1:04:3e:
         de:e2:90:80:e9:01:ab:75:9c:a2:f4:d8:c1:90:99:04:28:e6:
         d4:23:4a:ab:fb:66:7b:e3:34:ed:61:5f:c1:3c:4a:0f:0f:0e:
         74:32:42:d1:f9:d4:b7:b9:51:a5:b6:32:40:ef:89:35:fe:0c:
         61:52:21:ea:c7:c3:45:ef:3e:94:b5:9f:fb:93:67:77:d7:e0:
         49:f0:b7:fe:f3:86:51:f1
-----BEGIN CERTIFICATE-----
MIIFWDCCA0CgAwIBAgIRAKCyhfs250FxO+EOy1wv8ugwDQYJKoZIhvcNAQELBQAw
GTEXMBUGA1UEAwwOdnBuLmplbmtpbnMuaW8wHhcNMTkwNDI2MDczNjAxWhcNMjIw
NDEwMDczNjAxWjAOMQwwCgYDVQQDDANqdnowggIiMA0GCSqGSIb3DQEBAQUAA4IC
DwAwggIKAoICAQC9Tjst2qMMQFqHhEiW7kNFH1KeBpUrBl4ntuNtwxGXNBKjE7vR
CYPQ2EOxkbLtow7KCU81KDeHM/XCz66XoOBAZ1FhCz9UxDpfd3ELlULP2oqjcF+A
YEwNp3H1NZBCGzozYcy3bP3HauodUkCysAnze0CnLfUIrWTEb3JMs/FM2VwE/iuj
O2sligPF2izQDikJVD2P+oulM6OBU4XrfMMRpW0Hi6AAltjgZd5LPQ5SzO03l1/J
x3W1FE6NxKJje8XDf9SNz8Nv0SDFvXkfQw7BuYHQXGmf13XDWAu7WlhGAESTC3l3
mGeRrIvJ/QgSil6X1np2cBR+nwLwUp0cLxIgkzOYa2nBy23O/7p3swzlPZyRrMD2
EJXS7Xy3b0WI+ure0CcbgbsKOkc0IF3W6mAfUwHY8A/1eYJhNq2ELZX/Qd0npAhB
6c0JQ/PRCfd4IWt/ZC2zAkXfb/R6RqaVtwksOoJ1MUMSueujskvzoi+7bdVBpXI7
pWZmM1JTA55TySxjHSDHqk1SX/2jR+MynxWBuUGW8tUZ+9rodDxyKe8mOnUgFxXF
/Mz+syAly4R5gYsfyXYX5qKZbtHoBBBe/4Pr5OWDnzO30ucWUzHWlTS1vbV+HA3l
OeEnB7pN18uVQGtHkQogy1O/A//wWPyBUkBLWNKY51tsKcmyAL1EJreEAwIDAQAB
o4GlMIGiMAkGA1UdEwQCMAAwHQYDVR0OBBYEFB4KA7uElP/ceZOHt/3UIEeoY4qf
MFQGA1UdIwRNMEuAFIenxXU3CxRsv0YEjCpS6V3aUdzmoR2kGzAZMRcwFQYDVQQD
DA52cG4uamVua2lucy5pb4IUCAGqbRsxQE97nHVUVHi1NmU7fLMwEwYDVR0lBAww
CgYIKwYBBQUHAwIwCwYDVR0PBAQDAgeAMA0GCSqGSIb3DQEBCwUAA4ICAQASRw/V
L7zk98eZR+V4m2Xqefg0J4BeN7pvIYYe1zI8RAzrzOu2p3Kpms6FIH0n8sHZwomq
IoSGHrBWbotYBgeBbiaaSLdjQUNmQDQBcXcRc7rj0fMa1G4me+ho/LjyNoPWAkbP
OuuVsYfQoo+ishygMFDzw1UlVfAbNU7Ima3ysHRSg2qUjAoSNcjC4VLl6Big6wn3
beqSe3joADGNfdeESJs6uNwUzLeXi1aW+lTKIWo7soujgeGMUeC1F2FGK70GfR87
qIpJM5jl418XQkbkM/hcskt25qmAeGQJMMTqCED4TvHO6n5dtaO3VYPyrH1IKVkO
jaKHkeVeP2aUMB+njaGDB7QeZd8fLkfhLApJBDCXu5f5S6xOxYL3vhKw9uG8YSdg
bTonc93XnJCY6PXQE/2MXL+M9VJxBjJ/9zYHngT8HTD2evEoWTNtrP3IzIriFlpQ
upnUBg8Hq4c1o/ul7Qr2O3WzLqP59ZcR/THsOelzaDyGqCTyYU6jKIMVNkcp8EmH
ur4aVTiUxRNd5tWOwtotf6tpbdxdcxMWoTbuZIiQBNbiocxS3RmwvL/xBD7e4pCA
6QGrdZyi9NjBkJkEKObUI0qr+2Z74zTtYV/BPEoPDw50MkLR+dS3uVGltjJA74k1
/gxhUiHqx8NF7z6UtZ/7k2d31+BJ8Lf+84ZR8Q==
-----END CERTIFICATE-----
