Certificate:
    Data:
        Version: 3 (0x2)
        Serial Number:
            a4:05:78:a3:76:d4:62:41:4e:c1:7e:91:64:37:e5:d6
    Signature Algorithm: sha256WithRSAEncryption
        Issuer: CN=vpn.jenkins.io
        Validity
            Not Before: Jan 18 07:08:10 2023 GMT
            Not After : Jan  2 07:08:10 2026 GMT
        Subject: CN=halkeye
        Subject Public Key Info:
            Public Key Algorithm: rsaEncryption
                RSA Public-Key: (4096 bit)
                Modulus:
                    00:bd:f6:41:26:c2:3e:49:09:e2:e1:f1:da:e9:59:
                    00:b1:16:fa:4e:41:b7:19:de:e9:c8:41:10:5b:2d:
                    45:f6:a7:9e:de:8e:91:79:5c:35:52:aa:95:33:4f:
                    a1:1a:5c:14:e7:cb:0a:f3:8d:e4:5e:7b:f3:f8:73:
                    13:1e:83:e4:64:26:f9:db:a7:6b:18:4d:e6:09:20:
                    2d:d2:a0:f1:ae:25:ce:91:d7:2f:29:7a:5d:c4:f4:
                    e8:cf:c8:b2:3c:d8:e5:36:13:de:85:1b:6c:8b:c0:
                    a4:03:31:c0:0c:33:ce:8f:7d:ca:c8:79:73:74:f7:
                    f9:b5:bb:12:1c:76:c8:a4:b0:5c:31:2b:7d:19:e4:
                    d4:bf:24:17:f9:f0:d7:2e:80:5c:40:89:bb:b0:98:
                    ef:cb:b0:e3:da:78:34:18:60:3a:ef:81:44:f1:b2:
                    19:48:fb:da:14:76:d3:24:d2:f1:ca:23:8d:4b:c0:
                    db:4d:ce:f1:bd:df:e6:20:9c:d8:da:d5:da:92:9d:
                    48:17:d7:40:f2:af:9e:01:97:ad:5b:8c:80:bb:45:
                    6b:48:52:cc:9c:53:ee:10:bf:ad:0e:db:5e:35:de:
                    06:bf:be:70:0e:51:1f:cf:1c:ef:87:54:4c:34:14:
                    89:c9:8e:74:33:c2:ac:92:46:c1:a7:17:b9:79:fd:
                    5c:6e:ba:d4:cc:d0:24:f4:ca:ae:65:ac:3e:05:ed:
                    e7:e1:b0:e2:28:ba:80:eb:9f:fd:90:3f:bf:d4:06:
                    ab:e5:08:cc:e5:66:a3:9f:a2:62:22:33:b5:3c:5e:
                    72:52:96:19:4d:6c:45:e0:37:bd:14:4e:11:f7:c6:
                    88:1e:d1:32:58:88:3a:e3:84:ea:97:d5:da:4f:24:
                    a5:3f:10:44:f9:a3:69:52:81:ac:88:e4:dc:19:06:
                    7a:6a:b1:d4:cf:9e:a8:0d:90:ad:dd:09:f5:70:13:
                    ad:34:3d:d8:1c:a2:d9:3f:fd:b6:09:e0:a6:b6:bf:
                    4a:2e:fd:5d:2e:00:e6:0b:dd:0e:f1:77:e0:33:67:
                    42:73:a7:46:cb:aa:bb:20:76:e3:b3:33:23:cb:e3:
                    01:32:93:d7:f9:4a:68:e7:17:d0:65:9f:04:79:52:
                    c2:00:18:3f:b8:3a:f9:6a:13:bc:c8:fb:77:6f:fc:
                    66:d0:7d:48:da:f4:5c:10:53:f1:bc:22:e0:a0:0e:
                    6a:5b:ce:16:af:1d:e8:01:2e:b2:b4:86:db:91:da:
                    8c:dc:fb:6d:6b:eb:86:98:4b:43:33:a9:ea:cb:f6:
                    f2:4e:90:3f:e2:a8:d9:9b:90:f3:a8:4f:c9:a4:63:
                    9a:6b:ed:22:18:4b:ea:b8:54:2a:64:cf:c0:f2:65:
                    c7:5c:cd
                Exponent: 65537 (0x10001)
        X509v3 extensions:
            X509v3 Basic Constraints: 
                CA:FALSE
            X509v3 Subject Key Identifier: 
                48:F0:28:AF:CB:CE:F8:FE:B2:6A:B3:9F:6B:CD:69:1D:5D:77:CB:AD
            X509v3 Authority Key Identifier: 
                keyid:87:A7:C5:75:37:0B:14:6C:BF:46:04:8C:2A:52:E9:5D:DA:51:DC:E6
                DirName:/CN=vpn.jenkins.io
                serial:08:01:AA:6D:1B:31:40:4F:7B:9C:75:54:54:78:B5:36:65:3B:7C:B3

            X509v3 Extended Key Usage: 
                TLS Web Client Authentication
            X509v3 Key Usage: 
                Digital Signature
    Signature Algorithm: sha256WithRSAEncryption
         9c:e1:fe:c8:b5:e0:4a:e6:cf:11:47:9a:9f:fc:83:44:e3:9c:
         3d:b2:51:6b:29:17:f8:df:92:a1:a4:15:99:8b:45:73:59:08:
         fa:88:ad:cc:98:de:fb:03:cd:22:18:cc:59:d0:fc:84:93:86:
         10:53:16:d7:2a:14:dc:40:e9:8e:d1:42:9b:83:b9:e4:df:cb:
         07:74:e6:e6:c8:58:03:f4:6b:5e:10:d7:18:b7:4d:94:8e:ef:
         ad:14:22:c8:4d:a9:0a:b6:9d:53:b8:79:6c:b5:07:b7:27:d0:
         54:85:81:87:1f:c5:d7:54:68:3e:24:3e:99:4e:f7:13:e3:3b:
         7c:eb:61:0f:fb:da:19:e8:40:67:b0:20:20:2a:e8:99:a7:d4:
         21:44:5b:ea:dc:d8:e6:e9:46:44:5c:28:dd:a7:10:6c:cb:cd:
         25:f2:a5:cb:84:d6:7b:80:66:7e:72:a6:3c:0b:69:5a:c1:5c:
         57:17:fe:08:74:1d:f6:78:81:5f:31:df:26:95:a3:0d:e9:a1:
         12:9b:42:dd:39:81:0f:ad:d3:29:e0:06:88:2b:9a:dc:1c:88:
         28:ba:df:ec:65:ab:a6:89:21:1c:f6:7c:8c:0a:42:d9:36:a9:
         84:d4:5f:04:4c:04:08:e5:88:28:d3:6a:df:fd:36:5d:84:4b:
         81:33:5b:ff:b5:34:28:6f:5c:b4:88:1a:24:b1:bc:8f:b5:22:
         b6:e0:7f:47:70:03:24:ff:89:f1:7d:8e:69:b3:0c:23:6a:78:
         06:ca:3c:4e:b4:72:b6:30:20:1b:09:0b:c2:36:ab:1e:54:99:
         62:a0:0f:aa:0d:93:20:83:f9:70:d5:84:d7:2a:5b:d1:83:05:
         56:92:c2:02:f7:41:6f:95:39:af:ed:c1:3d:41:b8:06:0c:55:
         f7:45:95:65:9a:65:22:6a:44:3b:9e:8a:87:cf:2c:78:02:ff:
         49:64:36:e0:6e:98:a7:c1:3c:9a:95:5d:6f:f0:38:e0:5d:91:
         a8:54:d3:55:40:db:00:fd:88:6c:d6:69:13:22:4d:7b:b2:60:
         da:48:d7:6e:8a:0c:c5:e1:d9:57:95:9b:29:c5:cd:1c:7c:31:
         53:c1:b6:1b:6b:87:85:e8:e4:de:0c:a0:6e:35:3e:f4:25:f8:
         de:4a:3c:fc:57:74:3d:32:41:e5:58:f2:c6:f3:ed:05:07:56:
         ce:11:25:ec:6f:2f:c0:68:16:f5:18:19:b4:bc:80:a8:5b:24:
         f5:6c:49:62:ed:e5:e4:b8:da:8c:e9:42:fb:50:c4:db:ab:b0:
         b7:8b:4d:32:3e:75:5a:7d:5b:6d:92:66:ac:31:fd:6d:1c:bc:
         83:dc:d4:3c:6e:cf:33:9b
-----BEGIN CERTIFICATE-----
MIIFXDCCA0SgAwIBAgIRAKQFeKN21GJBTsF+kWQ35dYwDQYJKoZIhvcNAQELBQAw
GTEXMBUGA1UEAwwOdnBuLmplbmtpbnMuaW8wHhcNMjMwMTE4MDcwODEwWhcNMjYw
MTAyMDcwODEwWjASMRAwDgYDVQQDDAdoYWxrZXllMIICIjANBgkqhkiG9w0BAQEF
AAOCAg8AMIICCgKCAgEAvfZBJsI+SQni4fHa6VkAsRb6TkG3Gd7pyEEQWy1F9qee
3o6ReVw1UqqVM0+hGlwU58sK843kXnvz+HMTHoPkZCb526drGE3mCSAt0qDxriXO
kdcvKXpdxPToz8iyPNjlNhPehRtsi8CkAzHADDPOj33KyHlzdPf5tbsSHHbIpLBc
MSt9GeTUvyQX+fDXLoBcQIm7sJjvy7Dj2ng0GGA674FE8bIZSPvaFHbTJNLxyiON
S8DbTc7xvd/mIJzY2tXakp1IF9dA8q+eAZetW4yAu0VrSFLMnFPuEL+tDtteNd4G
v75wDlEfzxzvh1RMNBSJyY50M8KskkbBpxe5ef1cbrrUzNAk9MquZaw+Be3n4bDi
KLqA65/9kD+/1Aar5QjM5Wajn6JiIjO1PF5yUpYZTWxF4De9FE4R98aIHtEyWIg6
44Tql9XaTySlPxBE+aNpUoGsiOTcGQZ6arHUz56oDZCt3Qn1cBOtND3YHKLZP/22
CeCmtr9KLv1dLgDmC90O8XfgM2dCc6dGy6q7IHbjszMjy+MBMpPX+Upo5xfQZZ8E
eVLCABg/uDr5ahO8yPt3b/xm0H1I2vRcEFPxvCLgoA5qW84Wrx3oAS6ytIbbkdqM
3Ptta+uGmEtDM6nqy/byTpA/4qjZm5DzqE/JpGOaa+0iGEvquFQqZM/A8mXHXM0C
AwEAAaOBpTCBojAJBgNVHRMEAjAAMB0GA1UdDgQWBBRI8Civy874/rJqs59rzWkd
XXfLrTBUBgNVHSMETTBLgBSHp8V1NwsUbL9GBIwqUuld2lHc5qEdpBswGTEXMBUG
A1UEAwwOdnBuLmplbmtpbnMuaW+CFAgBqm0bMUBPe5x1VFR4tTZlO3yzMBMGA1Ud
JQQMMAoGCCsGAQUFBwMCMAsGA1UdDwQEAwIHgDANBgkqhkiG9w0BAQsFAAOCAgEA
nOH+yLXgSubPEUean/yDROOcPbJRaykX+N+SoaQVmYtFc1kI+oitzJje+wPNIhjM
WdD8hJOGEFMW1yoU3EDpjtFCm4O55N/LB3Tm5shYA/RrXhDXGLdNlI7vrRQiyE2p
CradU7h5bLUHtyfQVIWBhx/F11RoPiQ+mU73E+M7fOthD/vaGehAZ7AgICromafU
IURb6tzY5ulGRFwo3acQbMvNJfKly4TWe4BmfnKmPAtpWsFcVxf+CHQd9niBXzHf
JpWjDemhEptC3TmBD63TKeAGiCua3ByIKLrf7GWrpokhHPZ8jApC2TaphNRfBEwE
COWIKNNq3/02XYRLgTNb/7U0KG9ctIgaJLG8j7UituB/R3ADJP+J8X2OabMMI2p4
Bso8TrRytjAgGwkLwjarHlSZYqAPqg2TIIP5cNWE1ypb0YMFVpLCAvdBb5U5r+3B
PUG4BgxV90WVZZplImpEO56Kh88seAL/SWQ24G6Yp8E8mpVdb/A44F2RqFTTVUDb
AP2IbNZpEyJNe7Jg2kjXbooMxeHZV5WbKcXNHHwxU8G2G2uHhejk3gygbjU+9CX4
3ko8/Fd0PTJB5VjyxvPtBQdWzhEl7G8vwGgW9RgZtLyAqFsk9WxJYu3l5LjajOlC
+1DE26uwt4tNMj51Wn1bbZJmrDH9bRy8g9zUPG7PM5s=
-----END CERTIFICATE-----
