Certificate:
    Data:
        Version: 3 (0x2)
        Serial Number:
            de:e0:1d:bf:68:27:75:46:c5:a1:c7:d6:91:56:8b:e6
        Signature Algorithm: sha256WithRSAEncryption
        Issuer: CN=vpn.jenkins.io
        Validity
            Not Before: Aug 30 07:49:29 2024 GMT
            Not After : Aug 15 07:49:29 2027 GMT
        Subject: CN=jayfranco_cb
        Subject Public Key Info:
            Public Key Algorithm: rsaEncryption
                Public-Key: (4096 bit)
                Modulus:
                    00:b9:b2:b5:e0:51:6f:b3:e7:60:de:04:a1:cb:b1:
                    70:a4:bd:4a:05:3b:59:ef:97:8a:ee:e6:09:3c:f4:
                    3d:5c:53:44:ef:6f:cd:77:99:27:26:3d:ea:8e:30:
                    5c:2a:a2:00:0b:6d:b5:00:22:04:f4:18:2e:b6:62:
                    ca:f2:2e:46:2a:1d:71:fb:e1:38:56:e7:a5:cb:01:
                    71:32:1c:0e:96:c5:ac:99:6d:e7:15:f1:aa:d5:40:
                    74:f3:ea:5e:34:83:6f:12:e4:b6:e9:d0:8e:93:d2:
                    f5:f8:2d:07:34:5c:2e:87:f4:64:a9:fb:b9:72:65:
                    61:f9:11:04:d0:41:78:f9:cd:09:f9:80:15:43:03:
                    38:71:f8:b9:d3:4f:2a:bb:67:56:20:6a:bc:13:56:
                    39:ef:d0:1f:5d:25:50:92:3a:38:d4:c7:22:48:1f:
                    a7:59:bb:51:7a:50:45:98:63:b5:b2:6d:b1:7c:82:
                    b8:03:00:12:be:ad:48:9e:c2:42:9a:39:7a:f1:99:
                    95:37:8a:ac:14:62:f2:49:5a:a4:ae:f6:af:dd:5c:
                    bf:9f:91:a9:1b:6b:6f:c8:3b:64:34:6f:a5:85:f2:
                    e6:68:97:72:4f:d8:c0:44:67:7f:47:54:82:d2:4f:
                    2f:42:2a:2f:68:97:8e:fc:1d:c0:79:c2:bd:a5:e3:
                    65:8b:b7:a0:80:f5:aa:1b:54:2f:2b:c9:da:41:3c:
                    35:b1:55:38:7b:96:7c:75:88:59:ce:d5:a4:a0:27:
                    fa:d6:88:4b:93:0d:a5:92:8a:79:02:fc:62:61:ef:
                    94:7f:f4:bf:c7:b1:cd:ca:02:7e:46:60:50:6a:13:
                    8c:5d:ab:ae:ec:3f:6a:1a:8a:16:02:dd:d7:9f:e8:
                    0c:6e:ba:c7:3c:bc:42:3c:06:27:d5:59:42:93:3d:
                    af:67:3b:62:0b:f2:8f:a3:64:fc:cc:96:5f:e0:e5:
                    61:ca:15:a5:5e:8b:33:76:83:7e:78:9d:3c:03:37:
                    63:8a:62:ac:a9:79:0b:c5:a9:76:7c:11:ad:1d:3b:
                    f7:85:d0:35:fa:61:dd:45:6f:83:1d:bc:14:5b:84:
                    54:4b:bd:e6:06:a9:68:b1:a4:e3:9d:ff:90:43:b4:
                    50:e0:0c:f8:28:27:43:b1:77:48:40:73:25:91:5b:
                    d3:41:28:7b:bf:84:62:8a:c5:49:d7:33:16:04:15:
                    12:bc:08:ad:62:6f:56:a7:8b:c7:58:f9:8e:c2:5f:
                    81:4b:fb:39:5e:0e:a1:3b:34:77:a5:e5:72:b7:33:
                    cf:c7:3c:d7:61:62:ff:c1:6b:71:39:30:9e:b8:9b:
                    95:d0:86:5c:3f:6b:a3:46:41:1f:db:61:15:da:da:
                    b8:6d:65
                Exponent: 65537 (0x10001)
        X509v3 extensions:
            X509v3 Basic Constraints: 
                CA:FALSE
            X509v3 Subject Key Identifier: 
                58:7F:81:83:08:CD:04:76:6A:74:89:A9:A0:AC:21:F6:27:B2:2C:4B
            X509v3 Authority Key Identifier: 
                keyid:87:A7:C5:75:37:0B:14:6C:BF:46:04:8C:2A:52:E9:5D:DA:51:DC:E6
                DirName:/CN=vpn.jenkins.io
                serial:08:01:AA:6D:1B:31:40:4F:7B:9C:75:54:54:78:B5:36:65:3B:7C:B3
            X509v3 Extended Key Usage: 
                TLS Web Client Authentication
            X509v3 Key Usage: 
                Digital Signature
    Signature Algorithm: sha256WithRSAEncryption
    Signature Value:
        05:a4:92:3d:ee:4a:f5:da:f3:fc:68:b8:71:3f:8c:a2:6f:eb:
        5c:11:e7:5c:c6:c0:76:ea:93:3e:7f:e6:ec:dc:e8:e3:41:65:
        f1:f1:67:5d:42:9c:72:7b:b9:01:f3:7a:c9:c3:36:73:8f:e0:
        e3:28:30:7e:30:b4:5f:1d:17:51:72:5f:74:02:69:fa:5a:47:
        35:7b:a9:e9:16:e0:ad:9c:d1:b4:0c:18:cd:5f:7f:dc:08:8a:
        b2:93:f2:dd:05:b4:cd:f5:f0:5d:48:8e:02:f3:de:94:c1:39:
        b6:4f:d0:4a:ed:2f:ea:69:e2:be:8a:91:e7:f8:3d:b5:e1:db:
        42:3f:90:c3:5b:2f:2f:24:7a:15:13:ca:1c:00:27:a3:c7:0b:
        0f:3a:45:dc:e0:f3:bc:02:88:01:dd:b7:6c:96:41:77:02:81:
        5d:4c:0d:31:7c:d3:b5:dc:37:ea:47:dc:58:96:90:4c:c4:7e:
        6c:54:ee:0e:71:27:b4:2b:4e:10:c0:d9:da:f6:54:5c:e9:aa:
        7c:5b:49:c7:01:77:3a:23:e6:83:54:a9:c1:3e:d6:c1:fe:be:
        74:1d:10:90:c6:87:a8:b5:f5:88:09:11:43:44:e3:09:e4:d1:
        25:72:c8:45:6e:04:bc:34:23:b3:af:87:25:39:99:13:f2:95:
        e1:0a:76:bc:28:bf:fe:b0:0d:b1:7b:4c:83:f1:5a:ad:4a:98:
        0b:91:50:c9:6b:2d:55:e2:11:93:ca:ac:35:92:2e:51:35:19:
        b7:0f:7b:ec:88:ca:3b:7c:61:35:63:f8:6a:e6:05:9f:b3:e8:
        44:a8:59:2f:35:b8:1b:f9:5b:8f:87:d7:70:a7:db:58:65:56:
        0a:8c:e4:73:5e:02:90:11:c9:6f:6c:eb:48:cc:6c:0f:84:9d:
        98:25:b3:b8:a8:14:06:4f:0f:d4:d1:93:34:61:3b:a8:71:d8:
        45:a2:ad:2e:8b:d2:33:8a:39:4f:b3:c7:70:b3:d6:63:9b:89:
        ea:af:14:04:83:13:f9:47:fd:03:ea:c9:cd:27:2e:f8:e1:96:
        70:69:09:d6:a0:71:57:a6:d2:fc:47:3a:1c:cb:ef:7f:72:d0:
        06:59:7b:13:23:25:bd:9c:45:4f:a5:21:36:35:fc:97:c5:2d:
        b7:a5:bf:e6:69:3c:f7:3f:57:98:92:bb:b4:c1:d1:ec:00:ae:
        85:38:eb:69:fb:74:f8:dd:f3:75:c7:c2:b3:b9:47:35:86:e2:
        8c:e1:e0:0c:01:2d:cc:2d:16:97:e0:2e:5a:b9:a5:27:12:c2:
        74:e8:1d:f4:eb:e3:a2:19:65:86:80:1a:13:df:63:23:b6:d5:
        12:ab:9c:55:3d:43:42:2d
-----BEGIN CERTIFICATE-----
MIIFYTCCA0mgAwIBAgIRAN7gHb9oJ3VGxaHH1pFWi+YwDQYJKoZIhvcNAQELBQAw
GTEXMBUGA1UEAwwOdnBuLmplbmtpbnMuaW8wHhcNMjQwODMwMDc0OTI5WhcNMjcw
ODE1MDc0OTI5WjAXMRUwEwYDVQQDDAxqYXlmcmFuY29fY2IwggIiMA0GCSqGSIb3
DQEBAQUAA4ICDwAwggIKAoICAQC5srXgUW+z52DeBKHLsXCkvUoFO1nvl4ru5gk8
9D1cU0Tvb813mScmPeqOMFwqogALbbUAIgT0GC62YsryLkYqHXH74ThW56XLAXEy
HA6WxayZbecV8arVQHTz6l40g28S5Lbp0I6T0vX4LQc0XC6H9GSp+7lyZWH5EQTQ
QXj5zQn5gBVDAzhx+LnTTyq7Z1YgarwTVjnv0B9dJVCSOjjUxyJIH6dZu1F6UEWY
Y7WybbF8grgDABK+rUiewkKaOXrxmZU3iqwUYvJJWqSu9q/dXL+fkakba2/IO2Q0
b6WF8uZol3JP2MBEZ39HVILSTy9CKi9ol478HcB5wr2l42WLt6CA9aobVC8rydpB
PDWxVTh7lnx1iFnO1aSgJ/rWiEuTDaWSinkC/GJh75R/9L/Hsc3KAn5GYFBqE4xd
q67sP2oaihYC3def6Axuusc8vEI8BifVWUKTPa9nO2IL8o+jZPzMll/g5WHKFaVe
izN2g354nTwDN2OKYqypeQvFqXZ8Ea0dO/eF0DX6Yd1Fb4MdvBRbhFRLveYGqWix
pOOd/5BDtFDgDPgoJ0Oxd0hAcyWRW9NBKHu/hGKKxUnXMxYEFRK8CK1ib1ani8dY
+Y7CX4FL+zleDqE7NHel5XK3M8/HPNdhYv/Ba3E5MJ64m5XQhlw/a6NGQR/bYRXa
2rhtZQIDAQABo4GlMIGiMAkGA1UdEwQCMAAwHQYDVR0OBBYEFFh/gYMIzQR2anSJ
qaCsIfYnsixLMFQGA1UdIwRNMEuAFIenxXU3CxRsv0YEjCpS6V3aUdzmoR2kGzAZ
MRcwFQYDVQQDDA52cG4uamVua2lucy5pb4IUCAGqbRsxQE97nHVUVHi1NmU7fLMw
EwYDVR0lBAwwCgYIKwYBBQUHAwIwCwYDVR0PBAQDAgeAMA0GCSqGSIb3DQEBCwUA
A4ICAQAFpJI97kr12vP8aLhxP4yib+tcEedcxsB26pM+f+bs3OjjQWXx8WddQpxy
e7kB83rJwzZzj+DjKDB+MLRfHRdRcl90Amn6Wkc1e6npFuCtnNG0DBjNX3/cCIqy
k/LdBbTN9fBdSI4C896UwTm2T9BK7S/qaeK+ipHn+D214dtCP5DDWy8vJHoVE8oc
ACejxwsPOkXc4PO8AogB3bdslkF3AoFdTA0xfNO13DfqR9xYlpBMxH5sVO4OcSe0
K04QwNna9lRc6ap8W0nHAXc6I+aDVKnBPtbB/r50HRCQxoeotfWICRFDROMJ5NEl
cshFbgS8NCOzr4clOZkT8pXhCna8KL/+sA2xe0yD8VqtSpgLkVDJay1V4hGTyqw1
ki5RNRm3D3vsiMo7fGE1Y/hq5gWfs+hEqFkvNbgb+VuPh9dwp9tYZVYKjORzXgKQ
EclvbOtIzGwPhJ2YJbO4qBQGTw/U0ZM0YTuocdhFoq0ui9IzijlPs8dws9Zjm4nq
rxQEgxP5R/0D6snNJy744ZZwaQnWoHFXptL8Rzocy+9/ctAGWXsTIyW9nEVPpSE2
NfyXxS23pb/maTz3P1eYkru0wdHsAK6FOOtp+3T43fN1x8KzuUc1huKM4eAMAS3M
LRaX4C5auaUnEsJ06B306+OiGWWGgBoT32MjttUSq5xVPUNCLQ==
-----END CERTIFICATE-----
