Certificate:
    Data:
        Version: 3 (0x2)
        Serial Number:
            ff:06:2e:86:c6:45:9b:92:b2:27:23:7e:cc:60:ab:f6
        Signature Algorithm: sha256WithRSAEncryption
        Issuer: CN=vpn.jenkins.io
        Validity
            Not Before: Feb 12 16:10:34 2025 GMT
            Not After : Jan 28 16:10:34 2028 GMT
        Subject: CN=vpn.jenkins.io
        Subject Public Key Info:
            Public Key Algorithm: rsaEncryption
                Public-Key: (4096 bit)
                Modulus:
                    00:e6:85:84:14:d9:f8:c3:02:87:88:12:ab:21:57:
                    6d:57:7a:ce:6b:7f:e2:51:91:18:58:4a:1b:dd:7c:
                    05:60:52:e9:1e:b3:c8:52:62:18:dd:e6:59:3a:a7:
                    04:8b:dd:1c:1a:57:27:84:1c:70:70:59:29:50:74:
                    6d:b5:83:0a:ac:0c:58:4f:8d:09:be:28:08:43:61:
                    41:2d:75:5d:73:a2:16:32:7a:6a:7d:88:1d:cd:ce:
                    5a:b0:16:c7:83:95:51:c8:49:b2:5f:86:95:de:c8:
                    2d:e7:e6:ed:51:1e:f9:20:5b:cb:3a:37:42:c3:52:
                    e9:45:86:0f:52:92:5d:dd:dd:82:a1:6e:4e:fc:8f:
                    d2:cb:52:29:d2:6f:f5:f3:1b:6d:f4:ab:5d:5e:d2:
                    ca:53:7b:fa:46:2c:5e:34:0d:9d:91:98:d2:e2:6a:
                    83:d0:15:01:3f:cc:18:a0:32:2d:6d:92:e6:37:1c:
                    d3:96:2e:88:2e:bd:68:27:45:bf:93:1b:39:c4:01:
                    16:eb:ad:fe:62:4a:95:35:ad:ca:49:96:00:3a:2b:
                    1e:d4:4f:28:10:77:6d:e1:4a:bb:a1:07:b8:fe:d0:
                    c1:bc:3b:df:53:6b:b4:7a:4e:73:29:38:7c:54:34:
                    99:05:d4:f7:5f:cc:8e:e5:92:79:8d:95:ab:32:2d:
                    90:a2:f6:78:be:5e:c6:07:da:a2:d1:8f:70:b7:be:
                    b4:67:7a:9f:69:78:1d:0d:23:55:04:c4:c1:f9:dc:
                    32:16:88:30:ec:d5:c5:83:21:e6:8d:54:58:80:11:
                    3b:50:dd:d8:3e:d2:40:8a:3c:e1:7f:59:a4:62:78:
                    b1:d1:82:9d:cd:75:78:15:2f:dc:8a:9b:53:13:22:
                    78:07:4f:26:65:c0:92:ae:91:78:4a:d5:35:da:dc:
                    45:da:20:a9:85:04:6e:42:6f:80:53:3e:5f:77:c3:
                    f6:1a:3e:d8:3a:92:0f:30:fd:19:48:41:c5:a4:8d:
                    f7:13:25:05:ac:df:62:8b:26:dc:71:4c:27:91:33:
                    52:31:6a:dd:3f:32:81:36:6a:de:d8:6a:35:7f:1f:
                    56:2a:3e:f4:4a:fe:c9:a9:bc:be:4d:fd:9a:0f:42:
                    0c:11:0b:5e:3c:ac:a8:1a:6d:e8:3f:71:3a:d0:33:
                    3c:31:e7:30:35:69:7b:d3:81:3f:43:c4:59:3e:4e:
                    b6:17:57:75:a9:ed:d7:10:86:5a:fb:51:cc:35:01:
                    53:c3:9e:09:8d:58:f1:75:f6:86:3a:a5:f6:68:2f:
                    4b:06:ab:c9:06:f3:b1:7f:ad:eb:a0:fa:ff:6b:4d:
                    e0:20:02:2e:10:fd:dc:eb:4d:a7:48:0b:14:6d:b7:
                    85:bc:9f
                Exponent: 65537 (0x10001)
        X509v3 extensions:
            X509v3 Basic Constraints: 
                CA:FALSE
            X509v3 Subject Key Identifier: 
                AB:07:63:EA:0C:0B:0C:69:39:D2:5A:63:72:41:ED:4A:1A:43:31:D8
            X509v3 Authority Key Identifier: 
                keyid:87:A7:C5:75:37:0B:14:6C:BF:46:04:8C:2A:52:E9:5D:DA:51:DC:E6
                DirName:/CN=vpn.jenkins.io
                serial:08:01:AA:6D:1B:31:40:4F:7B:9C:75:54:54:78:B5:36:65:3B:7C:B3
            X509v3 Extended Key Usage: 
                TLS Web Server Authentication
            X509v3 Key Usage: 
                Digital Signature, Key Encipherment
            X509v3 Subject Alternative Name: 
                DNS:vpn.jenkins.io
    Signature Algorithm: sha256WithRSAEncryption
    Signature Value:
        58:c5:bf:91:c1:0d:b9:38:87:e6:e5:9c:37:d3:ce:02:f5:ba:
        54:ce:ae:82:74:7d:f5:c8:a9:45:e1:75:b6:50:ba:b3:48:1c:
        39:dc:87:7b:bd:dd:c7:a8:c6:c4:fd:b6:b6:9b:b6:04:59:e4:
        60:bc:5a:46:58:23:3d:bb:e3:c6:55:05:16:c6:b8:f2:b1:c1:
        dc:79:83:b4:c6:03:33:2e:e4:ca:65:cd:45:4a:51:0d:92:ce:
        ee:ed:58:10:b9:67:3c:3d:b2:9c:b8:38:d8:93:d4:f0:d2:3c:
        47:30:70:e8:a3:23:3b:77:ba:5a:96:e0:a2:45:43:49:d4:f3:
        0c:03:50:22:44:47:b3:b9:17:07:88:81:69:a5:88:68:22:69:
        2b:9a:c4:ff:01:fd:31:f8:2f:5e:8a:94:5b:84:32:ed:a0:18:
        20:e6:3b:48:5a:04:85:5e:b7:d4:74:1b:90:f0:89:1b:c0:27:
        18:0d:96:ec:5b:12:4d:c2:54:3c:be:3b:97:2d:b2:73:9d:f8:
        67:04:85:fb:e3:3a:9a:2d:e2:10:5c:f1:b5:c9:87:b2:c4:34:
        c7:33:74:e6:9d:45:e7:f9:43:3c:17:71:0c:f2:58:47:68:a9:
        e6:06:3b:85:9b:89:56:60:38:79:63:e8:32:ef:f1:8e:27:11:
        81:3d:b8:1c:0c:cf:0e:d2:df:05:d0:4f:b5:db:64:47:4a:50:
        e7:38:e0:b7:85:05:f6:ba:00:d6:f1:79:c9:b0:b2:1a:71:98:
        e7:65:9a:86:d4:4a:1d:dd:89:d5:41:f4:54:ed:f9:92:85:ac:
        e5:9c:18:8e:e5:d4:05:61:5f:5e:ef:e8:03:2f:74:ca:e1:15:
        92:e5:fc:99:2b:e8:38:40:d2:48:af:cb:28:6b:19:c5:be:c9:
        f9:f7:21:da:70:cd:11:45:47:2d:01:e1:e6:63:8f:41:9f:b5:
        01:36:49:3c:05:66:90:6f:fe:57:be:65:93:87:46:19:90:12:
        a8:d0:4f:56:9a:67:86:90:97:9b:ba:7b:46:53:64:52:da:c2:
        ce:46:59:19:18:01:87:c6:02:09:37:9f:98:a6:a2:a6:5c:fc:
        06:a1:81:01:93:da:2d:51:27:80:d8:c9:58:52:3b:d2:33:ae:
        a4:09:5c:51:a3:a4:88:ab:71:ba:03:3e:86:11:74:84:48:8c:
        3d:cd:1c:9c:4e:2b:d2:00:c5:8e:dd:1f:43:7f:b6:98:d6:02:
        d2:51:61:fb:9b:0f:5a:47:e4:6f:e0:b7:0f:7a:84:b9:1e:1e:
        8e:06:40:5f:96:97:e3:ce:f8:26:11:ce:1c:91:00:65:05:0f:
        53:82:f2:05:b9:a0:61:a4
-----BEGIN CERTIFICATE-----
MIIFfjCCA2agAwIBAgIRAP8GLobGRZuSsicjfsxgq/YwDQYJKoZIhvcNAQELBQAw
GTEXMBUGA1UEAwwOdnBuLmplbmtpbnMuaW8wHhcNMjUwMjEyMTYxMDM0WhcNMjgw
MTI4MTYxMDM0WjAZMRcwFQYDVQQDDA52cG4uamVua2lucy5pbzCCAiIwDQYJKoZI
hvcNAQEBBQADggIPADCCAgoCggIBAOaFhBTZ+MMCh4gSqyFXbVd6zmt/4lGRGFhK
G918BWBS6R6zyFJiGN3mWTqnBIvdHBpXJ4QccHBZKVB0bbWDCqwMWE+NCb4oCENh
QS11XXOiFjJ6an2IHc3OWrAWx4OVUchJsl+Gld7ILefm7VEe+SBbyzo3QsNS6UWG
D1KSXd3dgqFuTvyP0stSKdJv9fMbbfSrXV7SylN7+kYsXjQNnZGY0uJqg9AVAT/M
GKAyLW2S5jcc05YuiC69aCdFv5MbOcQBFuut/mJKlTWtykmWADorHtRPKBB3beFK
u6EHuP7Qwbw731NrtHpOcyk4fFQ0mQXU91/MjuWSeY2VqzItkKL2eL5exgfaotGP
cLe+tGd6n2l4HQ0jVQTEwfncMhaIMOzVxYMh5o1UWIARO1Dd2D7SQIo84X9ZpGJ4
sdGCnc11eBUv3IqbUxMieAdPJmXAkq6ReErVNdrcRdogqYUEbkJvgFM+X3fD9ho+
2DqSDzD9GUhBxaSN9xMlBazfYosm3HFMJ5EzUjFq3T8ygTZq3thqNX8fVio+9Er+
yam8vk39mg9CDBELXjysqBpt6D9xOtAzPDHnMDVpe9OBP0PEWT5OthdXdant1xCG
WvtRzDUBU8OeCY1Y8XX2hjql9mgvSwaryQbzsX+t66D6/2tN4CACLhD93OtNp0gL
FG23hbyfAgMBAAGjgcAwgb0wCQYDVR0TBAIwADAdBgNVHQ4EFgQUqwdj6gwLDGk5
0lpjckHtShpDMdgwVAYDVR0jBE0wS4AUh6fFdTcLFGy/RgSMKlLpXdpR3OahHaQb
MBkxFzAVBgNVBAMMDnZwbi5qZW5raW5zLmlvghQIAaptGzFAT3ucdVRUeLU2ZTt8
szATBgNVHSUEDDAKBggrBgEFBQcDATALBgNVHQ8EBAMCBaAwGQYDVR0RBBIwEIIO
dnBuLmplbmtpbnMuaW8wDQYJKoZIhvcNAQELBQADggIBAFjFv5HBDbk4h+blnDfT
zgL1ulTOroJ0ffXIqUXhdbZQurNIHDnch3u93ceoxsT9trabtgRZ5GC8WkZYIz27
48ZVBRbGuPKxwdx5g7TGAzMu5MplzUVKUQ2Szu7tWBC5Zzw9spy4ONiT1PDSPEcw
cOijIzt3ulqW4KJFQ0nU8wwDUCJER7O5FweIgWmliGgiaSuaxP8B/TH4L16KlFuE
Mu2gGCDmO0haBIVet9R0G5DwiRvAJxgNluxbEk3CVDy+O5ctsnOd+GcEhfvjOpot
4hBc8bXJh7LENMczdOadRef5QzwXcQzyWEdoqeYGO4WbiVZgOHlj6DLv8Y4nEYE9
uBwMzw7S3wXQT7XbZEdKUOc44LeFBfa6ANbxecmwshpxmOdlmobUSh3didVB9FTt
+ZKFrOWcGI7l1AVhX17v6AMvdMrhFZLl/Jkr6DhA0kivyyhrGcW+yfn3IdpwzRFF
Ry0B4eZjj0GftQE2STwFZpBv/le+ZZOHRhmQEqjQT1aaZ4aQl5u6e0ZTZFLaws5G
WRkYAYfGAgk3n5imoqZc/AahgQGT2i1RJ4DYyVhSO9IzrqQJXFGjpIircboDPoYR
dIRIjD3NHJxOK9IAxY7dH0N/tpjWAtJRYfubD1pH5G/gtw96hLkeHo4GQF+Wl+PO
+CYRzhyRAGUFD1OC8gW5oGGk
-----END CERTIFICATE-----
