Certificate:
    Data:
        Version: 3 (0x2)
        Serial Number:
            4a:72:f0:13:7d:df:74:0d:fb:c5:39:6a:7d:58:41:0e
        Signature Algorithm: sha256WithRSAEncryption
        Issuer: CN=vpn.jenkins.io
        Validity
            Not Before: Sep  1 11:23:15 2025 GMT
            Not After : Aug 16 11:23:15 2028 GMT
        Subject: CN=atulajoshi
        Subject Public Key Info:
            Public Key Algorithm: rsaEncryption
                Public-Key: (4096 bit)
                Modulus:
                    00:fa:e4:47:5b:b3:09:68:1a:91:11:80:58:69:61:
                    89:dc:2f:33:eb:70:db:22:14:ba:40:99:f3:e2:c4:
                    81:f7:3d:7b:8f:20:5b:5e:c1:76:ff:a6:98:5c:17:
                    1a:2a:63:25:b2:68:97:50:41:5f:54:36:5a:a0:88:
                    ec:8f:7a:2a:96:47:df:1c:0c:2b:1a:e3:63:97:c3:
                    e3:a5:01:27:1a:84:39:d4:02:d5:71:bb:ba:6e:88:
                    f1:b1:8a:97:73:d4:38:1c:2c:5e:0e:91:71:c7:04:
                    8a:3f:15:1a:3f:9a:62:bc:51:48:e9:7f:84:a2:81:
                    c7:5d:41:ec:72:4d:5a:63:34:bf:1c:06:5c:95:f0:
                    c7:f1:af:d8:13:c6:cc:fc:ac:89:f2:44:dd:a6:e8:
                    8c:65:74:83:13:77:19:42:0f:e7:48:ff:3d:cb:b7:
                    60:e1:c5:52:cd:09:3c:55:7c:85:6d:62:6e:cd:57:
                    0a:fc:f8:d7:3c:7f:0a:f8:dd:9e:1f:a2:50:67:26:
                    5c:22:12:7f:e4:87:cd:62:c8:8e:cd:b7:3d:a3:bd:
                    92:69:cb:9e:39:81:98:09:53:24:c2:d7:e6:12:71:
                    85:78:eb:65:da:e0:6d:85:59:73:56:50:6d:90:77:
                    15:a7:be:34:1c:17:bf:a5:39:28:59:a2:70:ba:2f:
                    d2:3d:90:33:b7:38:ed:ee:d4:d6:3f:32:51:71:b1:
                    78:53:b0:cb:13:96:4e:b0:42:e1:f1:a2:82:10:22:
                    59:6e:e0:89:09:f0:f1:42:5a:98:19:67:4d:20:94:
                    df:56:15:bd:d3:c8:61:9a:1a:33:42:39:bd:bf:6e:
                    c7:3e:a8:43:9d:99:de:e1:1b:fc:12:de:38:3d:2f:
                    21:02:00:76:ff:76:28:9c:93:79:29:59:7b:fc:ff:
                    d8:f6:c7:da:0b:26:0a:32:a5:dc:85:f0:d2:7d:b2:
                    3b:14:67:76:4e:7f:37:cf:86:99:0b:0c:78:b7:30:
                    f7:5e:d1:cd:09:2e:f9:88:b3:0b:37:e6:56:a7:b9:
                    dc:f4:56:28:6c:10:02:36:7f:24:26:29:ae:88:ec:
                    b8:ad:2a:88:20:25:97:48:16:a8:7e:72:fd:db:07:
                    23:a8:e6:46:77:51:9b:70:c5:be:9e:a0:a7:54:f9:
                    9e:75:bc:a8:c6:52:1c:aa:dc:a8:63:dc:13:92:ca:
                    27:50:90:1c:17:a1:ce:b3:10:c1:43:02:23:13:2a:
                    f0:72:9a:0f:8d:c0:88:15:df:46:53:dd:69:c7:67:
                    0d:32:53:a2:1a:50:7f:33:85:b4:98:42:b8:ff:f1:
                    53:0d:6f:b9:de:9e:ac:60:68:3c:5d:e9:c3:9c:eb:
                    05:f5:25
                Exponent: 65537 (0x10001)
        X509v3 extensions:
            X509v3 Basic Constraints: 
                CA:FALSE
            X509v3 Subject Key Identifier: 
                4D:10:CA:D5:7E:0F:C7:81:15:73:2A:88:93:D6:A9:37:8A:40:FF:B6
            X509v3 Authority Key Identifier: 
                keyid:87:A7:C5:75:37:0B:14:6C:BF:46:04:8C:2A:52:E9:5D:DA:51:DC:E6
                DirName:/CN=vpn.jenkins.io
                serial:08:01:AA:6D:1B:31:40:4F:7B:9C:75:54:54:78:B5:36:65:3B:7C:B3
            X509v3 Extended Key Usage: 
                TLS Web Client Authentication
            X509v3 Key Usage: 
                Digital Signature
    Signature Algorithm: sha256WithRSAEncryption
    Signature Value:
        20:79:e0:4b:eb:3c:7d:40:a7:c5:be:a7:ee:dd:d9:fe:a4:cb:
        7d:e4:e5:91:a9:13:87:f0:32:32:8f:95:4f:d3:06:22:6f:a4:
        d8:90:a0:90:9a:21:53:8c:3e:28:86:fd:9b:8c:7f:62:4a:5e:
        17:79:60:d1:b4:5d:3f:79:03:50:7e:ef:f1:51:19:bc:9d:d9:
        a0:35:6d:90:72:35:3b:72:f7:2a:8a:dd:fc:cf:7e:53:fa:b7:
        55:e4:16:52:1a:33:0f:f2:0f:64:f1:aa:cb:c0:a1:b9:35:b0:
        e7:13:5d:28:2d:2c:53:c9:f8:c4:d0:38:bc:1f:2b:64:2f:6d:
        1f:eb:41:d1:ba:03:d6:0b:20:16:e5:d9:89:37:3d:69:7d:00:
        ad:f6:c0:83:17:e5:1e:bb:11:f4:a7:99:7f:56:b2:85:7b:15:
        d0:fa:f4:ef:95:1c:c0:c1:85:0d:16:c9:0e:bf:3e:9e:ec:a1:
        a3:a0:9c:c4:85:27:86:57:cf:89:5e:95:b8:45:05:af:f1:0c:
        9d:cc:d2:7f:c4:94:d7:07:fb:ce:69:92:c9:67:e3:d8:29:78:
        de:dc:0d:27:4f:eb:b2:ad:0c:53:f1:11:23:b4:8a:90:37:8f:
        7a:48:0c:2a:27:ee:4a:03:9a:7c:48:d2:14:99:84:45:16:22:
        f1:41:d9:f5:f1:93:67:76:aa:af:e8:ae:bd:5b:21:a8:2b:20:
        37:86:a8:d3:2d:81:28:c5:f7:4f:c1:d4:50:5f:34:a1:b5:c1:
        68:c8:47:7f:f2:d4:d0:01:81:6a:1c:17:b1:fe:5a:30:12:51:
        4b:8d:f6:a1:91:42:57:b2:b7:98:4d:26:2d:8f:73:67:6a:da:
        41:53:5b:77:7e:5a:88:77:d4:a8:f3:33:ac:84:47:5b:95:ff:
        03:41:71:67:63:a2:e5:7d:8e:ab:1e:16:73:7e:05:7e:fa:af:
        73:d6:d7:29:22:6a:3b:a6:24:90:fe:24:c3:11:17:87:68:7d:
        ab:29:21:65:06:d4:47:ae:1e:73:9e:f2:36:6f:44:a2:88:34:
        7d:51:d5:6d:75:74:1d:19:5e:0b:12:4d:4c:23:95:0a:ab:40:
        d2:35:f1:51:35:b4:f5:31:f0:7a:7b:54:73:72:d5:3d:82:11:
        e8:61:a7:ff:d8:f6:01:10:90:2a:02:c9:cd:76:da:02:7f:56:
        04:bd:24:89:c0:f7:c4:c2:b0:75:f3:c9:cb:82:30:1c:f4:2c:
        4d:5a:24:fa:87:3d:94:3f:a7:6e:97:0e:a9:32:af:94:de:91:
        96:a3:51:85:03:49:74:cb:d0:62:9c:5c:0b:b9:6d:c7:0d:cb:
        77:2e:a6:5b:76:67:3d:db
-----BEGIN CERTIFICATE-----
MIIFXjCCA0agAwIBAgIQSnLwE33fdA37xTlqfVhBDjANBgkqhkiG9w0BAQsFADAZ
MRcwFQYDVQQDDA52cG4uamVua2lucy5pbzAeFw0yNTA5MDExMTIzMTVaFw0yODA4
MTYxMTIzMTVaMBUxEzARBgNVBAMMCmF0dWxham9zaGkwggIiMA0GCSqGSIb3DQEB
AQUAA4ICDwAwggIKAoICAQD65EdbswloGpERgFhpYYncLzPrcNsiFLpAmfPixIH3
PXuPIFtewXb/pphcFxoqYyWyaJdQQV9UNlqgiOyPeiqWR98cDCsa42OXw+OlASca
hDnUAtVxu7puiPGxipdz1DgcLF4OkXHHBIo/FRo/mmK8UUjpf4SigcddQexyTVpj
NL8cBlyV8Mfxr9gTxsz8rInyRN2m6IxldIMTdxlCD+dI/z3Lt2DhxVLNCTxVfIVt
Ym7NVwr8+Nc8fwr43Z4folBnJlwiEn/kh81iyI7Ntz2jvZJpy545gZgJUyTC1+YS
cYV462Xa4G2FWXNWUG2QdxWnvjQcF7+lOShZonC6L9I9kDO3OO3u1NY/MlFxsXhT
sMsTlk6wQuHxooIQIllu4IkJ8PFCWpgZZ00glN9WFb3TyGGaGjNCOb2/bsc+qEOd
md7hG/wS3jg9LyECAHb/diick3kpWXv8/9j2x9oLJgoypdyF8NJ9sjsUZ3ZOfzfP
hpkLDHi3MPde0c0JLvmIsws35lanudz0VihsEAI2fyQmKa6I7LitKoggJZdIFqh+
cv3bByOo5kZ3UZtwxb6eoKdU+Z51vKjGUhyq3Khj3BOSyidQkBwXoc6zEMFDAiMT
KvBymg+NwIgV30ZT3WnHZw0yU6IaUH8zhbSYQrj/8VMNb7nenqxgaDxd6cOc6wX1
JQIDAQABo4GlMIGiMAkGA1UdEwQCMAAwHQYDVR0OBBYEFE0QytV+D8eBFXMqiJPW
qTeKQP+2MFQGA1UdIwRNMEuAFIenxXU3CxRsv0YEjCpS6V3aUdzmoR2kGzAZMRcw
FQYDVQQDDA52cG4uamVua2lucy5pb4IUCAGqbRsxQE97nHVUVHi1NmU7fLMwEwYD
VR0lBAwwCgYIKwYBBQUHAwIwCwYDVR0PBAQDAgeAMA0GCSqGSIb3DQEBCwUAA4IC
AQAgeeBL6zx9QKfFvqfu3dn+pMt95OWRqROH8DIyj5VP0wYib6TYkKCQmiFTjD4o
hv2bjH9iSl4XeWDRtF0/eQNQfu/xURm8ndmgNW2QcjU7cvcqit38z35T+rdV5BZS
GjMP8g9k8arLwKG5NbDnE10oLSxTyfjE0Di8HytkL20f60HRugPWCyAW5dmJNz1p
fQCt9sCDF+UeuxH0p5l/VrKFexXQ+vTvlRzAwYUNFskOvz6e7KGjoJzEhSeGV8+J
XpW4RQWv8QydzNJ/xJTXB/vOaZLJZ+PYKXje3A0nT+uyrQxT8REjtIqQN496SAwq
J+5KA5p8SNIUmYRFFiLxQdn18ZNndqqv6K69WyGoKyA3hqjTLYEoxfdPwdRQXzSh
tcFoyEd/8tTQAYFqHBex/lowElFLjfahkUJXsreYTSYtj3NnatpBU1t3flqId9So
8zOshEdblf8DQXFnY6LlfY6rHhZzfgV++q9z1tcpImo7piSQ/iTDEReHaH2rKSFl
BtRHrh5znvI2b0SiiDR9UdVtdXQdGV4LEk1MI5UKq0DSNfFRNbT1MfB6e1RzctU9
ghHoYaf/2PYBEJAqAsnNdtoCf1YEvSSJwPfEwrB188nLgjAc9CxNWiT6hz2UP6du
lw6pMq+U3pGWo1GFA0l0y9BinFwLuW3HDct3LqZbdmc92w==
-----END CERTIFICATE-----
