Certificate:
    Data:
        Version: 3 (0x2)
        Serial Number:
            d8:db:8a:2d:97:7e:5a:45:20:7e:b1:5c:78:a8:0c:6a
    Signature Algorithm: sha256WithRSAEncryption
        Issuer: CN=vpn.jenkins.io
        Validity
            Not Before: May  3 16:36:58 2022 GMT
            Not After : Apr 17 16:36:58 2025 GMT
        Subject: CN=basil
        Subject Public Key Info:
            Public Key Algorithm: rsaEncryption
                Public-Key: (4096 bit)
                Modulus:
                    00:c0:03:a9:c4:25:4f:6e:de:3a:d3:79:b6:7e:3c:
                    96:9e:2f:a9:39:33:a6:36:9b:93:4a:04:35:cb:15:
                    e3:cb:0d:ee:20:b6:02:41:87:e2:c4:62:f4:ce:99:
                    eb:bb:5b:88:f5:4d:3b:e9:a8:1f:7f:3a:ea:bc:a0:
                    fe:f6:49:05:6f:80:db:ff:78:0a:0c:d9:ef:94:e3:
                    fa:d5:2e:1f:ab:08:86:0a:a1:e5:0a:bb:03:93:dd:
                    d3:0a:4d:10:4e:03:94:85:f5:75:14:a4:2b:f0:5b:
                    a7:7e:7b:e5:94:72:d2:7b:82:99:0a:16:39:7b:5c:
                    a8:1d:95:07:59:6a:eb:ca:53:02:16:ec:c0:ba:de:
                    92:76:8a:ef:5b:6f:8f:6a:ba:ad:df:3d:d7:f0:59:
                    3c:37:6c:67:0c:19:e3:b5:4c:fc:37:f1:0f:2a:58:
                    83:fe:ea:5e:86:6a:01:ec:42:bf:2c:1e:68:a5:af:
                    04:d6:c5:d8:0c:f3:00:95:2c:3f:34:8f:22:d0:38:
                    7e:df:c1:c0:39:dc:d2:e3:c7:73:8a:a7:b3:2d:bb:
                    c6:30:4d:57:cb:61:10:89:7d:78:f0:29:58:d4:d5:
                    8a:07:5c:f2:0a:51:20:b6:6b:62:08:45:be:62:cc:
                    1e:51:28:85:93:80:fd:58:ca:b5:b6:dc:aa:79:c1:
                    6a:2d:c3:2d:53:73:65:71:8e:31:38:82:99:4f:44:
                    a1:aa:f2:f6:11:37:09:6e:63:aa:e0:e3:85:fb:9b:
                    8c:d1:c8:99:6d:aa:35:d2:db:8a:da:11:aa:e0:eb:
                    32:0e:3b:e9:b2:62:2e:e2:58:04:b9:43:8f:65:de:
                    90:22:2b:c8:a2:15:b1:ec:e9:eb:3f:d4:bb:78:5f:
                    e0:58:d4:07:e2:cf:dd:4e:06:13:2d:fe:80:29:39:
                    b6:bb:85:dd:60:f9:ca:fd:6d:e0:fd:72:3d:22:dd:
                    6d:21:9e:09:48:c7:75:12:10:86:25:12:59:e3:a9:
                    0d:f5:53:9f:9d:fe:ec:b5:f1:26:bf:7c:e4:9f:fc:
                    90:1b:f2:66:6c:9a:d5:24:9a:4b:58:6d:fc:2f:7d:
                    80:d2:af:2a:24:1e:88:78:bf:1c:9c:25:2a:cc:cb:
                    be:de:5c:24:64:a3:e7:87:74:fd:a8:d0:23:f3:c0:
                    76:92:dd:0d:02:29:7a:54:2f:4c:ec:4a:95:40:10:
                    0c:c3:42:bf:45:19:88:04:54:53:26:29:98:d7:a5:
                    64:53:cb:a6:5e:fc:c5:85:b4:74:2d:bb:d6:15:ce:
                    d7:0a:b8:01:92:55:7b:70:f8:f7:92:9e:9e:46:50:
                    b1:3a:40:cb:c8:5c:8f:4f:d6:f4:e0:1b:f8:7a:97:
                    1a:e9:77
                Exponent: 65537 (0x10001)
        X509v3 extensions:
            X509v3 Basic Constraints: 
                CA:FALSE
            X509v3 Subject Key Identifier: 
                C0:6E:3D:84:A8:58:23:DA:E7:88:50:3B:5C:FF:CB:3C:D2:CB:7E:30
            X509v3 Authority Key Identifier: 
                keyid:87:A7:C5:75:37:0B:14:6C:BF:46:04:8C:2A:52:E9:5D:DA:51:DC:E6
                DirName:/CN=vpn.jenkins.io
                serial:08:01:AA:6D:1B:31:40:4F:7B:9C:75:54:54:78:B5:36:65:3B:7C:B3

            X509v3 Extended Key Usage: 
                TLS Web Client Authentication
            X509v3 Key Usage: 
                Digital Signature
    Signature Algorithm: sha256WithRSAEncryption
         16:5e:ed:41:81:a6:b7:9f:52:0c:74:ef:71:e3:9e:a5:1f:ab:
         39:a8:ef:a6:ec:9f:8e:d8:d0:e2:28:44:e9:49:aa:41:d5:ac:
         59:fd:38:04:6c:10:ab:63:e0:8a:56:4e:94:ba:ff:97:83:93:
         90:5f:39:32:a7:3b:ed:b3:3c:9f:a8:18:e1:cc:af:8a:60:a0:
         d9:68:18:3d:e6:fd:38:85:37:de:84:29:88:c2:33:f2:2d:0c:
         53:0e:6d:75:df:94:f4:97:f5:f3:2b:c3:27:9f:58:f9:9c:13:
         02:54:9c:96:d9:22:2b:3f:1e:60:88:05:88:35:6d:b4:b6:9d:
         cb:c8:65:29:09:b6:d5:3b:2f:bc:ed:2e:42:27:ae:93:05:87:
         73:b3:62:7b:16:21:78:86:61:36:a9:85:e8:18:cf:9e:80:8e:
         07:a2:74:39:ce:8f:32:e4:3d:af:6a:ee:2b:dc:a9:cf:a7:8b:
         22:c2:7a:a6:a2:0c:e7:9e:3e:da:05:cf:ca:41:10:b5:54:1d:
         78:95:23:d4:54:02:5d:49:e7:b5:a9:64:37:9e:ac:3b:60:e0:
         a5:24:9f:bd:86:b4:66:b5:2f:ca:62:1f:52:f8:e3:27:13:b7:
         72:5d:69:07:3e:3f:81:96:b2:22:17:9b:65:be:d8:33:f6:ce:
         f5:82:09:71:5d:d7:b6:bb:fb:c8:12:2d:91:d8:4d:1f:ae:bc:
         7a:69:17:2d:cd:e1:b3:e0:30:16:9b:c9:76:9c:55:b4:8e:aa:
         cb:02:48:8f:fd:3e:75:32:d4:f8:4f:e7:42:78:29:c5:e2:c7:
         46:47:be:45:aa:df:98:9f:cc:36:31:31:84:1a:39:c9:17:6d:
         33:cb:40:4d:ec:41:a3:e2:da:54:57:8d:ff:9b:e5:10:f5:0e:
         62:04:65:0f:1f:d9:00:19:bc:e8:1f:bf:cb:1b:b5:b3:26:c6:
         f2:a2:91:05:7b:3f:93:42:a3:12:b0:da:b6:d3:01:db:59:88:
         b2:1f:82:ff:87:11:f3:f0:2d:5a:6d:f6:5a:3a:44:d4:41:60:
         79:ad:ed:80:a5:d9:6f:98:3d:a7:48:db:90:2e:07:f1:69:22:
         80:9b:c0:35:e3:97:b3:79:0b:01:0b:c2:e3:df:17:53:9c:ff:
         ba:cc:2a:f4:9e:b3:ee:57:32:72:72:30:2d:67:ae:34:a9:c7:
         c2:8d:a1:90:84:1d:1e:61:81:92:ea:67:2f:cb:95:2b:9d:7c:
         dd:f5:fb:02:e6:eb:93:a7:e2:9c:85:3b:5c:dc:ba:67:59:94:
         e6:71:6a:5d:6b:3a:ed:33:2f:39:b2:5c:c2:8e:09:a3:88:d2:
         00:51:0d:ea:7b:4c:10:19
-----BEGIN CERTIFICATE-----
MIIFWjCCA0KgAwIBAgIRANjbii2XflpFIH6xXHioDGowDQYJKoZIhvcNAQELBQAw
GTEXMBUGA1UEAwwOdnBuLmplbmtpbnMuaW8wHhcNMjIwNTAzMTYzNjU4WhcNMjUw
NDE3MTYzNjU4WjAQMQ4wDAYDVQQDDAViYXNpbDCCAiIwDQYJKoZIhvcNAQEBBQAD
ggIPADCCAgoCggIBAMADqcQlT27eOtN5tn48lp4vqTkzpjabk0oENcsV48sN7iC2
AkGH4sRi9M6Z67tbiPVNO+moH3866ryg/vZJBW+A2/94CgzZ75Tj+tUuH6sIhgqh
5Qq7A5Pd0wpNEE4DlIX1dRSkK/Bbp3575ZRy0nuCmQoWOXtcqB2VB1lq68pTAhbs
wLreknaK71tvj2q6rd891/BZPDdsZwwZ47VM/DfxDypYg/7qXoZqAexCvyweaKWv
BNbF2AzzAJUsPzSPItA4ft/BwDnc0uPHc4qnsy27xjBNV8thEIl9ePApWNTVigdc
8gpRILZrYghFvmLMHlEohZOA/VjKtbbcqnnBai3DLVNzZXGOMTiCmU9Eoary9hE3
CW5jquDjhfubjNHImW2qNdLbitoRquDrMg476bJiLuJYBLlDj2XekCIryKIVsezp
6z/Uu3hf4FjUB+LP3U4GEy3+gCk5truF3WD5yv1t4P1yPSLdbSGeCUjHdRIQhiUS
WeOpDfVTn53+7LXxJr985J/8kBvyZmya1SSaS1ht/C99gNKvKiQeiHi/HJwlKszL
vt5cJGSj54d0/ajQI/PAdpLdDQIpelQvTOxKlUAQDMNCv0UZiARUUyYpmNelZFPL
pl78xYW0dC271hXO1wq4AZJVe3D495KenkZQsTpAy8hcj0/W9OAb+HqXGul3AgMB
AAGjgaUwgaIwCQYDVR0TBAIwADAdBgNVHQ4EFgQUwG49hKhYI9rniFA7XP/LPNLL
fjAwVAYDVR0jBE0wS4AUh6fFdTcLFGy/RgSMKlLpXdpR3OahHaQbMBkxFzAVBgNV
BAMMDnZwbi5qZW5raW5zLmlvghQIAaptGzFAT3ucdVRUeLU2ZTt8szATBgNVHSUE
DDAKBggrBgEFBQcDAjALBgNVHQ8EBAMCB4AwDQYJKoZIhvcNAQELBQADggIBABZe
7UGBprefUgx073HjnqUfqzmo76bsn47Y0OIoROlJqkHVrFn9OARsEKtj4IpWTpS6
/5eDk5BfOTKnO+2zPJ+oGOHMr4pgoNloGD3m/TiFN96EKYjCM/ItDFMObXXflPSX
9fMrwyefWPmcEwJUnJbZIis/HmCIBYg1bbS2ncvIZSkJttU7L7ztLkInrpMFh3Oz
YnsWIXiGYTaphegYz56AjgeidDnOjzLkPa9q7ivcqc+niyLCeqaiDOeePtoFz8pB
ELVUHXiVI9RUAl1J57WpZDeerDtg4KUkn72GtGa1L8piH1L44ycTt3JdaQc+P4GW
siIXm2W+2DP2zvWCCXFd17a7+8gSLZHYTR+uvHppFy3N4bPgMBabyXacVbSOqssC
SI/9PnUy1PhP50J4KcXix0ZHvkWq35ifzDYxMYQaOckXbTPLQE3sQaPi2lRXjf+b
5RD1DmIEZQ8f2QAZvOgfv8sbtbMmxvKikQV7P5NCoxKw2rbTAdtZiLIfgv+HEfPw
LVpt9lo6RNRBYHmt7YCl2W+YPadI25AuB/FpIoCbwDXjl7N5CwELwuPfF1Oc/7rM
KvSes+5XMnJyMC1nrjSpx8KNoZCEHR5hgZLqZy/LlSudfN31+wLm65On4pyFO1zc
umdZlOZxal1rOu0zLzmyXMKOCaOI0gBRDep7TBAZ
-----END CERTIFICATE-----
