Certificate:
    Data:
        Version: 3 (0x2)
        Serial Number:
            30:11:c7:e8:1c:67:af:41:be:24:f1:ba:04:df:84:dc
        Signature Algorithm: sha256WithRSAEncryption
        Issuer: CN=vpn.jenkins.io
        Validity
            Not Before: Mar 19 14:12:35 2019 GMT
            Not After : Mar  3 14:12:35 2022 GMT
        Subject: CN=danielbeck
        Subject Public Key Info:
            Public Key Algorithm: rsaEncryption
                RSA Public-Key: (4096 bit)
                Modulus:
                    00:a6:fe:1f:25:45:ca:2d:0d:79:63:e9:c3:b8:83:
                    dc:01:88:08:85:76:23:ab:a8:cc:ef:32:34:bb:da:
                    22:6a:3c:72:b0:af:c7:92:98:9d:04:28:af:54:2a:
                    4f:4a:fc:ca:63:42:fc:8b:1f:c0:5d:54:35:4f:ad:
                    af:04:02:89:c2:f6:91:ce:d4:86:56:8d:c8:18:87:
                    64:24:f9:15:49:1f:69:36:2a:7f:13:b9:6c:d3:c5:
                    b8:8f:c9:31:d9:75:11:cd:e1:d0:a2:2b:af:61:f8:
                    ab:24:4c:88:d7:d0:14:0c:d6:05:e9:bc:6a:f5:b6:
                    d7:05:9b:8b:6a:45:c3:20:bc:21:1d:88:a2:e1:43:
                    8b:a6:c7:bb:40:1e:a5:8b:b0:99:2b:8d:f0:82:2b:
                    b3:1b:b7:ec:99:c5:e4:3e:c8:51:00:e5:9a:41:65:
                    33:35:4d:dd:b9:61:b4:81:bb:ba:fa:af:93:e3:b6:
                    b8:69:01:32:fa:45:ac:4c:86:1b:b2:b7:37:56:71:
                    8e:9f:6a:a6:f7:b4:cf:bb:2f:ab:0a:bf:7f:8b:00:
                    03:44:97:fe:23:a4:18:40:17:1d:a0:d6:56:15:2d:
                    cc:a6:82:eb:ab:d1:ea:ad:2e:44:48:9d:ed:43:f0:
                    df:7a:d0:ed:69:c5:c7:10:c4:f6:69:89:8a:9c:8f:
                    f4:f8:05:36:b9:a7:6b:00:6e:c4:ed:e0:00:7c:d8:
                    b1:04:f6:2f:46:83:a0:77:c3:1b:31:0d:c4:41:51:
                    91:49:09:53:2e:57:35:30:11:89:57:50:e5:99:e2:
                    94:c9:d6:68:20:33:e7:97:7a:9e:52:23:21:67:5c:
                    63:cd:22:f0:0b:78:40:e0:de:87:5d:78:2d:1d:a7:
                    ee:90:7e:e7:58:e8:78:4b:cc:4c:22:e9:2a:0a:96:
                    1b:2c:0c:43:dd:5a:3f:99:5c:1f:af:6e:0d:ca:ca:
                    a9:a3:c5:7e:df:2e:55:00:d9:20:8a:50:29:d2:f9:
                    2a:e0:ad:58:ed:2e:c2:c9:3b:96:49:f7:de:a3:47:
                    c0:d3:c2:50:2f:2c:b3:eb:04:85:5f:39:7e:32:3f:
                    f2:4f:4c:63:0c:f8:8c:e9:5e:d4:a4:11:9c:bd:ac:
                    8c:c7:ac:e2:85:9c:af:d6:97:9a:84:8b:ff:97:f8:
                    7e:6e:91:a5:62:b4:37:07:a9:35:18:90:96:e2:20:
                    2f:67:c8:51:e6:c0:d2:81:12:a2:57:fe:8c:82:d0:
                    b3:e3:53:d9:0e:85:f8:f1:2f:3f:25:6f:9e:a4:7b:
                    c5:17:79:05:33:fd:9d:a3:56:2b:2d:78:85:e0:7f:
                    99:8a:ae:a4:96:07:62:60:b8:e7:9a:28:d9:a8:dd:
                    5b:a0:1d
                Exponent: 65537 (0x10001)
        X509v3 extensions:
            X509v3 Basic Constraints: 
                CA:FALSE
            X509v3 Subject Key Identifier: 
                66:11:CB:98:E8:8F:75:87:E2:75:E8:53:3F:24:A2:5F:E6:81:05:84
            X509v3 Authority Key Identifier: 
                keyid:87:A7:C5:75:37:0B:14:6C:BF:46:04:8C:2A:52:E9:5D:DA:51:DC:E6
                DirName:/CN=vpn.jenkins.io
                serial:08:01:AA:6D:1B:31:40:4F:7B:9C:75:54:54:78:B5:36:65:3B:7C:B3

            X509v3 Extended Key Usage: 
                TLS Web Client Authentication
            X509v3 Key Usage: 
                Digital Signature
    Signature Algorithm: sha256WithRSAEncryption
         7f:39:74:3b:bb:9f:af:0e:6e:41:90:15:25:c2:0a:b0:78:74:
         8a:aa:2b:3c:f2:6f:c6:04:83:92:bc:23:52:9a:6c:c9:1d:49:
         0a:c2:cc:43:03:5e:17:77:17:fa:ff:6f:d3:00:17:0a:ae:6c:
         d5:50:46:49:b8:c3:85:fb:d4:f0:dd:38:f7:41:e4:3b:f7:4c:
         88:c0:57:f5:2c:50:4a:de:6e:40:2a:35:1c:f9:a7:6a:d6:d1:
         47:88:b1:d0:e4:9d:47:cb:21:ec:fa:77:59:a1:2b:f3:2f:67:
         d3:83:a3:f1:0a:88:fd:6e:89:d0:52:87:6b:f2:1d:65:a8:5e:
         13:45:6a:48:0f:b2:24:9a:db:26:4f:30:21:5d:43:32:f7:b6:
         53:3d:de:ed:d4:76:49:08:50:a3:df:a9:56:d3:cb:6f:b9:36:
         78:eb:47:b0:7f:9f:05:b2:6a:cb:82:45:f9:79:41:f9:3a:33:
         84:61:00:c4:1c:52:72:7f:3e:42:31:33:6d:7d:e4:e3:35:25:
         d7:77:66:c2:77:32:e8:e6:11:01:44:8c:f1:c3:b7:b9:6a:9e:
         11:e2:b7:86:e4:e9:06:89:fd:b7:2c:fc:1e:be:d8:26:7a:4d:
         e4:76:4f:59:14:23:af:c4:9f:a2:24:a5:4e:82:d1:dc:b9:80:
         d7:f7:a3:db:14:de:d1:ec:62:a9:66:a8:f9:02:8b:47:96:87:
         eb:5e:da:dd:18:e8:94:a1:68:d5:34:62:16:2d:a6:d2:8e:e4:
         c7:cb:c9:bc:4f:c1:2b:34:6c:0d:9a:dd:10:35:c1:97:17:60:
         91:f0:53:77:2c:47:89:34:98:d5:a2:0e:db:cf:50:4f:b1:4c:
         09:33:d3:7d:6c:58:83:0e:95:64:a3:cf:04:12:bc:0c:3c:e1:
         4a:73:e4:90:01:a8:5f:ab:b2:ce:d1:40:a5:e5:93:34:b2:2d:
         2d:a1:0b:5d:db:47:79:4b:08:d9:fd:cb:63:63:0d:04:c7:d1:
         28:0f:8a:72:6d:41:ac:0e:a3:6b:e0:df:64:57:35:c7:e9:87:
         c9:3f:a1:c2:94:48:1e:a4:dc:c9:e9:d5:9a:6a:57:da:ee:69:
         23:2c:47:70:df:50:2e:d5:30:d8:4c:51:a9:91:9d:0b:d2:df:
         97:aa:8a:51:02:1f:eb:75:01:75:fb:29:0b:33:55:cd:7c:48:
         3d:c8:d7:cf:08:fa:fd:f7:c1:ce:93:39:d8:84:7f:cc:48:d7:
         bb:7a:8a:0d:3e:ad:65:0e:e0:74:03:2f:a0:73:fa:98:0a:6a:
         2c:1b:d6:44:bd:47:a2:7f:f8:4d:f3:2a:0c:9e:31:4c:e3:12:
         5c:9e:52:24:3c:79:e8:96
-----BEGIN CERTIFICATE-----
MIIFXjCCA0agAwIBAgIQMBHH6Bxnr0G+JPG6BN+E3DANBgkqhkiG9w0BAQsFADAZ
MRcwFQYDVQQDDA52cG4uamVua2lucy5pbzAeFw0xOTAzMTkxNDEyMzVaFw0yMjAz
MDMxNDEyMzVaMBUxEzARBgNVBAMMCmRhbmllbGJlY2swggIiMA0GCSqGSIb3DQEB
AQUAA4ICDwAwggIKAoICAQCm/h8lRcotDXlj6cO4g9wBiAiFdiOrqMzvMjS72iJq
PHKwr8eSmJ0EKK9UKk9K/MpjQvyLH8BdVDVPra8EAonC9pHO1IZWjcgYh2Qk+RVJ
H2k2Kn8TuWzTxbiPyTHZdRHN4dCiK69h+KskTIjX0BQM1gXpvGr1ttcFm4tqRcMg
vCEdiKLhQ4umx7tAHqWLsJkrjfCCK7Mbt+yZxeQ+yFEA5ZpBZTM1Td25YbSBu7r6
r5PjtrhpATL6RaxMhhuytzdWcY6faqb3tM+7L6sKv3+LAANEl/4jpBhAFx2g1lYV
Lcymguur0eqtLkRIne1D8N960O1pxccQxPZpiYqcj/T4BTa5p2sAbsTt4AB82LEE
9i9Gg6B3wxsxDcRBUZFJCVMuVzUwEYlXUOWZ4pTJ1mggM+eXep5SIyFnXGPNIvAL
eEDg3oddeC0dp+6QfudY6HhLzEwi6SoKlhssDEPdWj+ZXB+vbg3KyqmjxX7fLlUA
2SCKUCnS+SrgrVjtLsLJO5ZJ996jR8DTwlAvLLPrBIVfOX4yP/JPTGMM+IzpXtSk
EZy9rIzHrOKFnK/Wl5qEi/+X+H5ukaVitDcHqTUYkJbiIC9nyFHmwNKBEqJX/oyC
0LPjU9kOhfjxLz8lb56ke8UXeQUz/Z2jVisteIXgf5mKrqSWB2JguOeaKNmo3Vug
HQIDAQABo4GlMIGiMAkGA1UdEwQCMAAwHQYDVR0OBBYEFGYRy5joj3WH4nXoUz8k
ol/mgQWEMFQGA1UdIwRNMEuAFIenxXU3CxRsv0YEjCpS6V3aUdzmoR2kGzAZMRcw
FQYDVQQDDA52cG4uamVua2lucy5pb4IUCAGqbRsxQE97nHVUVHi1NmU7fLMwEwYD
VR0lBAwwCgYIKwYBBQUHAwIwCwYDVR0PBAQDAgeAMA0GCSqGSIb3DQEBCwUAA4IC
AQB/OXQ7u5+vDm5BkBUlwgqweHSKqis88m/GBIOSvCNSmmzJHUkKwsxDA14Xdxf6
/2/TABcKrmzVUEZJuMOF+9Tw3Tj3QeQ790yIwFf1LFBK3m5AKjUc+adq1tFHiLHQ
5J1HyyHs+ndZoSvzL2fTg6PxCoj9bonQUodr8h1lqF4TRWpID7IkmtsmTzAhXUMy
97ZTPd7t1HZJCFCj36lW08tvuTZ460ewf58FsmrLgkX5eUH5OjOEYQDEHFJyfz5C
MTNtfeTjNSXXd2bCdzLo5hEBRIzxw7e5ap4R4reG5OkGif23LPwevtgmek3kdk9Z
FCOvxJ+iJKVOgtHcuYDX96PbFN7R7GKpZqj5AotHlofrXtrdGOiUoWjVNGIWLabS
juTHy8m8T8ErNGwNmt0QNcGXF2CR8FN3LEeJNJjVog7bz1BPsUwJM9N9bFiDDpVk
o88EErwMPOFKc+SQAahfq7LO0UCl5ZM0si0toQtd20d5SwjZ/ctjYw0Ex9EoD4py
bUGsDqNr4N9kVzXH6YfJP6HClEgepNzJ6dWaalfa7mkjLEdw31Au1TDYTFGpkZ0L
0t+XqopRAh/rdQF1+ykLM1XNfEg9yNfPCPr998HOkznYhH/MSNe7eooNPq1lDuB0
Ay+gc/qYCmosG9ZEvUeif/hN8yoMnjFM4xJcnlIkPHnolg==
-----END CERTIFICATE-----
