Certificate:
    Data:
        Version: 3 (0x2)
        Serial Number:
            72:06:79:56:c3:f9:47:20:ed:c2:2f:3a:19:4b:44:ba
    Signature Algorithm: sha256WithRSAEncryption
        Issuer: CN=vpn.jenkins.io
        Validity
            Not Before: Oct 13 09:01:13 2021 GMT
            Not After : Sep 27 09:01:13 2024 GMT
        Subject: CN=hlemeur
        Subject Public Key Info:
            Public Key Algorithm: rsaEncryption
                Public-Key: (4096 bit)
                Modulus:
                    00:c3:5c:d3:b8:15:cf:6c:de:1a:ba:7e:95:e9:ca:
                    71:4e:30:c9:05:31:19:13:13:48:3c:fd:44:bc:fe:
                    b8:13:be:05:94:ea:f0:b9:71:46:5b:19:21:56:13:
                    0c:ea:30:3a:6c:2e:d2:2e:99:72:5c:e6:ed:ac:40:
                    a6:1b:0f:79:73:45:57:5b:16:8f:e6:43:40:60:dc:
                    4a:c2:94:94:16:1b:a2:97:63:12:18:84:be:67:3d:
                    4a:2e:e8:20:da:43:55:cb:81:89:e8:da:37:5a:50:
                    f4:77:a2:88:0f:05:1c:7c:67:75:ed:48:47:c5:d8:
                    01:30:93:67:42:c3:79:e9:b0:5a:70:f2:48:1d:49:
                    60:65:99:66:1c:5a:4f:e7:06:d1:a4:80:33:6b:19:
                    57:b4:b1:de:9a:ef:bd:af:fb:19:4e:95:49:43:cf:
                    bb:3a:c2:c2:35:c2:f6:ab:10:26:32:68:c1:0b:e1:
                    0f:30:07:80:a4:c1:94:30:4c:24:5d:97:b9:65:f0:
                    dd:8a:ba:03:13:3c:39:33:0a:bb:d6:13:00:1f:4c:
                    18:60:6f:77:7a:b9:8c:2e:88:0d:92:4a:f5:9e:e8:
                    9a:7b:89:eb:4e:54:cb:a0:4d:ea:e3:db:13:c3:1e:
                    6a:38:5b:f3:ed:7d:39:83:46:ff:5f:38:d4:25:5e:
                    f0:22:71:fb:8f:3d:82:29:1f:1a:fc:cf:1e:8d:e1:
                    f1:b8:c4:07:54:2e:bc:ca:27:5e:e2:30:b2:ff:ab:
                    e2:e1:d1:5b:c8:57:62:7f:b2:54:65:91:37:1d:0f:
                    95:b7:01:17:0b:3a:42:96:f6:b7:bd:11:60:ab:13:
                    33:72:87:28:dc:95:93:e9:96:60:12:8d:1b:82:42:
                    75:86:63:54:4d:c2:97:c8:a1:40:28:1b:f5:44:60:
                    31:1a:31:08:51:41:58:74:4c:69:f5:d4:f4:66:5b:
                    70:e5:e3:80:d9:48:12:30:b9:76:8b:f6:2f:5f:a0:
                    cf:23:fc:2c:fd:af:2a:88:bb:66:26:15:b9:9d:d5:
                    cb:0a:3d:a6:3b:6e:ee:d2:d9:b2:54:3b:2f:64:5e:
                    bc:8e:36:ed:aa:5d:d8:30:60:f5:77:48:fb:ee:44:
                    7d:b7:66:2e:00:46:33:9c:9f:25:46:76:92:f7:fb:
                    05:2e:83:cb:7f:cb:86:4d:70:69:19:10:72:13:7c:
                    50:81:5c:2f:20:8d:01:86:91:0a:2f:83:0e:a9:77:
                    7e:22:a6:fe:fc:d3:97:7e:a4:ce:a1:50:67:48:b7:
                    42:b7:35:28:25:91:42:43:6f:7f:84:1a:cc:de:ed:
                    f9:07:6c:0f:64:32:64:32:0f:13:54:08:f5:07:21:
                    9e:d0:df
                Exponent: 65537 (0x10001)
        X509v3 extensions:
            X509v3 Basic Constraints: 
                CA:FALSE
            X509v3 Subject Key Identifier: 
                2A:7B:7D:A3:95:3C:6D:59:63:2B:37:CC:58:25:8F:7C:7A:64:A8:8F
            X509v3 Authority Key Identifier: 
                keyid:87:A7:C5:75:37:0B:14:6C:BF:46:04:8C:2A:52:E9:5D:DA:51:DC:E6
                DirName:/CN=vpn.jenkins.io
                serial:08:01:AA:6D:1B:31:40:4F:7B:9C:75:54:54:78:B5:36:65:3B:7C:B3

            X509v3 Extended Key Usage: 
                TLS Web Client Authentication
            X509v3 Key Usage: 
                Digital Signature
    Signature Algorithm: sha256WithRSAEncryption
         5f:7a:3a:d8:12:d8:fe:50:b4:68:57:75:da:09:5c:b0:a5:68:
         f7:8d:89:60:89:91:a8:f3:18:2e:70:3e:29:59:5c:f5:01:36:
         43:6d:82:07:fa:65:ff:87:4d:12:22:e8:cd:d9:54:bd:d3:48:
         66:78:88:9e:62:85:57:67:22:b4:99:ef:78:83:af:f3:ab:f8:
         64:28:54:01:01:ec:35:fe:6c:76:4e:5f:f8:31:1c:dd:bf:69:
         e4:37:e0:47:5e:9d:45:06:de:3a:00:70:16:ef:3f:00:11:e9:
         95:12:09:a2:24:f9:e1:e6:0b:bf:ab:69:34:05:4e:2a:89:bd:
         63:54:d2:a9:1b:9b:89:11:17:2b:49:8b:aa:5f:a7:6a:95:ea:
         ec:82:ec:c2:e5:21:ce:a6:7d:1c:b0:8e:85:f8:7c:11:6a:99:
         86:81:f0:5b:5a:61:20:40:3a:89:fa:a7:40:db:38:3f:d3:17:
         d1:d5:c2:f5:ea:84:59:96:c3:ab:93:b8:d0:bb:6b:4c:9a:c2:
         91:23:a4:ab:e5:00:f9:98:06:ba:bb:da:3b:84:ba:84:49:88:
         31:4b:51:ce:a5:ba:bd:6f:19:e8:a8:cb:38:d2:29:80:21:0c:
         c4:90:35:d0:ee:ab:b6:2c:44:59:30:03:91:15:00:9d:84:4d:
         dd:08:50:e7:b6:6c:3d:ad:e5:3f:27:dc:d9:b7:3a:89:a1:7a:
         58:0e:12:d1:7c:56:92:d9:87:f8:e1:6b:b4:e5:f0:40:00:8d:
         e5:39:ef:68:1b:96:79:c7:b2:83:76:29:6f:c1:83:93:b7:f1:
         b8:47:4c:82:8c:40:3b:4b:07:b4:f7:42:6b:e0:cb:3e:11:e0:
         5b:af:d7:a3:a5:9b:35:5d:0e:e6:c3:0c:00:fa:a7:15:94:5d:
         4b:d4:ca:20:fd:ca:55:19:3d:92:a8:21:17:ef:ce:d9:6a:c1:
         cc:32:86:9f:38:9f:f5:e7:a3:b6:07:10:79:02:38:5e:86:d4:
         46:3e:38:29:81:bd:88:7f:95:0f:f1:af:9f:f0:90:4d:8e:d8:
         82:92:fc:c5:d9:a7:4e:e4:66:44:a9:74:39:00:af:24:e2:86:
         fa:d2:93:24:cc:e2:b1:a1:cb:e8:0a:46:d7:69:e0:dd:1a:75:
         c1:b8:65:37:48:8b:ab:95:3e:07:ce:1a:e6:a7:6c:cf:7d:53:
         92:32:47:1d:38:bd:e0:fb:95:54:49:e3:14:3d:a2:c5:fa:a3:
         8a:ed:c5:74:b7:41:5d:ed:e0:89:c2:82:8c:ce:49:1c:88:12:
         94:7e:df:45:59:ae:63:7a:55:49:66:16:2b:78:da:da:c2:ad:
         03:99:f7:d6:c7:49:07:ac
-----BEGIN CERTIFICATE-----
MIIFWzCCA0OgAwIBAgIQcgZ5VsP5RyDtwi86GUtEujANBgkqhkiG9w0BAQsFADAZ
MRcwFQYDVQQDDA52cG4uamVua2lucy5pbzAeFw0yMTEwMTMwOTAxMTNaFw0yNDA5
MjcwOTAxMTNaMBIxEDAOBgNVBAMMB2hsZW1ldXIwggIiMA0GCSqGSIb3DQEBAQUA
A4ICDwAwggIKAoICAQDDXNO4Fc9s3hq6fpXpynFOMMkFMRkTE0g8/US8/rgTvgWU
6vC5cUZbGSFWEwzqMDpsLtIumXJc5u2sQKYbD3lzRVdbFo/mQ0Bg3ErClJQWG6KX
YxIYhL5nPUou6CDaQ1XLgYno2jdaUPR3oogPBRx8Z3XtSEfF2AEwk2dCw3npsFpw
8kgdSWBlmWYcWk/nBtGkgDNrGVe0sd6a772v+xlOlUlDz7s6wsI1wvarECYyaMEL
4Q8wB4CkwZQwTCRdl7ll8N2KugMTPDkzCrvWEwAfTBhgb3d6uYwuiA2SSvWe6Jp7
ietOVMugTerj2xPDHmo4W/PtfTmDRv9fONQlXvAicfuPPYIpHxr8zx6N4fG4xAdU
LrzKJ17iMLL/q+Lh0VvIV2J/slRlkTcdD5W3ARcLOkKW9re9EWCrEzNyhyjclZPp
lmASjRuCQnWGY1RNwpfIoUAoG/VEYDEaMQhRQVh0TGn11PRmW3Dl44DZSBIwuXaL
9i9foM8j/Cz9ryqIu2YmFbmd1csKPaY7bu7S2bJUOy9kXryONu2qXdgwYPV3SPvu
RH23Zi4ARjOcnyVGdpL3+wUug8t/y4ZNcGkZEHITfFCBXC8gjQGGkQovgw6pd34i
pv7805d+pM6hUGdIt0K3NSglkUJDb3+EGsze7fkHbA9kMmQyDxNUCPUHIZ7Q3wID
AQABo4GlMIGiMAkGA1UdEwQCMAAwHQYDVR0OBBYEFCp7faOVPG1ZYys3zFglj3x6
ZKiPMFQGA1UdIwRNMEuAFIenxXU3CxRsv0YEjCpS6V3aUdzmoR2kGzAZMRcwFQYD
VQQDDA52cG4uamVua2lucy5pb4IUCAGqbRsxQE97nHVUVHi1NmU7fLMwEwYDVR0l
BAwwCgYIKwYBBQUHAwIwCwYDVR0PBAQDAgeAMA0GCSqGSIb3DQEBCwUAA4ICAQBf
ejrYEtj+ULRoV3XaCVywpWj3jYlgiZGo8xgucD4pWVz1ATZDbYIH+mX/h00SIujN
2VS900hmeIieYoVXZyK0me94g6/zq/hkKFQBAew1/mx2Tl/4MRzdv2nkN+BHXp1F
Bt46AHAW7z8AEemVEgmiJPnh5gu/q2k0BU4qib1jVNKpG5uJERcrSYuqX6dqlers
guzC5SHOpn0csI6F+HwRapmGgfBbWmEgQDqJ+qdA2zg/0xfR1cL16oRZlsOrk7jQ
u2tMmsKRI6Sr5QD5mAa6u9o7hLqESYgxS1HOpbq9bxnoqMs40imAIQzEkDXQ7qu2
LERZMAORFQCdhE3dCFDntmw9reU/J9zZtzqJoXpYDhLRfFaS2Yf44Wu05fBAAI3l
Oe9oG5Z5x7KDdilvwYOTt/G4R0yCjEA7Swe090Jr4Ms+EeBbr9ejpZs1XQ7mwwwA
+qcVlF1L1Mog/cpVGT2SqCEX787ZasHMMoafOJ/156O2BxB5AjhehtRGPjgpgb2I
f5UP8a+f8JBNjtiCkvzF2adO5GZEqXQ5AK8k4ob60pMkzOKxocvoCkbXaeDdGnXB
uGU3SIurlT4Hzhrmp2zPfVOSMkcdOL3g+5VUSeMUPaLF+qOK7cV0t0Fd7eCJwoKM
zkkciBKUft9FWa5jelVJZhYreNrawq0DmffWx0kHrA==
-----END CERTIFICATE-----
