Certificate:
    Data:
        Version: 3 (0x2)
        Serial Number:
            1e:9c:c4:54:a6:b1:a3:e9:d3:43:21:d8:c4:e4:10:0d
        Signature Algorithm: sha256WithRSAEncryption
        Issuer: CN=vpn.jenkins.io
        Validity
            Not Before: Sep 15 16:44:59 2025 GMT
            Not After : Aug 30 16:44:59 2028 GMT
        Subject: CN=hlemeur
        Subject Public Key Info:
            Public Key Algorithm: rsaEncryption
                Public-Key: (4096 bit)
                Modulus:
                    00:96:df:0f:cc:4c:49:bc:a1:33:b7:00:99:59:90:
                    6b:a7:27:0b:ea:25:78:f7:f9:ca:89:a1:dc:b5:13:
                    aa:01:b5:9c:9f:e2:c1:3d:5b:57:fb:fd:4a:2e:b4:
                    f3:80:1f:40:81:d7:c3:c6:d8:61:62:5f:92:62:b0:
                    a5:ac:9d:b5:64:4f:d3:ac:c7:6b:cf:fb:2c:57:79:
                    c1:a9:7d:f2:b1:7d:a6:37:db:38:bd:b6:ea:d8:19:
                    61:60:6c:d8:db:71:2b:1f:8e:fc:d9:68:51:d9:e0:
                    82:51:c4:4a:18:ca:4c:0e:d5:98:ac:7b:f9:6e:8d:
                    e4:e1:90:3b:0b:25:16:9b:aa:7b:57:90:fc:66:3b:
                    fb:54:f6:b1:7b:43:b4:cb:a0:1b:62:27:fd:c0:f2:
                    d8:7a:3d:1c:4e:8c:b3:a7:e4:99:2c:9b:a4:95:1e:
                    91:6d:b9:b7:37:dc:99:72:c9:49:98:3c:ef:2d:0e:
                    c3:ff:07:46:f8:ca:35:df:bf:17:d5:18:22:c5:c7:
                    af:2a:71:d8:e7:2c:15:76:b0:8b:40:e2:a0:89:c9:
                    8f:dd:bd:47:2b:20:a5:45:b5:1b:f0:36:0d:91:4a:
                    7f:37:89:10:90:a8:37:83:af:7e:d2:52:a9:60:1a:
                    06:41:29:7f:6b:e5:2e:e2:44:ea:7c:8a:ad:96:f4:
                    2b:bb:8f:09:04:fb:64:f9:9b:e5:69:8b:ef:a4:ed:
                    6c:83:fd:2f:b8:61:8a:a8:b4:e2:6e:a4:fb:61:19:
                    6c:55:45:b2:49:eb:31:4f:aa:d7:30:40:25:75:a7:
                    b7:aa:72:1f:b6:be:06:e6:52:91:4b:b0:9b:ce:25:
                    fc:a8:e9:2c:06:f4:e6:53:89:03:9a:42:95:2b:d5:
                    08:97:9e:ed:42:78:32:a7:3a:0f:c1:dd:f7:3b:c1:
                    0e:90:bb:29:6a:2c:87:8c:f0:c7:a0:06:dd:61:a5:
                    5f:7f:0f:32:ce:c4:4d:ad:98:af:fa:ba:e4:ed:10:
                    76:2d:83:92:81:45:63:a3:7a:24:e8:fc:cc:c2:77:
                    c6:84:8f:71:0a:39:5b:3f:e5:f8:8d:97:15:2a:bb:
                    2d:02:11:fa:e8:c8:73:1f:35:b9:18:d0:03:86:14:
                    8d:ec:f3:eb:68:2d:7d:d4:95:38:7e:dd:5a:58:71:
                    d5:c3:df:82:45:e9:f0:f9:a6:f9:e1:bd:73:cb:99:
                    ff:2e:da:d0:b4:1f:82:96:e8:3b:bc:76:80:0c:e5:
                    ef:0b:f8:12:a7:ab:e9:0b:e6:e6:65:25:71:d5:c4:
                    c1:e7:d1:fc:97:28:ef:bd:4e:9b:48:36:19:b2:cd:
                    53:88:90:71:83:e6:67:f3:1b:a4:7e:eb:d2:c6:2f:
                    d7:d4:39
                Exponent: 65537 (0x10001)
        X509v3 extensions:
            X509v3 Basic Constraints: 
                CA:FALSE
            X509v3 Subject Key Identifier: 
                E6:63:1F:D2:4D:FA:E6:A0:71:86:06:3A:1B:D2:09:A4:34:90:BF:B7
            X509v3 Authority Key Identifier: 
                keyid:87:A7:C5:75:37:0B:14:6C:BF:46:04:8C:2A:52:E9:5D:DA:51:DC:E6
                DirName:/CN=vpn.jenkins.io
                serial:08:01:AA:6D:1B:31:40:4F:7B:9C:75:54:54:78:B5:36:65:3B:7C:B3
            X509v3 Extended Key Usage: 
                TLS Web Client Authentication
            X509v3 Key Usage: 
                Digital Signature
    Signature Algorithm: sha256WithRSAEncryption
    Signature Value:
        48:85:f9:22:c3:86:c1:d5:f2:fb:e9:cb:68:67:62:bc:f6:19:
        c3:6f:50:a0:7e:ae:3a:63:5f:87:b5:1c:7a:0b:95:d1:7d:da:
        a5:a2:71:be:5a:f4:4b:cb:00:0b:91:72:28:b2:7e:4a:30:76:
        27:bf:79:7b:74:e0:16:3b:78:73:c1:ef:0a:7d:54:91:69:f3:
        3a:1f:55:2a:fd:8b:22:47:2e:47:b6:00:72:5d:56:2f:4c:07:
        a1:bf:9a:9e:ec:82:bc:2a:05:b0:46:ff:48:bb:51:43:8a:27:
        e1:4a:3a:ab:d5:e1:a2:77:8c:8a:ef:d0:95:54:24:32:22:a4:
        01:b2:15:33:aa:01:94:0e:f5:73:cd:56:96:f7:b0:66:57:26:
        9c:1d:ec:cd:3a:4c:87:ff:d0:71:3f:c6:9c:e9:a7:78:33:47:
        30:48:b6:65:74:76:9d:22:cf:cc:43:a3:3d:1f:03:e1:9d:18:
        97:cf:98:6c:bf:09:d6:dd:ec:9e:c3:58:d8:3d:1b:65:ae:a1:
        ad:37:e6:dd:2f:cb:ee:c1:cc:29:38:33:72:12:e8:8c:8a:89:
        ad:f9:09:07:f7:f9:fd:27:62:0d:88:56:6d:82:8a:02:8b:9f:
        94:eb:ea:e5:40:9f:a7:14:1e:30:5e:d3:60:c5:03:5b:3f:19:
        b5:86:f1:ad:5e:fd:de:9f:70:dd:d7:ec:16:6a:82:29:93:d6:
        69:12:d4:bd:51:d0:09:fe:55:4e:68:51:fe:05:1c:34:14:8a:
        1b:bc:01:7a:e2:8e:f9:30:76:21:6d:54:99:e7:bf:6f:8d:f0:
        f7:45:c8:02:9d:9c:da:51:a0:3c:3c:3d:31:19:d6:8e:ec:85:
        1a:e7:63:4e:77:94:8d:ad:e0:8c:a9:72:63:b0:11:ee:cf:44:
        72:cf:64:f6:13:7a:90:b0:01:4e:04:49:a0:b9:c1:26:39:b0:
        1b:b8:c5:35:86:5f:fc:58:68:d4:40:92:2b:eb:3e:3a:d6:5c:
        64:d3:78:58:70:6e:db:59:4c:04:b3:e9:3c:8f:1c:83:54:52:
        cd:34:60:43:3c:bb:1c:63:ad:11:f4:d2:2c:e3:cb:8a:31:e7:
        b5:0a:e9:53:f8:de:84:e4:a9:c9:65:23:5b:60:e0:88:e8:b9:
        8a:a0:96:e6:0c:bb:ad:6f:41:13:b5:5e:2e:f9:60:6a:54:e4:
        d8:c2:4c:f5:32:b3:86:92:d5:b3:05:53:9a:9e:c0:85:9e:f0:
        05:98:48:62:65:2e:b6:e9:66:80:ac:2e:8b:28:84:01:3d:9a:
        4a:aa:a4:14:06:8d:42:70:5c:3d:f0:4c:d3:08:77:e1:08:7e:
        73:a4:83:b4:1b:d2:fb:b4
-----BEGIN CERTIFICATE-----
MIIFWzCCA0OgAwIBAgIQHpzEVKaxo+nTQyHYxOQQDTANBgkqhkiG9w0BAQsFADAZ
MRcwFQYDVQQDDA52cG4uamVua2lucy5pbzAeFw0yNTA5MTUxNjQ0NTlaFw0yODA4
MzAxNjQ0NTlaMBIxEDAOBgNVBAMMB2hsZW1ldXIwggIiMA0GCSqGSIb3DQEBAQUA
A4ICDwAwggIKAoICAQCW3w/MTEm8oTO3AJlZkGunJwvqJXj3+cqJody1E6oBtZyf
4sE9W1f7/UoutPOAH0CB18PG2GFiX5JisKWsnbVkT9Osx2vP+yxXecGpffKxfaY3
2zi9turYGWFgbNjbcSsfjvzZaFHZ4IJRxEoYykwO1Zise/lujeThkDsLJRabqntX
kPxmO/tU9rF7Q7TLoBtiJ/3A8th6PRxOjLOn5Jksm6SVHpFtubc33JlyyUmYPO8t
DsP/B0b4yjXfvxfVGCLFx68qcdjnLBV2sItA4qCJyY/dvUcrIKVFtRvwNg2RSn83
iRCQqDeDr37SUqlgGgZBKX9r5S7iROp8iq2W9Cu7jwkE+2T5m+Vpi++k7WyD/S+4
YYqotOJupPthGWxVRbJJ6zFPqtcwQCV1p7eqch+2vgbmUpFLsJvOJfyo6SwG9OZT
iQOaQpUr1QiXnu1CeDKnOg/B3fc7wQ6QuylqLIeM8MegBt1hpV9/DzLOxE2tmK/6
uuTtEHYtg5KBRWOjeiTo/MzCd8aEj3EKOVs/5fiNlxUquy0CEfroyHMfNbkY0AOG
FI3s8+toLX3UlTh+3VpYcdXD34JF6fD5pvnhvXPLmf8u2tC0H4KW6Du8doAM5e8L
+BKnq+kL5uZlJXHVxMHn0fyXKO+9TptINhmyzVOIkHGD5mfzG6R+69LGL9fUOQID
AQABo4GlMIGiMAkGA1UdEwQCMAAwHQYDVR0OBBYEFOZjH9JN+uagcYYGOhvSCaQ0
kL+3MFQGA1UdIwRNMEuAFIenxXU3CxRsv0YEjCpS6V3aUdzmoR2kGzAZMRcwFQYD
VQQDDA52cG4uamVua2lucy5pb4IUCAGqbRsxQE97nHVUVHi1NmU7fLMwEwYDVR0l
BAwwCgYIKwYBBQUHAwIwCwYDVR0PBAQDAgeAMA0GCSqGSIb3DQEBCwUAA4ICAQBI
hfkiw4bB1fL76ctoZ2K89hnDb1Cgfq46Y1+HtRx6C5XRfdqlonG+WvRLywALkXIo
sn5KMHYnv3l7dOAWO3hzwe8KfVSRafM6H1Uq/YsiRy5HtgByXVYvTAehv5qe7IK8
KgWwRv9Iu1FDiifhSjqr1eGid4yK79CVVCQyIqQBshUzqgGUDvVzzVaW97BmVyac
HezNOkyH/9BxP8ac6ad4M0cwSLZldHadIs/MQ6M9HwPhnRiXz5hsvwnW3eyew1jY
PRtlrqGtN+bdL8vuwcwpODNyEuiMiomt+QkH9/n9J2INiFZtgooCi5+U6+rlQJ+n
FB4wXtNgxQNbPxm1hvGtXv3en3Dd1+wWaoIpk9ZpEtS9UdAJ/lVOaFH+BRw0FIob
vAF64o75MHYhbVSZ579vjfD3RcgCnZzaUaA8PD0xGdaO7IUa52NOd5SNreCMqXJj
sBHuz0Ryz2T2E3qQsAFOBEmgucEmObAbuMU1hl/8WGjUQJIr6z461lxk03hYcG7b
WUwEs+k8jxyDVFLNNGBDPLscY60R9NIs48uKMee1CulT+N6E5KnJZSNbYOCI6LmK
oJbmDLutb0ETtV4u+WBqVOTYwkz1MrOGktWzBVOansCFnvAFmEhiZS626WaArC6L
KIQBPZpKqqQUBo1CcFw98EzTCHfhCH5zpIO0G9L7tA==
-----END CERTIFICATE-----
