Certificate:
    Data:
        Version: 3 (0x2)
        Serial Number:
            42:c9:8b:07:bb:3a:27:c4:cb:63:8f:38:28:5e:7e:a6
        Signature Algorithm: sha256WithRSAEncryption
        Issuer: CN=vpn.jenkins.io
        Validity
            Not Before: Mar 28 08:55:51 2019 GMT
            Not After : Mar 12 08:55:51 2022 GMT
        Subject: CN=jthompson
        Subject Public Key Info:
            Public Key Algorithm: rsaEncryption
                RSA Public-Key: (4096 bit)
                Modulus:
                    00:e6:f0:ea:41:f5:53:6c:46:32:01:f0:a8:54:21:
                    28:8a:68:d2:6c:ba:48:e5:9d:0d:89:4f:c6:39:1c:
                    ce:f2:ba:9e:ab:77:2c:4c:08:3e:58:81:ea:6d:42:
                    26:d3:44:bc:78:88:e7:f9:02:8f:45:2c:ac:d2:c4:
                    26:d1:c9:4f:02:de:e9:29:4e:04:12:ef:52:eb:db:
                    f2:1f:3c:c4:24:bf:ba:e9:78:4e:bb:72:01:3a:c4:
                    f9:d9:72:1a:3c:bf:39:80:0e:49:bc:3f:d5:3b:d5:
                    70:70:88:32:8c:26:46:ce:45:0d:cd:bf:9e:04:87:
                    95:c8:df:80:4a:71:af:5f:55:07:ea:18:3e:df:dc:
                    8d:7c:0c:9c:d3:ea:37:df:f3:14:5a:58:c2:91:40:
                    f7:c4:38:fa:eb:e3:01:11:a7:44:56:bd:6d:c2:fa:
                    d7:bd:cb:7c:e8:91:75:01:d3:30:3d:cb:bd:6d:2c:
                    d1:d5:f8:d0:af:e1:a1:5f:d7:4d:58:e2:32:7d:ed:
                    f5:7a:03:5f:a8:07:c0:12:08:a2:c6:41:41:4f:8b:
                    79:48:ef:92:a9:55:f4:e6:95:f4:82:b2:0e:92:ab:
                    5f:6f:79:19:7c:c9:6e:57:a5:15:e4:f1:49:19:ca:
                    dd:a0:87:a3:54:78:4e:e7:a1:5a:c6:cd:40:f4:53:
                    ef:95:75:13:70:1b:c2:a9:0e:92:5a:4a:78:97:b3:
                    16:a4:fd:d2:6c:65:15:a0:6e:42:d3:97:0f:ec:89:
                    c2:e7:b5:a8:c8:50:6b:79:74:59:5b:2f:02:12:3c:
                    27:9d:34:ea:93:dc:ab:41:88:d6:eb:2b:da:d6:31:
                    8d:7f:35:e6:53:43:62:74:90:f3:db:de:e9:29:f8:
                    8b:ae:c9:b1:fb:0e:cf:59:02:1c:75:a1:34:a6:31:
                    3f:91:6d:a8:66:62:a8:c6:21:ba:7e:1f:03:9f:e6:
                    76:bf:02:ad:eb:3d:58:77:8e:8b:c2:3a:6a:b6:85:
                    f3:5c:01:70:a6:88:7a:ff:0d:74:15:14:7c:37:9c:
                    f8:7b:5c:89:91:24:39:5e:41:5e:2d:c5:56:f2:3d:
                    45:42:18:be:8b:74:cd:96:f7:f7:8e:50:36:3c:59:
                    d1:0b:8e:2f:da:7a:09:ae:6f:45:7c:c7:3e:22:4c:
                    7c:88:d8:f1:e9:dc:6b:97:29:c0:b7:cd:40:c9:ab:
                    bb:9c:49:95:6d:db:f0:2a:79:b1:44:72:42:28:ca:
                    4a:b9:ea:36:2a:00:81:b8:12:c9:cc:19:6c:a2:c2:
                    8f:77:80:b4:ef:22:09:59:ae:88:e8:5e:57:3f:6d:
                    89:ef:4c:75:40:54:81:c9:3a:4d:3c:07:95:14:fd:
                    1e:fc:0f
                Exponent: 65537 (0x10001)
        X509v3 extensions:
            X509v3 Basic Constraints: 
                CA:FALSE
            X509v3 Subject Key Identifier: 
                62:40:73:79:5A:CD:4D:AC:67:2D:41:D1:E3:78:DC:7D:46:6F:D3:30
            X509v3 Authority Key Identifier: 
                keyid:87:A7:C5:75:37:0B:14:6C:BF:46:04:8C:2A:52:E9:5D:DA:51:DC:E6
                DirName:/CN=vpn.jenkins.io
                serial:08:01:AA:6D:1B:31:40:4F:7B:9C:75:54:54:78:B5:36:65:3B:7C:B3

            X509v3 Extended Key Usage: 
                TLS Web Client Authentication
            X509v3 Key Usage: 
                Digital Signature
    Signature Algorithm: sha256WithRSAEncryption
         6d:79:4a:2b:a7:62:26:3e:3d:92:b5:ac:1f:72:05:38:e8:b9:
         71:d9:f4:75:07:5c:66:8b:7c:52:4b:93:bb:7f:2a:90:59:46:
         7d:28:9e:58:07:69:a8:20:74:d9:c1:bc:74:48:fb:66:db:ec:
         df:c8:23:43:63:4b:db:42:5f:d8:89:9e:17:37:92:17:6e:ee:
         fe:a5:9b:93:77:e4:2b:2e:82:2f:77:88:23:1c:4b:52:ec:ee:
         e9:6d:40:b7:d4:2d:51:d2:3e:6a:c5:c4:22:df:b8:c8:19:c9:
         21:38:0a:94:f0:e4:cf:9a:33:2b:a4:13:22:f9:7d:fa:2d:e0:
         e8:8a:31:9d:ef:95:97:4b:b9:cc:0c:af:db:6a:50:aa:d7:01:
         ef:88:3b:b6:d2:6b:f1:1c:6c:ee:d0:7f:a9:b4:f7:c1:31:59:
         be:ae:17:8d:0c:0e:23:3f:57:5d:0c:dc:76:cf:9d:37:e2:a0:
         9f:fb:8d:1e:29:c0:2c:38:db:53:4a:16:20:70:b2:45:a3:39:
         a8:78:36:c3:34:cf:f4:7d:40:b5:9b:ff:82:89:8a:d0:50:00:
         67:77:9d:1b:cd:82:a3:2e:1f:2c:54:ae:1a:f0:17:51:52:15:
         e5:9c:97:38:55:08:89:f1:b3:d6:e8:81:8f:87:36:f1:66:e2:
         b3:fa:91:ec:f3:f3:e9:7b:e5:2c:7d:8c:fb:3d:b8:a6:5e:12:
         94:59:43:9e:2a:30:9b:86:d5:e5:82:5b:9f:02:54:40:e0:dc:
         cd:12:1c:c0:96:be:77:6a:2b:34:cb:1c:4d:6f:5e:55:20:3e:
         e0:41:5e:83:cd:a2:54:e3:a5:40:36:71:c6:2f:52:d3:25:ef:
         56:97:fa:ec:23:b4:da:1f:e0:7b:2f:73:6c:e4:23:73:ef:34:
         ed:f5:61:16:0e:b6:da:6d:2a:e8:55:a9:45:27:e6:20:28:e7:
         3b:d3:f4:52:b0:c8:8c:97:af:62:96:76:a8:e8:fc:0d:5d:c9:
         87:2e:4e:86:9d:82:b2:8f:07:38:f7:af:d9:14:41:d5:e5:68:
         2e:d9:95:12:75:74:b7:8d:7c:4a:bc:1f:c8:98:f3:4a:32:5a:
         db:f0:64:0f:84:9a:b9:59:ff:11:12:a6:b8:28:b1:bd:3f:b1:
         1b:16:13:ed:3a:80:5c:51:8d:08:c2:63:7d:95:e4:a2:c4:21:
         9a:7f:30:a6:78:ca:c4:c9:98:f9:66:9d:b9:8b:26:21:7f:7a:
         7f:f1:a3:20:06:a4:11:64:78:1a:6d:23:eb:03:49:f2:61:91:
         81:db:f8:4c:ef:5f:9e:f5:02:1d:23:76:b3:5f:6b:83:fa:58:
         ea:d1:89:65:fb:2a:1b:9d
-----BEGIN CERTIFICATE-----
MIIFXTCCA0WgAwIBAgIQQsmLB7s6J8TLY484KF5+pjANBgkqhkiG9w0BAQsFADAZ
MRcwFQYDVQQDDA52cG4uamVua2lucy5pbzAeFw0xOTAzMjgwODU1NTFaFw0yMjAz
MTIwODU1NTFaMBQxEjAQBgNVBAMMCWp0aG9tcHNvbjCCAiIwDQYJKoZIhvcNAQEB
BQADggIPADCCAgoCggIBAObw6kH1U2xGMgHwqFQhKIpo0my6SOWdDYlPxjkczvK6
nqt3LEwIPliB6m1CJtNEvHiI5/kCj0UsrNLEJtHJTwLe6SlOBBLvUuvb8h88xCS/
uul4TrtyATrE+dlyGjy/OYAOSbw/1TvVcHCIMowmRs5FDc2/ngSHlcjfgEpxr19V
B+oYPt/cjXwMnNPqN9/zFFpYwpFA98Q4+uvjARGnRFa9bcL6173LfOiRdQHTMD3L
vW0s0dX40K/hoV/XTVjiMn3t9XoDX6gHwBIIosZBQU+LeUjvkqlV9OaV9IKyDpKr
X295GXzJblelFeTxSRnK3aCHo1R4TuehWsbNQPRT75V1E3AbwqkOklpKeJezFqT9
0mxlFaBuQtOXD+yJwue1qMhQa3l0WVsvAhI8J5006pPcq0GI1usr2tYxjX815lND
YnSQ89ve6Sn4i67JsfsOz1kCHHWhNKYxP5FtqGZiqMYhun4fA5/mdr8Cres9WHeO
i8I6araF81wBcKaIev8NdBUUfDec+HtciZEkOV5BXi3FVvI9RUIYvot0zZb3945Q
NjxZ0QuOL9p6Ca5vRXzHPiJMfIjY8enca5cpwLfNQMmru5xJlW3b8Cp5sURyQijK
SrnqNioAgbgSycwZbKLCj3eAtO8iCVmuiOheVz9tie9MdUBUgck6TTwHlRT9HvwP
AgMBAAGjgaUwgaIwCQYDVR0TBAIwADAdBgNVHQ4EFgQUYkBzeVrNTaxnLUHR43jc
fUZv0zAwVAYDVR0jBE0wS4AUh6fFdTcLFGy/RgSMKlLpXdpR3OahHaQbMBkxFzAV
BgNVBAMMDnZwbi5qZW5raW5zLmlvghQIAaptGzFAT3ucdVRUeLU2ZTt8szATBgNV
HSUEDDAKBggrBgEFBQcDAjALBgNVHQ8EBAMCB4AwDQYJKoZIhvcNAQELBQADggIB
AG15SiunYiY+PZK1rB9yBTjouXHZ9HUHXGaLfFJLk7t/KpBZRn0onlgHaaggdNnB
vHRI+2bb7N/II0NjS9tCX9iJnhc3khdu7v6lm5N35Csugi93iCMcS1Ls7ultQLfU
LVHSPmrFxCLfuMgZySE4CpTw5M+aMyukEyL5ffot4OiKMZ3vlZdLucwMr9tqUKrX
Ae+IO7bSa/EcbO7Qf6m098ExWb6uF40MDiM/V10M3HbPnTfioJ/7jR4pwCw421NK
FiBwskWjOah4NsM0z/R9QLWb/4KJitBQAGd3nRvNgqMuHyxUrhrwF1FSFeWclzhV
CInxs9bogY+HNvFm4rP6kezz8+l75Sx9jPs9uKZeEpRZQ54qMJuG1eWCW58CVEDg
3M0SHMCWvndqKzTLHE1vXlUgPuBBXoPNolTjpUA2ccYvUtMl71aX+uwjtNof4Hsv
c2zkI3PvNO31YRYOttptKuhVqUUn5iAo5zvT9FKwyIyXr2KWdqjo/A1dyYcuToad
grKPBzj3r9kUQdXlaC7ZlRJ1dLeNfEq8H8iY80oyWtvwZA+EmrlZ/xESprgosb0/
sRsWE+06gFxRjQjCY32V5KLEIZp/MKZ4ysTJmPlmnbmLJiF/en/xoyAGpBFkeBpt
I+sDSfJhkYHb+EzvX571Ah0jdrNfa4P6WOrRiWX7Khud
-----END CERTIFICATE-----
