Certificate:
    Data:
        Version: 3 (0x2)
        Serial Number:
            61:5d:72:e8:f1:73:84:36:20:c2:86:1c:22:60:6a:b5
        Signature Algorithm: sha256WithRSAEncryption
        Issuer: CN=vpn.jenkins.io
        Validity
            Not Before: May 12 08:19:10 2020 GMT
            Not After : Apr 27 08:19:10 2023 GMT
        Subject: CN=jvz
        Subject Public Key Info:
            Public Key Algorithm: rsaEncryption
                RSA Public-Key: (4096 bit)
                Modulus:
                    00:d4:7e:c2:be:42:06:02:2c:a1:3a:b2:af:5c:0c:
                    f3:46:62:c6:52:ae:e4:4e:35:0b:c4:5d:86:00:ce:
                    4a:d1:4b:78:ce:58:f7:7a:3f:fb:15:35:6f:51:54:
                    73:c0:f4:c9:92:8d:cd:27:a0:9d:de:aa:33:03:72:
                    ec:25:e8:95:dc:d3:10:26:42:95:cb:c6:dd:99:ff:
                    c3:83:e6:8c:b0:3f:dd:ed:7b:c4:ef:30:c8:88:ac:
                    54:ca:79:a4:86:4c:41:87:c6:fa:c3:1c:b2:37:4c:
                    8d:66:a1:30:fe:03:e9:18:f4:72:da:7e:0e:f7:95:
                    be:d7:be:59:48:b4:ce:a0:13:5c:6b:60:e2:74:93:
                    31:35:32:cf:32:97:bf:db:43:66:4a:d8:42:be:8f:
                    99:6f:c0:19:c7:76:fe:15:61:f4:35:91:80:a6:b3:
                    05:a5:92:ce:cb:2b:04:3a:27:b4:c5:42:b8:e4:90:
                    6c:26:51:38:55:5c:f4:ca:cd:b7:52:04:db:d5:5d:
                    c9:f4:f9:b4:e9:08:de:7b:b0:af:db:d6:8a:1e:9b:
                    ab:ef:eb:3a:75:f4:d8:78:df:39:59:b6:07:3e:f0:
                    b3:c1:ba:e4:f0:15:79:f4:ac:7f:14:a7:8b:55:5b:
                    55:62:0a:a2:6b:49:7e:d9:f7:16:ed:55:f1:60:a8:
                    25:17:74:9c:e6:e3:a2:74:ce:a2:e4:f2:f5:b0:3f:
                    0f:64:a8:68:66:dc:14:86:be:58:b2:60:d8:d5:24:
                    83:d2:81:f8:c0:8f:23:8d:0a:75:f9:45:7f:7d:50:
                    6e:08:7c:ff:98:46:18:b0:9a:fa:2b:45:14:8a:13:
                    3d:c8:45:59:6d:e8:dd:14:93:71:ec:75:68:9f:ce:
                    d9:df:25:ca:11:25:7a:88:bb:ae:6f:40:86:8a:09:
                    92:a1:1d:2e:a4:c0:03:7c:64:2b:22:24:51:6f:22:
                    28:04:88:eb:f4:76:ef:7a:84:be:6f:a1:fe:05:5c:
                    62:1c:13:6c:11:a9:8c:16:76:24:b3:2c:09:c7:5d:
                    e8:dd:ce:b8:3f:ec:69:10:6e:d6:6f:66:42:5c:d7:
                    9d:59:b8:3d:d8:9f:8a:62:da:a0:a6:6c:86:c0:f1:
                    cb:5d:6e:d9:20:03:a7:ad:4f:c1:d1:6f:a0:f0:23:
                    4c:43:81:a6:92:48:3d:0d:56:c7:41:1c:ff:c9:c5:
                    16:02:74:53:7d:13:3b:8a:d0:31:98:84:43:a3:ce:
                    16:8b:c0:b4:18:30:17:23:33:98:58:b7:11:ed:9a:
                    0f:7f:41:54:b7:52:0e:77:11:36:64:17:db:54:5c:
                    7e:23:9a:33:42:1c:3d:01:3f:8a:56:09:a3:ab:81:
                    c7:cd:fd
                Exponent: 65537 (0x10001)
        X509v3 extensions:
            X509v3 Basic Constraints: 
                CA:FALSE
            X509v3 Subject Key Identifier: 
                93:3E:C4:77:F5:EC:31:C0:1E:31:AE:88:C3:FC:96:30:BC:94:13:5B
            X509v3 Authority Key Identifier: 
                keyid:87:A7:C5:75:37:0B:14:6C:BF:46:04:8C:2A:52:E9:5D:DA:51:DC:E6
                DirName:/CN=vpn.jenkins.io
                serial:08:01:AA:6D:1B:31:40:4F:7B:9C:75:54:54:78:B5:36:65:3B:7C:B3

            X509v3 Extended Key Usage: 
                TLS Web Client Authentication
            X509v3 Key Usage: 
                Digital Signature
    Signature Algorithm: sha256WithRSAEncryption
         9f:7d:c3:18:54:bc:5b:0d:3d:58:cf:34:6f:bb:10:4c:0c:0b:
         77:09:bf:ff:95:be:dc:b5:15:5a:5c:80:5f:11:08:bb:62:30:
         ae:32:6e:f1:68:f6:c4:35:38:5d:dc:9c:b9:7f:39:d7:c0:4b:
         d6:3b:f5:79:71:90:06:68:97:d9:e4:a5:86:80:9b:be:23:5e:
         f5:75:7e:5f:77:ea:b2:c7:d1:3b:a9:8e:46:7e:71:8f:47:24:
         80:7f:52:1c:f3:3d:49:7b:a4:03:8d:7a:d8:43:ef:a0:4b:c7:
         b9:cd:56:23:3d:97:5c:7b:57:af:43:57:c5:9e:c0:6f:39:b2:
         ab:22:4f:35:98:fa:e0:59:72:3e:39:71:2c:f1:39:87:80:d2:
         8c:12:ff:66:92:a8:28:74:28:c6:47:8f:7e:c3:0e:b0:60:40:
         6b:12:3d:2c:9d:de:13:2f:72:82:8b:ff:f7:fb:d9:2e:70:a7:
         c0:6f:81:20:41:e4:15:36:f9:ee:37:12:8e:cf:84:04:d7:b4:
         68:13:09:65:dc:91:55:fe:33:9c:3d:9d:c9:d7:0a:9b:5f:c5:
         be:97:ad:5e:38:aa:0b:6a:fe:4c:0e:55:6a:6e:ce:c6:42:f9:
         b6:1d:e5:39:4c:bc:d2:d0:02:c4:b2:62:dd:82:b2:5e:98:3d:
         42:a9:6d:9c:a6:c7:72:c5:f5:d0:4f:0b:23:ea:52:b2:b9:a4:
         86:a9:bf:02:a3:5e:63:d0:fa:66:85:98:3a:e1:8a:b5:31:3a:
         12:0f:7f:55:2c:73:ab:15:02:ec:c6:60:85:69:c2:22:a1:9b:
         c3:a4:c3:7c:d3:dd:24:9d:d4:fa:0f:76:ea:5a:68:eb:5c:c2:
         6d:df:8a:1c:e3:70:c9:54:f4:d5:56:41:63:20:ac:d2:ea:1e:
         15:9c:d9:ef:74:22:24:91:16:0a:d5:42:c1:b2:f7:0c:88:eb:
         69:be:a5:4a:e0:5f:78:1f:d2:e7:b3:9c:62:e8:84:cf:eb:78:
         c0:22:22:e9:f3:bd:39:d0:82:de:31:77:cf:6d:09:c0:c0:e6:
         4c:7f:3e:e5:e3:dc:f3:be:4b:be:ae:4d:7f:92:4f:6a:59:7c:
         2c:06:bc:ae:04:48:f8:a2:01:f6:91:a2:5a:16:c3:d4:a5:ae:
         fd:20:5f:ed:fa:b2:49:3c:53:1e:3b:78:16:b8:e8:b3:ab:cd:
         7f:28:a8:8e:e5:af:25:5f:cb:a4:c3:88:5e:e1:e3:72:97:f0:
         e4:ad:5c:fc:3b:10:ae:c1:e3:0d:bf:ce:6a:1c:fa:6f:1a:c4:
         52:c7:b8:3f:34:5e:18:c1:b0:45:2c:03:ce:78:ea:fb:09:8d:
         e8:ba:6f:9f:93:f6:85:d6
-----BEGIN CERTIFICATE-----
MIIFVzCCAz+gAwIBAgIQYV1y6PFzhDYgwoYcImBqtTANBgkqhkiG9w0BAQsFADAZ
MRcwFQYDVQQDDA52cG4uamVua2lucy5pbzAeFw0yMDA1MTIwODE5MTBaFw0yMzA0
MjcwODE5MTBaMA4xDDAKBgNVBAMMA2p2ejCCAiIwDQYJKoZIhvcNAQEBBQADggIP
ADCCAgoCggIBANR+wr5CBgIsoTqyr1wM80ZixlKu5E41C8RdhgDOStFLeM5Y93o/
+xU1b1FUc8D0yZKNzSegnd6qMwNy7CXoldzTECZClcvG3Zn/w4PmjLA/3e17xO8w
yIisVMp5pIZMQYfG+sMcsjdMjWahMP4D6Rj0ctp+DveVvte+WUi0zqATXGtg4nST
MTUyzzKXv9tDZkrYQr6PmW/AGcd2/hVh9DWRgKazBaWSzssrBDontMVCuOSQbCZR
OFVc9MrNt1IE29VdyfT5tOkI3nuwr9vWih6bq+/rOnX02HjfOVm2Bz7ws8G65PAV
efSsfxSni1VbVWIKomtJftn3Fu1V8WCoJRd0nObjonTOouTy9bA/D2SoaGbcFIa+
WLJg2NUkg9KB+MCPI40KdflFf31Qbgh8/5hGGLCa+itFFIoTPchFWW3o3RSTcex1
aJ/O2d8lyhEleoi7rm9AhooJkqEdLqTAA3xkKyIkUW8iKASI6/R273qEvm+h/gVc
YhwTbBGpjBZ2JLMsCcdd6N3OuD/saRBu1m9mQlzXnVm4PdifimLaoKZshsDxy11u
2SADp61PwdFvoPAjTEOBppJIPQ1Wx0Ec/8nFFgJ0U30TO4rQMZiEQ6POFovAtBgw
FyMzmFi3Ee2aD39BVLdSDncRNmQX21RcfiOaM0IcPQE/ilYJo6uBx839AgMBAAGj
gaUwgaIwCQYDVR0TBAIwADAdBgNVHQ4EFgQUkz7Ed/XsMcAeMa6Iw/yWMLyUE1sw
VAYDVR0jBE0wS4AUh6fFdTcLFGy/RgSMKlLpXdpR3OahHaQbMBkxFzAVBgNVBAMM
DnZwbi5qZW5raW5zLmlvghQIAaptGzFAT3ucdVRUeLU2ZTt8szATBgNVHSUEDDAK
BggrBgEFBQcDAjALBgNVHQ8EBAMCB4AwDQYJKoZIhvcNAQELBQADggIBAJ99wxhU
vFsNPVjPNG+7EEwMC3cJv/+Vvty1FVpcgF8RCLtiMK4ybvFo9sQ1OF3cnLl/OdfA
S9Y79XlxkAZol9nkpYaAm74jXvV1fl936rLH0TupjkZ+cY9HJIB/UhzzPUl7pAON
ethD76BLx7nNViM9l1x7V69DV8WewG85sqsiTzWY+uBZcj45cSzxOYeA0owS/2aS
qCh0KMZHj37DDrBgQGsSPSyd3hMvcoKL//f72S5wp8BvgSBB5BU2+e43Eo7PhATX
tGgTCWXckVX+M5w9ncnXCptfxb6XrV44qgtq/kwOVWpuzsZC+bYd5TlMvNLQAsSy
Yt2Csl6YPUKpbZymx3LF9dBPCyPqUrK5pIapvwKjXmPQ+maFmDrhirUxOhIPf1Us
c6sVAuzGYIVpwiKhm8Okw3zT3SSd1PoPdupaaOtcwm3fihzjcMlU9NVWQWMgrNLq
HhWc2e90IiSRFgrVQsGy9wyI62m+pUrgX3gf0ueznGLohM/reMAiIunzvTnQgt4x
d89tCcDA5kx/PuXj3PO+S76uTX+ST2pZfCwGvK4ESPiiAfaRoloWw9Slrv0gX+36
skk8Ux47eBa46LOrzX8oqI7lryVfy6TDiF7h43KX8OStXPw7EK7B4w2/zmoc+m8a
xFLHuD80XhjBsEUsA8546vsJjei6b5+T9oXW
-----END CERTIFICATE-----
