Certificate:
    Data:
        Version: 3 (0x2)
        Serial Number:
            d7:4f:2b:83:2a:3e:19:fb:82:f4:62:fd:55:35:e9:85
    Signature Algorithm: sha256WithRSAEncryption
        Issuer: CN=vpn.jenkins.io
        Validity
            Not Before: Jun 23 11:26:56 2023 GMT
            Not After : Jun  7 11:26:56 2026 GMT
        Subject: CN=lemeurherveCB
        Subject Public Key Info:
            Public Key Algorithm: rsaEncryption
                RSA Public-Key: (4096 bit)
                Modulus:
                    00:d2:05:a9:a9:90:d5:11:8a:5a:12:23:e0:f8:5d:
                    48:55:34:e6:9d:8f:5d:2b:0f:4c:9f:9a:cd:39:42:
                    50:3c:7c:e8:1f:fc:f6:39:42:d3:dd:39:82:18:dc:
                    8c:a0:73:70:ae:34:51:cf:ac:63:aa:e5:9c:7f:0d:
                    54:47:ff:0c:78:62:5d:cf:54:49:66:14:8b:17:ea:
                    91:09:ae:37:ff:a3:3f:56:2a:2b:98:58:05:64:35:
                    91:bc:e8:09:a5:90:29:f9:1c:a9:68:94:a0:2e:7f:
                    80:b9:73:41:98:a9:9e:97:7d:ce:51:68:c0:dc:4c:
                    cd:ed:13:19:8a:99:08:e0:f5:d9:f3:f2:91:38:06:
                    71:69:7e:d9:18:54:59:16:7b:4a:b8:17:78:c2:8b:
                    81:27:70:90:aa:4c:36:90:18:53:b8:87:51:f1:6f:
                    dd:46:cb:a4:eb:e6:42:33:c9:31:b1:e2:d1:d3:41:
                    5e:18:26:d1:7c:43:57:06:d5:83:85:f2:1f:b4:7c:
                    4f:9b:79:ce:6d:67:cf:48:15:45:05:4d:5a:0b:43:
                    e1:82:63:0c:4a:62:05:d8:ec:53:59:de:6a:37:1c:
                    5e:8f:4b:d7:c9:09:3a:4a:67:a7:37:da:a3:3b:57:
                    c2:06:20:37:d4:be:64:f7:19:67:d7:02:7e:c4:76:
                    33:c8:f8:ab:3c:32:5d:a8:ca:c7:ed:37:67:49:1a:
                    0b:f1:28:69:ed:f7:0a:a9:6a:94:e3:b0:b7:bc:ae:
                    75:68:e2:f6:67:dc:23:3c:46:49:86:ce:fa:5f:c9:
                    28:48:98:ab:b8:5c:98:c9:4e:b9:2b:87:22:b9:66:
                    9a:ac:38:c2:57:36:e4:98:d2:db:c1:90:84:d3:07:
                    c6:c1:e3:ef:83:5c:07:81:10:fc:3e:bf:a1:b4:5a:
                    01:0a:f7:5a:92:13:6b:6a:11:1b:08:04:a1:9e:58:
                    d0:c6:62:53:55:b8:7d:d6:ea:3b:af:04:b1:e4:8e:
                    ba:b3:65:9b:c2:30:44:d8:35:6a:56:c7:97:9d:78:
                    10:36:6b:8d:39:c2:34:99:95:5d:d0:14:12:c8:1a:
                    41:cf:30:61:3e:10:38:55:1f:e7:16:c9:eb:de:1f:
                    bf:49:fd:d0:dd:f8:26:85:2f:02:cd:00:a3:47:70:
                    1c:0e:da:72:9a:9f:c8:27:3e:a1:f3:e1:07:01:1d:
                    cd:63:20:b0:88:f5:1f:4e:01:6e:4e:49:44:38:8c:
                    2d:34:62:cd:0d:f8:51:5d:4f:00:1f:06:7e:b3:fd:
                    fe:fa:07:09:d5:fe:40:f9:1c:5d:cd:ee:a2:02:a3:
                    9b:b3:21:de:fc:14:a5:0a:25:8a:b9:cf:d0:dd:42:
                    1c:62:49
                Exponent: 65537 (0x10001)
        X509v3 extensions:
            X509v3 Basic Constraints: 
                CA:FALSE
            X509v3 Subject Key Identifier: 
                E6:E8:74:AC:2B:46:F3:59:17:FB:33:FB:4C:6D:ED:D4:72:E2:CD:4C
            X509v3 Authority Key Identifier: 
                keyid:87:A7:C5:75:37:0B:14:6C:BF:46:04:8C:2A:52:E9:5D:DA:51:DC:E6
                DirName:/CN=vpn.jenkins.io
                serial:08:01:AA:6D:1B:31:40:4F:7B:9C:75:54:54:78:B5:36:65:3B:7C:B3

            X509v3 Extended Key Usage: 
                TLS Web Client Authentication
            X509v3 Key Usage: 
                Digital Signature
    Signature Algorithm: sha256WithRSAEncryption
         5a:8f:1b:f0:15:ef:d4:25:9e:00:fe:f3:95:a8:51:c2:e9:77:
         13:30:ab:f0:fa:12:98:e6:e6:a1:6a:b2:69:a1:a4:8a:4f:e6:
         13:6d:67:5e:27:dd:86:3b:be:37:b8:db:7a:28:8e:71:dc:0c:
         fc:cc:d3:a5:73:10:4f:b4:f4:ca:d1:b1:ef:7c:a3:3f:e0:97:
         a7:42:3e:57:f6:ff:c2:a0:e3:89:05:04:a5:c6:f4:02:4d:80:
         6d:72:07:24:57:31:b6:1c:44:26:57:05:04:a9:ad:b6:90:85:
         c1:0c:d3:30:66:11:28:a7:64:2e:29:58:ea:bc:fd:cb:11:ca:
         06:11:17:46:86:fb:53:e9:3e:6d:41:58:17:94:94:62:68:73:
         7a:dc:40:4b:f6:8d:6c:f3:5a:b6:0c:81:cb:ec:c6:33:e7:8a:
         6e:b8:e5:48:7f:df:57:1b:3b:8f:c8:27:59:25:8d:d4:bb:98:
         97:c5:7a:16:0b:fc:b3:0e:78:e8:8d:ab:6e:61:58:3c:c8:fd:
         c0:43:e1:05:a0:98:8d:9f:17:56:49:09:b9:e3:fa:10:0c:c6:
         6c:28:07:37:40:78:95:d8:e1:56:c1:76:87:a7:56:de:2d:74:
         44:d6:44:10:8f:4a:2d:f9:bc:29:dc:c4:2b:33:12:f5:4a:d2:
         b2:2a:99:a1:b1:ee:a8:2d:db:52:69:66:5b:f6:8b:e7:63:f9:
         fc:10:10:0c:96:70:fa:b7:6b:0d:99:0b:5f:56:aa:40:7a:b3:
         a3:9a:d3:ec:25:32:54:7c:43:10:83:c1:55:ea:72:84:26:35:
         66:f6:0b:7a:8e:66:0a:15:66:9b:37:c5:1e:6a:96:27:44:c9:
         fa:41:16:83:0b:cd:b0:36:db:04:5c:65:b1:e6:63:75:e8:66:
         ac:03:77:8e:80:43:95:a6:34:eb:87:bf:55:36:63:71:7e:66:
         56:bd:be:17:61:09:94:64:a4:cf:93:cb:42:bc:49:82:1d:7f:
         68:15:b9:48:46:af:a0:61:8f:98:d9:d9:9e:4d:31:a3:6e:2f:
         ea:6b:b3:70:e2:61:54:60:0a:91:02:00:ea:d3:29:c2:98:b3:
         b4:bc:51:1d:05:27:6c:f5:a5:1a:db:79:2c:02:2c:29:ed:30:
         75:83:40:4b:b4:5a:46:51:78:6b:39:0a:78:64:d9:01:3e:ea:
         ec:f9:6a:06:c6:55:03:7b:a3:ef:f8:54:6f:5c:a0:94:68:5a:
         cf:5d:f1:a7:58:0d:3b:c3:ec:94:70:10:70:ca:a8:00:ca:1c:
         6d:6f:19:f4:22:92:86:fd:68:d6:eb:c7:a7:6e:2d:d7:42:92:
         73:d4:fb:7f:8d:95:db:35
-----BEGIN CERTIFICATE-----
MIIFYjCCA0qgAwIBAgIRANdPK4MqPhn7gvRi/VU16YUwDQYJKoZIhvcNAQELBQAw
GTEXMBUGA1UEAwwOdnBuLmplbmtpbnMuaW8wHhcNMjMwNjIzMTEyNjU2WhcNMjYw
NjA3MTEyNjU2WjAYMRYwFAYDVQQDDA1sZW1ldXJoZXJ2ZUNCMIICIjANBgkqhkiG
9w0BAQEFAAOCAg8AMIICCgKCAgEA0gWpqZDVEYpaEiPg+F1IVTTmnY9dKw9Mn5rN
OUJQPHzoH/z2OULT3TmCGNyMoHNwrjRRz6xjquWcfw1UR/8MeGJdz1RJZhSLF+qR
Ca43/6M/ViormFgFZDWRvOgJpZAp+RypaJSgLn+AuXNBmKmel33OUWjA3EzN7RMZ
ipkI4PXZ8/KROAZxaX7ZGFRZFntKuBd4wouBJ3CQqkw2kBhTuIdR8W/dRsuk6+ZC
M8kxseLR00FeGCbRfENXBtWDhfIftHxPm3nObWfPSBVFBU1aC0PhgmMMSmIF2OxT
Wd5qNxxej0vXyQk6SmenN9qjO1fCBiA31L5k9xln1wJ+xHYzyPirPDJdqMrH7Tdn
SRoL8Shp7fcKqWqU47C3vK51aOL2Z9wjPEZJhs76X8koSJiruFyYyU65K4ciuWaa
rDjCVzbkmNLbwZCE0wfGwePvg1wHgRD8Pr+htFoBCvdakhNrahEbCAShnljQxmJT
Vbh91uo7rwSx5I66s2WbwjBE2DVqVseXnXgQNmuNOcI0mZVd0BQSyBpBzzBhPhA4
VR/nFsnr3h+/Sf3Q3fgmhS8CzQCjR3AcDtpymp/IJz6h8+EHAR3NYyCwiPUfTgFu
TklEOIwtNGLNDfhRXU8AHwZ+s/3++gcJ1f5A+Rxdze6iAqObsyHe/BSlCiWKuc/Q
3UIcYkkCAwEAAaOBpTCBojAJBgNVHRMEAjAAMB0GA1UdDgQWBBTm6HSsK0bzWRf7
M/tMbe3UcuLNTDBUBgNVHSMETTBLgBSHp8V1NwsUbL9GBIwqUuld2lHc5qEdpBsw
GTEXMBUGA1UEAwwOdnBuLmplbmtpbnMuaW+CFAgBqm0bMUBPe5x1VFR4tTZlO3yz
MBMGA1UdJQQMMAoGCCsGAQUFBwMCMAsGA1UdDwQEAwIHgDANBgkqhkiG9w0BAQsF
AAOCAgEAWo8b8BXv1CWeAP7zlahRwul3EzCr8PoSmObmoWqyaaGkik/mE21nXifd
hju+N7jbeiiOcdwM/MzTpXMQT7T0ytGx73yjP+CXp0I+V/b/wqDjiQUEpcb0Ak2A
bXIHJFcxthxEJlcFBKmttpCFwQzTMGYRKKdkLilY6rz9yxHKBhEXRob7U+k+bUFY
F5SUYmhzetxAS/aNbPNatgyBy+zGM+eKbrjlSH/fVxs7j8gnWSWN1LuYl8V6Fgv8
sw546I2rbmFYPMj9wEPhBaCYjZ8XVkkJueP6EAzGbCgHN0B4ldjhVsF2h6dW3i10
RNZEEI9KLfm8KdzEKzMS9UrSsiqZobHuqC3bUmlmW/aL52P5/BAQDJZw+rdrDZkL
X1aqQHqzo5rT7CUyVHxDEIPBVepyhCY1ZvYLeo5mChVmmzfFHmqWJ0TJ+kEWgwvN
sDbbBFxlseZjdehmrAN3joBDlaY064e/VTZjcX5mVr2+F2EJlGSkz5PLQrxJgh1/
aBW5SEavoGGPmNnZnk0xo24v6muzcOJhVGAKkQIA6tMpwpiztLxRHQUnbPWlGtt5
LAIsKe0wdYNAS7RaRlF4azkKeGTZAT7q7PlqBsZVA3uj7/hUb1yglGhaz13xp1gN
O8PslHAQcMqoAMocbW8Z9CKShv1o1uvHp24t10KSc9T7f42V2zU=
-----END CERTIFICATE-----
