Certificate:
    Data:
        Version: 3 (0x2)
        Serial Number:
            38:e3:33:8b:44:44:4d:e3:50:4f:b3:16:51:f6:22:83
    Signature Algorithm: sha256WithRSAEncryption
        Issuer: CN=vpn.jenkins.io
        Validity
            Not Before: Apr 12 16:33:09 2022 GMT
            Not After : Mar 27 16:33:09 2025 GMT
        Subject: CN=notmyfault
        Subject Public Key Info:
            Public Key Algorithm: rsaEncryption
                Public-Key: (4096 bit)
                Modulus:
                    00:ca:a6:dc:fa:5a:2a:31:62:a4:3d:5f:2f:76:db:
                    d8:b1:d0:64:4a:32:aa:3b:af:83:3f:a8:04:68:98:
                    23:fb:07:4d:9f:5e:4a:25:31:e9:72:89:d6:f9:d4:
                    3f:a5:63:d2:e4:0e:18:5c:dc:39:fa:2f:bb:a4:1b:
                    64:a4:dd:fa:26:f4:15:8d:92:db:76:e0:6a:e8:02:
                    7f:4f:90:5c:97:95:32:2c:17:47:61:ff:84:56:d0:
                    e4:67:82:16:8a:34:fe:2a:e7:77:0e:a7:57:f3:ff:
                    45:b8:53:c8:7a:2e:95:8a:30:42:4b:06:ac:a7:be:
                    c4:a1:62:8a:04:f3:ac:4e:39:c1:44:d7:fd:9c:ed:
                    9b:9f:9a:07:1c:b9:55:e4:7e:8d:d2:19:42:8a:f1:
                    05:c4:cb:a6:68:97:32:c9:6a:58:0d:bb:2b:f9:2f:
                    87:92:e4:06:ac:fd:98:c4:2a:88:41:56:ad:a7:b7:
                    67:7b:31:6f:d1:13:71:81:08:b1:dc:7e:1a:03:4e:
                    c0:f1:06:5a:e9:fb:d4:04:b3:4b:94:a0:cf:14:95:
                    73:69:4c:10:ba:b6:2b:ee:4d:95:61:31:b2:f3:02:
                    f1:ad:14:5b:70:6a:4f:04:ac:ac:ad:7a:02:dc:85:
                    bd:d0:1d:de:55:ac:20:94:3b:83:71:b6:62:af:0f:
                    cc:20:bc:3c:5b:79:c2:61:b8:04:0c:d2:29:2f:d0:
                    e0:c2:bf:bb:1c:b4:14:50:b5:09:ad:7e:75:39:3f:
                    07:1d:e5:3c:3d:48:db:03:11:82:f3:4f:3d:af:af:
                    b8:0a:2c:eb:94:f4:65:85:0b:a6:6b:ce:53:09:46:
                    4c:dd:c3:c3:b2:89:20:4a:4c:ae:bc:69:4a:cf:77:
                    54:15:77:10:3c:cb:bb:77:56:99:94:d8:c3:71:30:
                    6b:3e:d7:db:9f:cf:70:a4:be:26:8c:f0:a9:1f:24:
                    d5:1f:06:c4:e4:22:3e:7a:f3:a4:97:2c:77:fb:13:
                    ec:e0:8b:e5:89:1b:0e:fb:bd:4f:9f:38:8d:12:76:
                    c7:16:2c:8d:43:1a:5e:6d:09:8f:68:1e:53:f1:7e:
                    2a:8b:26:ff:32:74:a2:da:5c:4e:43:52:68:a6:1f:
                    ad:bf:1e:1e:48:26:a2:8b:5d:ee:b6:48:c8:a3:6b:
                    4f:95:74:e0:69:0f:34:27:b3:ab:9b:a9:d8:69:d7:
                    6d:df:52:65:31:b1:d8:3e:3a:bc:7c:95:67:d7:53:
                    96:91:55:05:e5:10:e0:c4:11:42:0b:30:e7:22:4a:
                    b4:ad:92:59:dc:9a:94:82:e9:45:9d:12:39:b0:a6:
                    d5:50:03:85:f0:20:07:0a:63:9b:3a:a0:7e:c3:db:
                    9c:10:eb
                Exponent: 65537 (0x10001)
        X509v3 extensions:
            X509v3 Basic Constraints: 
                CA:FALSE
            X509v3 Subject Key Identifier: 
                5E:7D:32:0A:5F:9F:0E:01:CA:47:F0:80:CE:BF:51:1F:4D:CD:43:B6
            X509v3 Authority Key Identifier: 
                keyid:87:A7:C5:75:37:0B:14:6C:BF:46:04:8C:2A:52:E9:5D:DA:51:DC:E6
                DirName:/CN=vpn.jenkins.io
                serial:08:01:AA:6D:1B:31:40:4F:7B:9C:75:54:54:78:B5:36:65:3B:7C:B3

            X509v3 Extended Key Usage: 
                TLS Web Client Authentication
            X509v3 Key Usage: 
                Digital Signature
    Signature Algorithm: sha256WithRSAEncryption
         a9:49:d8:d1:c7:23:f3:be:71:56:ff:6d:5f:03:c7:e4:5a:ce:
         c7:7e:52:23:55:ae:36:2e:93:db:59:54:a5:27:ab:9f:5f:9b:
         90:fa:12:d0:e1:42:cc:e7:9f:e8:8b:58:dc:ff:73:f1:69:14:
         1e:e8:ca:07:e1:fe:2f:cf:c1:ea:99:7c:27:2c:8c:9c:d3:d3:
         41:36:2c:38:73:b6:9f:f3:f7:8b:a2:20:af:e3:a5:8a:fb:68:
         bc:99:e2:82:3a:51:62:ce:e5:b0:1e:76:4b:f9:72:7f:59:27:
         18:7b:3c:34:98:d4:7d:58:07:1d:30:6c:b0:78:5c:a8:8e:be:
         b6:b0:5d:1f:c0:30:bf:59:46:d3:90:52:ca:d5:3d:4b:09:51:
         11:c2:87:95:ce:2a:c7:95:fd:c7:89:4a:17:39:d5:f3:55:dc:
         3f:f2:00:d8:ba:b7:2c:18:36:1c:d7:18:d4:86:ab:48:da:c8:
         d6:a5:e0:cd:c6:33:74:84:a7:69:60:e1:0c:a3:15:0e:eb:e1:
         0e:e0:22:d2:59:94:5c:18:bd:3a:61:aa:56:fc:56:be:58:b2:
         75:45:9c:3d:9d:f8:48:bc:46:e9:01:1a:0e:97:d7:10:f3:84:
         a6:a0:4c:23:e4:e9:4e:c8:d4:c8:86:d8:d9:06:16:bd:60:6c:
         2c:19:6d:66:b8:03:b3:4f:42:2c:2a:c4:8c:ad:ae:46:6b:fa:
         9e:09:30:35:5a:92:31:86:b7:b5:57:09:8b:f9:80:ef:2b:45:
         e7:c2:c8:76:d4:ae:c3:9c:ef:93:1c:92:cd:d3:2c:98:bd:54:
         9e:15:06:7f:6e:bb:ff:1b:fa:9b:a5:cd:37:de:ba:c4:1d:80:
         fd:59:a1:36:40:6e:45:c8:e6:c6:d9:78:a0:a1:f3:c3:0f:4c:
         c1:fe:c6:78:ab:01:e0:93:47:72:1c:15:d9:78:c5:49:23:c7:
         88:0d:82:e6:0c:55:21:a8:d9:ae:be:bc:0f:b9:05:4e:21:4c:
         66:2b:ab:74:d3:a4:28:77:f4:54:42:6f:3a:0c:3a:e3:67:bf:
         7c:eb:50:ec:0d:95:ef:28:6a:83:81:8a:f7:20:21:4b:e0:97:
         b1:12:45:e4:5c:9f:a4:a0:a2:6e:13:51:b5:ff:14:b2:44:68:
         85:f6:b8:d2:c9:8e:fc:f5:1e:87:3c:20:8b:3e:94:43:25:4e:
         93:a3:34:76:97:72:81:e5:66:56:45:b6:7e:84:cc:42:86:d7:
         a6:2a:39:0d:49:0a:10:56:84:3b:bf:7e:2b:de:ce:ea:7b:d6:
         8d:82:b8:d8:af:4b:61:94:a2:7c:b1:5a:8d:1e:24:f0:b4:bc:
         0e:65:55:60:23:44:d7:b3
-----BEGIN CERTIFICATE-----
MIIFXjCCA0agAwIBAgIQOOMzi0RETeNQT7MWUfYigzANBgkqhkiG9w0BAQsFADAZ
MRcwFQYDVQQDDA52cG4uamVua2lucy5pbzAeFw0yMjA0MTIxNjMzMDlaFw0yNTAz
MjcxNjMzMDlaMBUxEzARBgNVBAMMCm5vdG15ZmF1bHQwggIiMA0GCSqGSIb3DQEB
AQUAA4ICDwAwggIKAoICAQDKptz6WioxYqQ9Xy9229ix0GRKMqo7r4M/qARomCP7
B02fXkolMelyidb51D+lY9LkDhhc3Dn6L7ukG2Sk3fom9BWNktt24GroAn9PkFyX
lTIsF0dh/4RW0ORnghaKNP4q53cOp1fz/0W4U8h6LpWKMEJLBqynvsShYooE86xO
OcFE1/2c7ZufmgccuVXkfo3SGUKK8QXEy6ZolzLJalgNuyv5L4eS5Aas/ZjEKohB
Vq2nt2d7MW/RE3GBCLHcfhoDTsDxBlrp+9QEs0uUoM8UlXNpTBC6tivuTZVhMbLz
AvGtFFtwak8ErKytegLchb3QHd5VrCCUO4NxtmKvD8wgvDxbecJhuAQM0ikv0ODC
v7sctBRQtQmtfnU5Pwcd5Tw9SNsDEYLzTz2vr7gKLOuU9GWFC6ZrzlMJRkzdw8Oy
iSBKTK68aUrPd1QVdxA8y7t3VpmU2MNxMGs+19ufz3CkviaM8KkfJNUfBsTkIj56
86SXLHf7E+zgi+WJGw77vU+fOI0SdscWLI1DGl5tCY9oHlPxfiqLJv8ydKLaXE5D
UmimH62/Hh5IJqKLXe62SMija0+VdOBpDzQns6ubqdhp123fUmUxsdg+Orx8lWfX
U5aRVQXlEODEEUILMOciSrStklncmpSC6UWdEjmwptVQA4XwIAcKY5s6oH7D25wQ
6wIDAQABo4GlMIGiMAkGA1UdEwQCMAAwHQYDVR0OBBYEFF59Mgpfnw4BykfwgM6/
UR9NzUO2MFQGA1UdIwRNMEuAFIenxXU3CxRsv0YEjCpS6V3aUdzmoR2kGzAZMRcw
FQYDVQQDDA52cG4uamVua2lucy5pb4IUCAGqbRsxQE97nHVUVHi1NmU7fLMwEwYD
VR0lBAwwCgYIKwYBBQUHAwIwCwYDVR0PBAQDAgeAMA0GCSqGSIb3DQEBCwUAA4IC
AQCpSdjRxyPzvnFW/21fA8fkWs7HflIjVa42LpPbWVSlJ6ufX5uQ+hLQ4ULM55/o
i1jc/3PxaRQe6MoH4f4vz8HqmXwnLIyc09NBNiw4c7af8/eLoiCv46WK+2i8meKC
OlFizuWwHnZL+XJ/WScYezw0mNR9WAcdMGyweFyojr62sF0fwDC/WUbTkFLK1T1L
CVERwoeVzirHlf3HiUoXOdXzVdw/8gDYurcsGDYc1xjUhqtI2sjWpeDNxjN0hKdp
YOEMoxUO6+EO4CLSWZRcGL06YapW/Fa+WLJ1RZw9nfhIvEbpARoOl9cQ84SmoEwj
5OlOyNTIhtjZBha9YGwsGW1muAOzT0IsKsSMra5Ga/qeCTA1WpIxhre1VwmL+YDv
K0Xnwsh21K7DnO+THJLN0yyYvVSeFQZ/brv/G/qbpc033rrEHYD9WaE2QG5FyObG
2XigofPDD0zB/sZ4qwHgk0dyHBXZeMVJI8eIDYLmDFUhqNmuvrwPuQVOIUxmK6t0
06Qod/RUQm86DDrjZ79861DsDZXvKGqDgYr3ICFL4JexEkXkXJ+koKJuE1G1/xSy
RGiF9rjSyY789R6HPCCLPpRDJU6TozR2l3KB5WZWRbZ+hMxChtemKjkNSQoQVoQ7
v34r3s7qe9aNgrjYr0thlKJ8sVqNHiTwtLwOZVVgI0TXsw==
-----END CERTIFICATE-----
