Certificate:
    Data:
        Version: 3 (0x2)
        Serial Number:
            97:47:0e:31:d2:a6:ac:4f:2f:a6:03:d3:50:b6:61:cb
        Signature Algorithm: sha256WithRSAEncryption
        Issuer: CN=vpn.jenkins.io
        Validity
            Not Before: Mar 13 13:43:02 2019 GMT
            Not After : Feb 25 13:43:02 2022 GMT
        Subject: CN=olblak
        Subject Public Key Info:
            Public Key Algorithm: rsaEncryption
                RSA Public-Key: (4096 bit)
                Modulus:
                    00:be:b8:6d:be:5a:46:2a:34:54:09:65:6a:85:25:
                    33:b6:44:3a:6a:f9:92:f6:f2:87:c4:f6:d3:4d:51:
                    c2:ec:bf:a3:c0:1e:d4:e6:42:60:97:b5:d8:fc:ab:
                    16:42:a4:92:4a:16:9d:0e:84:9e:46:8d:f2:b6:b8:
                    c0:30:6d:10:5a:8f:09:2f:d5:83:ac:ff:24:76:79:
                    c6:5b:cb:6a:88:fb:08:d5:41:33:76:7d:e0:7a:1f:
                    42:12:bb:85:a5:07:f8:92:d8:6f:82:6b:20:24:e9:
                    d8:2b:05:5a:e2:6b:09:e6:80:ff:88:81:0e:c3:4d:
                    fc:80:87:70:c3:a3:60:45:98:35:27:cf:22:28:84:
                    67:6b:fd:96:c7:8c:ed:02:66:0c:09:3e:ae:ad:7b:
                    91:3d:66:e7:25:b0:04:f7:67:f7:72:26:17:45:a5:
                    d1:3a:b7:c6:2b:0b:b3:e4:0d:5b:d2:00:4b:c4:74:
                    ca:d6:50:4a:23:58:98:e0:7c:d9:9b:ca:4d:d2:a8:
                    da:e6:ac:bd:1f:7f:9a:0c:ec:1d:e6:13:92:31:3b:
                    d1:e2:47:da:3e:80:54:84:e5:e1:1b:75:b3:3b:63:
                    fc:0d:83:29:f2:7d:91:e6:3c:28:6a:36:bb:d1:2f:
                    cc:dc:9a:a0:80:02:93:e3:59:c3:6d:e7:0f:1a:8d:
                    e7:90:6e:53:2a:a8:66:4f:11:a1:69:32:e3:02:54:
                    3b:08:16:de:79:19:61:4b:78:f5:56:b9:bb:da:f1:
                    3e:28:fa:cf:9f:d7:6c:d5:fc:34:e3:d9:db:b6:59:
                    6d:34:1f:d0:9a:be:3e:24:81:73:2d:3c:a1:c5:33:
                    ca:22:1d:37:6f:7d:c1:1d:d7:3a:53:a8:16:d0:c9:
                    83:21:27:67:9d:fb:34:07:79:2a:79:bd:d9:26:27:
                    b6:ee:dd:f0:d1:71:cc:16:3f:27:d5:bd:e7:ae:02:
                    82:e3:dc:7d:e8:76:6e:c5:16:44:6d:e9:21:94:7a:
                    1e:13:e1:62:c6:c6:bd:7a:74:a6:a8:45:9f:68:93:
                    21:1f:df:72:9a:08:56:19:3e:df:a1:98:87:60:bf:
                    f1:39:0b:bb:d6:b5:b4:71:84:2d:79:79:a1:b6:4f:
                    1a:fa:64:b9:d6:9c:7a:e8:7c:73:6f:e1:ab:df:cd:
                    ed:23:b5:01:60:31:2b:8c:1f:2c:a4:9b:ee:ae:0d:
                    c1:60:bf:f5:84:73:0c:9b:94:c3:71:f5:26:88:36:
                    b7:ca:7b:42:5f:87:c5:ab:f8:e9:7d:2f:9e:49:30:
                    40:48:e6:d4:2e:25:50:4b:dc:a7:fa:6a:f3:b7:23:
                    81:fb:77:74:19:e4:3c:46:02:ac:1a:b8:da:d7:b1:
                    20:65:d5
                Exponent: 65537 (0x10001)
        X509v3 extensions:
            X509v3 Basic Constraints: 
                CA:FALSE
            X509v3 Subject Key Identifier: 
                C8:19:ED:D4:B5:67:34:3E:23:05:DA:89:0B:4F:1F:6E:67:C0:46:8F
            X509v3 Authority Key Identifier: 
                keyid:87:A7:C5:75:37:0B:14:6C:BF:46:04:8C:2A:52:E9:5D:DA:51:DC:E6
                DirName:/CN=vpn.jenkins.io
                serial:08:01:AA:6D:1B:31:40:4F:7B:9C:75:54:54:78:B5:36:65:3B:7C:B3

            X509v3 Extended Key Usage: 
                TLS Web Client Authentication
            X509v3 Key Usage: 
                Digital Signature
    Signature Algorithm: sha256WithRSAEncryption
         5c:f5:c4:3b:7e:4e:a2:a4:42:c2:e4:0b:e1:2e:a5:8a:b7:be:
         9f:46:a8:26:6e:da:56:12:2b:8a:05:b8:ca:d6:f3:49:67:a7:
         af:d2:1a:bc:b2:6d:72:62:9f:dd:f2:bf:f8:0d:ff:59:85:f5:
         94:06:04:3b:cb:52:61:09:73:70:eb:a3:be:ec:96:a4:05:69:
         54:d6:d7:0c:17:82:52:3d:70:38:88:32:d1:97:4f:8b:d7:22:
         d9:9c:61:d3:f3:a4:d6:9f:05:c7:a5:dd:de:c5:27:9a:bc:db:
         01:50:89:9c:d2:b3:81:18:4c:0b:fa:ac:c3:65:c5:a8:c8:bb:
         bb:7c:64:c2:0a:90:56:10:64:7c:b0:ab:14:6d:91:c9:7a:72:
         e4:c8:62:6a:52:21:7e:02:48:93:a1:25:17:fa:cd:a0:71:6e:
         54:4a:81:90:1a:0c:c8:cd:44:d6:90:ad:8d:76:0c:c4:eb:c7:
         63:f2:1c:85:2f:15:14:cf:5b:a5:f2:04:f0:73:03:78:5c:8b:
         cb:b6:d3:7e:b1:4d:a7:45:21:5c:4a:28:91:0a:b7:e1:ec:8f:
         2d:92:6e:50:8a:24:cf:31:a8:47:6b:b4:80:4a:52:63:de:f5:
         8f:81:f8:f1:80:2d:7c:fb:6d:99:15:88:52:48:e0:85:b6:a6:
         ad:44:11:68:79:b1:a9:7f:53:08:22:7a:ea:48:ba:12:ea:35:
         68:9b:9d:d1:88:be:96:ee:7b:eb:c9:cf:d9:7c:06:73:e3:9f:
         49:4d:85:ef:e7:a6:a1:f9:fb:d6:e8:ae:5a:31:a9:92:a3:12:
         89:a2:54:4f:16:ec:08:de:a0:33:dc:14:50:9e:88:e2:57:eb:
         97:4f:21:82:69:f0:b1:42:33:92:e1:0e:71:6f:a5:4e:6c:a8:
         ba:e9:74:62:6c:91:bd:e9:5f:b7:e9:2a:bf:e8:90:68:2f:e7:
         18:07:44:83:83:a8:c1:16:87:88:99:14:31:03:2c:ce:84:2e:
         61:17:f8:0a:c1:8c:4d:b8:2f:20:09:1b:7f:ca:7a:a9:fc:22:
         4c:f7:65:15:86:7c:10:a8:39:c4:24:a0:54:ab:d3:2f:57:7b:
         7b:c9:20:52:2c:ce:90:ff:49:a3:ae:55:36:3d:ea:19:3f:b2:
         20:b2:8e:75:0c:0d:78:7c:fa:54:69:c7:eb:58:9b:9d:f2:44:
         ab:ff:fc:5e:a1:5a:64:42:80:80:4e:b3:45:1c:36:32:1d:a6:
         66:0a:7d:d8:62:ed:75:25:62:4c:9a:51:1a:d3:11:22:81:81:
         58:5d:bc:62:ac:e9:ba:f2:a2:04:df:49:18:71:4c:88:ee:57:
         f5:82:92:8f:e5:f5:67:1f
-----BEGIN CERTIFICATE-----
MIIFWzCCA0OgAwIBAgIRAJdHDjHSpqxPL6YD01C2YcswDQYJKoZIhvcNAQELBQAw
GTEXMBUGA1UEAwwOdnBuLmplbmtpbnMuaW8wHhcNMTkwMzEzMTM0MzAyWhcNMjIw
MjI1MTM0MzAyWjARMQ8wDQYDVQQDDAZvbGJsYWswggIiMA0GCSqGSIb3DQEBAQUA
A4ICDwAwggIKAoICAQC+uG2+WkYqNFQJZWqFJTO2RDpq+ZL28ofE9tNNUcLsv6PA
HtTmQmCXtdj8qxZCpJJKFp0OhJ5GjfK2uMAwbRBajwkv1YOs/yR2ecZby2qI+wjV
QTN2feB6H0ISu4WlB/iS2G+CayAk6dgrBVriawnmgP+IgQ7DTfyAh3DDo2BFmDUn
zyIohGdr/ZbHjO0CZgwJPq6te5E9ZuclsAT3Z/dyJhdFpdE6t8YrC7PkDVvSAEvE
dMrWUEojWJjgfNmbyk3SqNrmrL0ff5oM7B3mE5IxO9HiR9o+gFSE5eEbdbM7Y/wN
gynyfZHmPChqNrvRL8zcmqCAApPjWcNt5w8ajeeQblMqqGZPEaFpMuMCVDsIFt55
GWFLePVWubva8T4o+s+f12zV/DTj2du2WW00H9Cavj4kgXMtPKHFM8oiHTdvfcEd
1zpTqBbQyYMhJ2ed+zQHeSp5vdkmJ7bu3fDRccwWPyfVveeuAoLj3H3odm7FFkRt
6SGUeh4T4WLGxr16dKaoRZ9okyEf33KaCFYZPt+hmIdgv/E5C7vWtbRxhC15eaG2
Txr6ZLnWnHrofHNv4avfze0jtQFgMSuMHyykm+6uDcFgv/WEcwyblMNx9SaINrfK
e0Jfh8Wr+Ol9L55JMEBI5tQuJVBL3Kf6avO3I4H7d3QZ5DxGAqwauNrXsSBl1QID
AQABo4GlMIGiMAkGA1UdEwQCMAAwHQYDVR0OBBYEFMgZ7dS1ZzQ+IwXaiQtPH25n
wEaPMFQGA1UdIwRNMEuAFIenxXU3CxRsv0YEjCpS6V3aUdzmoR2kGzAZMRcwFQYD
VQQDDA52cG4uamVua2lucy5pb4IUCAGqbRsxQE97nHVUVHi1NmU7fLMwEwYDVR0l
BAwwCgYIKwYBBQUHAwIwCwYDVR0PBAQDAgeAMA0GCSqGSIb3DQEBCwUAA4ICAQBc
9cQ7fk6ipELC5AvhLqWKt76fRqgmbtpWEiuKBbjK1vNJZ6ev0hq8sm1yYp/d8r/4
Df9ZhfWUBgQ7y1JhCXNw66O+7JakBWlU1tcMF4JSPXA4iDLRl0+L1yLZnGHT86TW
nwXHpd3exSeavNsBUImc0rOBGEwL+qzDZcWoyLu7fGTCCpBWEGR8sKsUbZHJenLk
yGJqUiF+AkiToSUX+s2gcW5USoGQGgzIzUTWkK2NdgzE68dj8hyFLxUUz1ul8gTw
cwN4XIvLttN+sU2nRSFcSiiRCrfh7I8tkm5QiiTPMahHa7SASlJj3vWPgfjxgC18
+22ZFYhSSOCFtqatRBFoebGpf1MIInrqSLoS6jVom53RiL6W7nvryc/ZfAZz459J
TYXv56ah+fvW6K5aMamSoxKJolRPFuwI3qAz3BRQnojiV+uXTyGCafCxQjOS4Q5x
b6VObKi66XRibJG96V+36Sq/6JBoL+cYB0SDg6jBFoeImRQxAyzOhC5hF/gKwYxN
uC8gCRt/ynqp/CJM92UVhnwQqDnEJKBUq9MvV3t7ySBSLM6Q/0mjrlU2PeoZP7Ig
so51DA14fPpUacfrWJud8kSr//xeoVpkQoCATrNFHDYyHaZmCn3YYu11JWJMmlEa
0xEigYFYXbxirOm68qIE30kYcUyI7lf1gpKP5fVnHw==
-----END CERTIFICATE-----
