Certificate:
    Data:
        Version: 3 (0x2)
        Serial Number:
            69:59:23:bf:d5:c1:9f:b3:a6:2e:6b:ea:7d:cb:fa:9a
    Signature Algorithm: sha256WithRSAEncryption
        Issuer: CN=vpn.jenkins.io
        Validity
            Not Before: Dec 13 11:21:08 2021 GMT
            Not After : Nov 27 11:21:08 2024 GMT
        Subject: CN=smerle
        Subject Public Key Info:
            Public Key Algorithm: rsaEncryption
                Public-Key: (4096 bit)
                Modulus:
                    00:ad:60:5c:94:ba:4f:51:d8:bf:42:94:a0:19:a5:
                    04:32:ab:6a:78:6a:8a:59:b1:c8:1b:de:71:a6:fa:
                    fa:ef:d0:8d:a2:cc:49:f9:16:bf:a8:59:b0:dc:b9:
                    c4:c4:70:f3:f5:97:8a:68:1b:8e:13:0f:e3:ec:1c:
                    aa:5d:a5:0c:ed:0d:a4:a9:e1:5a:96:b3:dd:02:71:
                    62:54:9c:d1:51:3b:1c:43:18:03:a9:48:09:cf:98:
                    61:fd:24:4a:e7:ca:b8:3e:25:61:63:80:b5:4c:e3:
                    0f:9c:82:3a:e0:30:41:29:02:97:3a:7a:23:69:fc:
                    be:42:8a:d0:87:74:64:e0:05:bf:fd:23:10:4d:b2:
                    63:c2:9b:90:86:62:fa:3c:d2:58:e5:76:03:11:ff:
                    44:61:88:f9:5e:8d:00:07:38:24:36:96:de:fa:ec:
                    7e:12:e4:a2:87:76:e3:fe:4e:e4:a6:ff:69:69:cb:
                    c7:6a:c9:65:2a:a6:71:33:23:08:4c:2a:b2:b1:c6:
                    a1:92:9f:61:0c:59:e5:a0:e5:7b:c8:41:8e:a5:86:
                    85:25:45:24:ee:78:31:67:38:f6:1b:8b:73:92:0f:
                    7d:bd:72:2e:5e:a8:9a:77:c6:29:f8:e0:6b:d4:43:
                    11:6f:d1:c0:db:fb:25:5c:3f:7e:21:df:0c:ca:b7:
                    50:7d:6f:e1:5a:6c:b3:ef:43:11:e0:bb:3e:b3:c8:
                    ee:25:0f:03:c3:1c:59:aa:5d:61:af:89:cf:5d:72:
                    a7:a5:6d:4e:27:b6:34:62:c5:8a:5f:8e:28:1a:aa:
                    ef:60:a0:7a:a0:bd:55:20:5e:28:4b:2f:56:93:35:
                    8e:9b:68:a8:91:d2:38:e9:0c:e2:21:93:ac:c0:33:
                    34:6d:1b:6b:8f:f1:cb:9e:69:97:a5:17:b9:01:36:
                    9c:48:77:17:47:1b:96:63:b6:10:02:82:4d:7d:36:
                    f2:78:2f:15:79:78:3e:34:11:0f:23:ed:97:4d:ea:
                    69:87:93:0b:79:43:63:35:e1:98:e7:d8:a4:06:9f:
                    a7:53:0d:99:e5:3a:41:13:3b:ae:99:74:68:4e:97:
                    86:50:32:6a:ef:d4:5f:68:27:08:9e:47:f7:3e:cf:
                    62:89:76:c3:9a:c8:18:42:16:65:01:f4:e0:77:93:
                    26:e7:f1:58:9d:5e:a1:26:cc:b6:ba:c0:54:04:27:
                    59:7d:45:b6:03:0b:a7:0e:23:cc:72:ae:4d:96:8c:
                    d6:2d:67:be:a6:5b:da:b0:c5:41:d5:4b:ac:f3:be:
                    f8:bf:2b:54:3b:87:b0:9a:d1:1f:b6:a9:08:21:72:
                    ee:c1:46:38:7e:d2:3d:bf:1a:3e:28:c9:5e:b3:ae:
                    8c:34:5f
                Exponent: 65537 (0x10001)
        X509v3 extensions:
            X509v3 Basic Constraints: 
                CA:FALSE
            X509v3 Subject Key Identifier: 
                F6:71:F7:7F:12:D1:95:C5:1D:AB:EE:3B:45:B5:11:9D:66:9C:E0:0A
            X509v3 Authority Key Identifier: 
                keyid:87:A7:C5:75:37:0B:14:6C:BF:46:04:8C:2A:52:E9:5D:DA:51:DC:E6
                DirName:/CN=vpn.jenkins.io
                serial:08:01:AA:6D:1B:31:40:4F:7B:9C:75:54:54:78:B5:36:65:3B:7C:B3

            X509v3 Extended Key Usage: 
                TLS Web Client Authentication
            X509v3 Key Usage: 
                Digital Signature
    Signature Algorithm: sha256WithRSAEncryption
         5d:3c:b5:8e:29:00:8c:83:67:03:48:c7:78:28:5a:c3:fa:31:
         7a:42:47:f7:f6:88:2d:e0:53:c6:a7:19:6c:1d:c8:0b:17:0e:
         00:bc:76:b5:f8:8b:c9:36:a1:cc:6a:2b:2b:aa:5d:b9:ac:23:
         7f:63:1f:81:a8:d2:b2:7a:14:71:de:7a:65:0c:83:da:6d:b0:
         6e:2c:5a:2e:da:1d:44:f4:e1:36:2c:9b:26:c8:50:13:3d:8d:
         2d:fc:16:e9:be:88:73:aa:d0:a9:1f:da:e3:eb:01:60:c5:93:
         92:23:9b:1a:9f:62:4f:a8:5d:1d:d9:2e:05:7c:db:70:2d:0e:
         9e:dd:3c:31:5b:bd:3a:a0:d6:b8:2e:b9:9f:4e:eb:aa:c3:83:
         2d:54:bc:74:a6:dc:d6:28:fc:4e:b2:47:ab:f3:92:d4:89:f6:
         01:61:1c:07:5a:fb:3d:20:5a:18:ce:0f:bd:b6:38:07:dd:ff:
         04:09:00:81:48:55:ea:c0:2b:50:05:8b:1a:d7:18:ec:94:10:
         41:e2:b6:3e:46:cc:b6:d0:a3:39:e0:70:b0:a5:da:e6:a4:4d:
         0a:69:85:4f:5e:c5:78:b3:0b:31:07:90:11:2f:23:ee:9a:fa:
         e9:04:e2:62:c5:19:61:fc:84:46:79:0f:5d:8d:a7:b2:91:ad:
         1f:ce:a1:3e:79:a1:ac:7d:e0:61:c7:6f:f4:bb:9c:9f:8f:8c:
         b3:48:58:1e:f0:de:4f:2d:33:36:74:2f:b4:89:49:d2:b0:a3:
         ae:3c:9b:82:1c:ad:c2:82:ca:3d:b9:ae:bb:fa:10:8c:bf:86:
         66:42:ef:2b:e3:fe:c6:c7:6a:e0:52:af:64:b0:6e:60:ee:15:
         4f:a0:8f:00:71:ce:92:6a:36:f3:f7:04:f4:09:39:d4:d4:fc:
         80:9d:c1:b2:d5:f6:e3:93:3d:44:c5:68:16:d6:78:5a:17:7d:
         8d:66:33:f0:84:b2:7d:0e:df:18:fd:30:b8:e0:f9:ed:9d:03:
         5d:11:db:c6:e3:31:98:a8:6c:02:96:be:c4:c7:f8:32:45:2a:
         ad:c9:9a:1f:b5:a2:50:60:66:28:35:83:80:89:e3:2b:0f:f7:
         e5:40:ae:73:10:91:b9:9d:6c:61:2b:e9:1f:18:82:ec:fe:dd:
         b2:e4:11:bf:1e:f1:35:08:36:b2:cd:86:7d:e7:b9:8b:c5:52:
         e0:f2:6d:08:ec:e5:3d:43:74:ca:d0:7b:f8:b8:68:4c:5a:6a:
         67:9e:bf:10:dc:91:7a:07:4d:b0:9c:71:b4:8a:a8:aa:7e:7b:
         87:fe:71:d0:20:28:1a:28:87:e7:fe:e8:01:a7:f9:62:60:44:
         e0:b0:d7:c0:a0:9b:c4:40
-----BEGIN CERTIFICATE-----
MIIFWjCCA0KgAwIBAgIQaVkjv9XBn7OmLmvqfcv6mjANBgkqhkiG9w0BAQsFADAZ
MRcwFQYDVQQDDA52cG4uamVua2lucy5pbzAeFw0yMTEyMTMxMTIxMDhaFw0yNDEx
MjcxMTIxMDhaMBExDzANBgNVBAMMBnNtZXJsZTCCAiIwDQYJKoZIhvcNAQEBBQAD
ggIPADCCAgoCggIBAK1gXJS6T1HYv0KUoBmlBDKranhqilmxyBvecab6+u/QjaLM
SfkWv6hZsNy5xMRw8/WXimgbjhMP4+wcql2lDO0NpKnhWpaz3QJxYlSc0VE7HEMY
A6lICc+YYf0kSufKuD4lYWOAtUzjD5yCOuAwQSkClzp6I2n8vkKK0Id0ZOAFv/0j
EE2yY8KbkIZi+jzSWOV2AxH/RGGI+V6NAAc4JDaW3vrsfhLkood24/5O5Kb/aWnL
x2rJZSqmcTMjCEwqsrHGoZKfYQxZ5aDle8hBjqWGhSVFJO54MWc49huLc5IPfb1y
Ll6omnfGKfjga9RDEW/RwNv7JVw/fiHfDMq3UH1v4Vpss+9DEeC7PrPI7iUPA8Mc
WapdYa+Jz11yp6VtTie2NGLFil+OKBqq72CgeqC9VSBeKEsvVpM1jptoqJHSOOkM
4iGTrMAzNG0ba4/xy55pl6UXuQE2nEh3F0cblmO2EAKCTX028ngvFXl4PjQRDyPt
l03qaYeTC3lDYzXhmOfYpAafp1MNmeU6QRM7rpl0aE6XhlAyau/UX2gnCJ5H9z7P
Yol2w5rIGEIWZQH04HeTJufxWJ1eoSbMtrrAVAQnWX1FtgMLpw4jzHKuTZaM1i1n
vqZb2rDFQdVLrPO++L8rVDuHsJrRH7apCCFy7sFGOH7SPb8aPijJXrOujDRfAgMB
AAGjgaUwgaIwCQYDVR0TBAIwADAdBgNVHQ4EFgQU9nH3fxLRlcUdq+47RbURnWac
4AowVAYDVR0jBE0wS4AUh6fFdTcLFGy/RgSMKlLpXdpR3OahHaQbMBkxFzAVBgNV
BAMMDnZwbi5qZW5raW5zLmlvghQIAaptGzFAT3ucdVRUeLU2ZTt8szATBgNVHSUE
DDAKBggrBgEFBQcDAjALBgNVHQ8EBAMCB4AwDQYJKoZIhvcNAQELBQADggIBAF08
tY4pAIyDZwNIx3goWsP6MXpCR/f2iC3gU8anGWwdyAsXDgC8drX4i8k2ocxqKyuq
XbmsI39jH4Go0rJ6FHHeemUMg9ptsG4sWi7aHUT04TYsmybIUBM9jS38Fum+iHOq
0Kkf2uPrAWDFk5IjmxqfYk+oXR3ZLgV823AtDp7dPDFbvTqg1rguuZ9O66rDgy1U
vHSm3NYo/E6yR6vzktSJ9gFhHAda+z0gWhjOD722OAfd/wQJAIFIVerAK1AFixrX
GOyUEEHitj5GzLbQozngcLCl2uakTQpphU9exXizCzEHkBEvI+6a+ukE4mLFGWH8
hEZ5D12Np7KRrR/OoT55oax94GHHb/S7nJ+PjLNIWB7w3k8tMzZ0L7SJSdKwo648
m4IcrcKCyj25rrv6EIy/hmZC7yvj/sbHauBSr2SwbmDuFU+gjwBxzpJqNvP3BPQJ
OdTU/ICdwbLV9uOTPUTFaBbWeFoXfY1mM/CEsn0O3xj9MLjg+e2dA10R28bjMZio
bAKWvsTH+DJFKq3Jmh+1olBgZig1g4CJ4ysP9+VArnMQkbmdbGEr6R8Yguz+3bLk
Eb8e8TUINrLNhn3nuYvFUuDybQjs5T1DdMrQe/i4aExaameevxDckXoHTbCccbSK
qKp+e4f+cdAgKBooh+f+6AGn+WJgROCw18Cgm8RA
-----END CERTIFICATE-----
