Certificate:
    Data:
        Version: 3 (0x2)
        Serial Number:
            e6:0a:ce:fe:f5:2a:f8:e5:83:f7:2c:cc:78:95:16:85
    Signature Algorithm: sha256WithRSAEncryption
        Issuer: CN=vpn.jenkins.io
        Validity
            Not Before: May 18 16:37:48 2022 GMT
            Not After : May  2 16:37:48 2025 GMT
        Subject: CN=vlatombe
        Subject Public Key Info:
            Public Key Algorithm: rsaEncryption
                Public-Key: (4096 bit)
                Modulus:
                    00:ba:0a:58:c4:12:65:ab:53:5b:99:9e:b6:26:57:
                    c8:f9:8f:df:2d:1b:78:d7:14:fc:29:4f:87:b8:93:
                    82:fc:70:e5:49:46:ec:e8:be:f5:12:96:5a:6b:8d:
                    c4:a4:94:a6:7e:0b:c9:78:90:66:6b:99:77:e6:3f:
                    8f:c4:dc:69:80:c1:2c:a6:1a:5d:84:f2:7f:64:50:
                    ed:22:bb:3d:52:7c:49:6b:eb:0e:92:5c:91:19:98:
                    32:71:54:b8:c1:e1:c2:c8:6c:3e:9b:84:5f:2e:fe:
                    02:12:3a:be:cf:5d:66:97:1d:6f:ed:e2:de:86:cb:
                    ba:a5:c4:42:27:3c:47:cb:80:94:23:bd:15:28:ab:
                    2b:78:67:82:3b:00:af:d1:09:c0:16:33:0c:20:21:
                    1f:25:b3:c8:4c:b9:46:fe:81:f1:21:9b:8c:34:bd:
                    d9:e4:c3:3c:3a:ea:49:24:24:15:e6:10:74:5e:ff:
                    e9:8a:a5:2c:76:f2:76:8c:59:46:89:e9:0d:7a:47:
                    f7:30:98:a1:04:1b:9d:d9:fa:b3:83:03:b4:c2:50:
                    bc:ac:1d:62:1e:b8:03:46:96:03:25:2b:00:b5:06:
                    cc:f9:25:aa:29:90:ec:70:79:d2:40:d2:95:09:06:
                    0b:93:40:74:5c:72:39:a2:4a:a8:c0:f6:71:a9:1f:
                    47:72:c1:8d:35:8c:b4:c9:49:e1:05:d8:d2:4d:c8:
                    7e:59:3d:c1:f1:41:ef:03:c4:a0:a9:f0:b7:8e:56:
                    e0:23:75:a1:09:a5:20:e8:66:1e:43:d1:58:b9:9c:
                    f5:d5:71:78:91:ae:1b:55:f2:e3:29:8c:df:87:3c:
                    82:5f:2b:cc:91:59:1e:e9:2b:7d:be:d0:45:77:86:
                    a3:b5:b7:bc:28:2e:9b:73:98:89:5b:66:e7:be:e4:
                    72:2a:ac:15:cf:eb:b6:27:d5:44:2a:82:a9:31:59:
                    a9:17:61:ac:e1:f9:88:71:20:4d:1f:fa:b9:4a:b3:
                    72:cd:51:35:59:7f:d8:d0:b3:23:5f:3f:b7:1e:54:
                    3e:24:78:87:57:a8:80:a2:ba:7a:bb:63:4b:79:47:
                    0b:0f:75:fe:30:60:67:c4:f1:1d:07:1d:8b:34:e8:
                    02:aa:d5:58:df:09:fc:a8:7b:1b:77:9d:2b:40:2b:
                    07:d8:11:b7:8e:fc:b8:28:8e:4d:ae:59:b1:77:01:
                    2f:62:d4:d9:fc:7c:0c:21:77:b0:39:e0:3e:ec:91:
                    8a:61:dd:da:f3:2e:b7:96:c6:30:85:2f:7f:cd:c6:
                    cc:62:a6:d9:96:1a:5d:3b:d9:38:bc:62:ce:dc:3a:
                    0c:d3:f4:53:08:01:7f:0d:6f:49:c4:32:11:4b:f1:
                    5e:d8:cf
                Exponent: 65537 (0x10001)
        X509v3 extensions:
            X509v3 Basic Constraints: 
                CA:FALSE
            X509v3 Subject Key Identifier: 
                5A:49:F1:AD:60:6B:C8:8D:31:0D:78:12:61:6A:F9:1F:2D:0F:B4:70
            X509v3 Authority Key Identifier: 
                keyid:87:A7:C5:75:37:0B:14:6C:BF:46:04:8C:2A:52:E9:5D:DA:51:DC:E6
                DirName:/CN=vpn.jenkins.io
                serial:08:01:AA:6D:1B:31:40:4F:7B:9C:75:54:54:78:B5:36:65:3B:7C:B3

            X509v3 Extended Key Usage: 
                TLS Web Client Authentication
            X509v3 Key Usage: 
                Digital Signature
    Signature Algorithm: sha256WithRSAEncryption
         16:f3:f6:ff:d5:00:6c:75:75:50:27:5c:eb:03:9b:19:eb:e8:
         a8:e8:79:90:11:22:39:6b:07:44:3c:62:25:e6:1a:9f:b4:a9:
         ee:71:0e:9e:53:5f:f6:3b:1f:b9:e5:ec:86:12:1b:01:21:5e:
         c5:cf:ee:9b:9a:ca:d5:53:9b:8a:44:a5:70:5a:db:2f:6f:42:
         66:db:a4:13:c3:e0:d4:16:04:87:68:01:36:97:35:e3:65:0e:
         9f:08:76:fa:e5:4b:42:f0:72:33:af:2f:ad:58:03:7d:3d:d4:
         aa:b1:5a:1f:59:7d:5c:fb:9f:e1:6e:60:7b:d5:99:fb:86:5e:
         7f:78:d8:ca:5d:a5:3d:68:5c:f7:39:8f:93:be:ab:7a:2e:c8:
         01:66:8c:66:2e:b1:c2:c1:2b:b4:02:1a:01:75:da:fd:f3:59:
         83:97:18:c7:69:c3:26:dc:25:98:e6:b8:a1:e5:4a:fc:02:19:
         38:b1:38:c9:50:5b:e2:08:e0:38:45:88:60:c1:fd:96:c8:18:
         fc:6c:a2:ab:ec:7c:e6:f2:35:d9:25:3e:6a:bb:64:33:de:c1:
         d1:a4:ad:81:98:ca:94:91:58:a6:a4:fa:5f:78:e4:18:f4:b2:
         11:15:cd:f6:cc:59:f8:4f:e5:40:7f:b9:53:1a:2b:bc:22:e9:
         0d:fb:40:19:24:99:4b:43:ba:4a:6a:4c:d3:ac:4c:a7:67:dc:
         fe:c9:c0:bc:aa:4b:ca:9e:d1:f3:e2:e0:03:62:ef:ad:96:27:
         cc:29:a4:44:d3:34:39:29:8d:6b:a0:b7:74:0c:ef:53:34:02:
         6a:1d:90:c2:15:df:8a:6f:34:fc:b6:cf:eb:ab:6b:81:77:b8:
         c1:8f:7f:b5:f5:3d:b8:47:a3:c1:1c:0b:13:d4:8a:92:bc:b7:
         5d:8b:0e:bf:3e:b2:20:3f:4c:84:d7:af:dd:76:79:7d:25:1c:
         ea:16:a9:b2:7e:95:eb:5d:bf:e8:11:24:37:cd:a2:5f:50:14:
         ab:78:02:4a:cb:f8:65:59:53:33:15:5b:7a:07:4d:37:d6:34:
         87:9b:79:bd:07:11:19:00:7d:d2:5b:26:47:92:d0:93:1d:e8:
         21:fb:3f:24:78:5f:72:50:e0:bf:fa:94:1c:77:0f:73:45:00:
         fb:59:99:1c:b2:38:c1:95:38:8a:a5:df:ae:a1:df:b9:a0:55:
         79:1b:2e:ca:2f:3a:18:33:c7:cb:c7:18:52:8c:2d:de:a0:36:
         24:cd:61:bd:0a:f7:55:e6:b4:42:ec:de:ac:39:03:4c:fd:28:
         42:e8:8a:ba:4f:b4:f5:85:95:ab:4d:30:5c:10:99:76:b8:17:
         70:40:6e:48:f7:02:ed:e2
-----BEGIN CERTIFICATE-----
MIIFXTCCA0WgAwIBAgIRAOYKzv71Kvjlg/cszHiVFoUwDQYJKoZIhvcNAQELBQAw
GTEXMBUGA1UEAwwOdnBuLmplbmtpbnMuaW8wHhcNMjIwNTE4MTYzNzQ4WhcNMjUw
NTAyMTYzNzQ4WjATMREwDwYDVQQDDAh2bGF0b21iZTCCAiIwDQYJKoZIhvcNAQEB
BQADggIPADCCAgoCggIBALoKWMQSZatTW5metiZXyPmP3y0beNcU/ClPh7iTgvxw
5UlG7Oi+9RKWWmuNxKSUpn4LyXiQZmuZd+Y/j8TcaYDBLKYaXYTyf2RQ7SK7PVJ8
SWvrDpJckRmYMnFUuMHhwshsPpuEXy7+AhI6vs9dZpcdb+3i3obLuqXEQic8R8uA
lCO9FSirK3hngjsAr9EJwBYzDCAhHyWzyEy5Rv6B8SGbjDS92eTDPDrqSSQkFeYQ
dF7/6YqlLHbydoxZRonpDXpH9zCYoQQbndn6s4MDtMJQvKwdYh64A0aWAyUrALUG
zPklqimQ7HB50kDSlQkGC5NAdFxyOaJKqMD2cakfR3LBjTWMtMlJ4QXY0k3Iflk9
wfFB7wPEoKnwt45W4CN1oQmlIOhmHkPRWLmc9dVxeJGuG1Xy4ymM34c8gl8rzJFZ
Hukrfb7QRXeGo7W3vCgum3OYiVtm577kciqsFc/rtifVRCqCqTFZqRdhrOH5iHEg
TR/6uUqzcs1RNVl/2NCzI18/tx5UPiR4h1eogKK6ertjS3lHCw91/jBgZ8TxHQcd
izToAqrVWN8J/Kh7G3edK0ArB9gRt478uCiOTa5ZsXcBL2LU2fx8DCF3sDngPuyR
imHd2vMut5bGMIUvf83GzGKm2ZYaXTvZOLxiztw6DNP0UwgBfw1vScQyEUvxXtjP
AgMBAAGjgaUwgaIwCQYDVR0TBAIwADAdBgNVHQ4EFgQUWknxrWBryI0xDXgSYWr5
Hy0PtHAwVAYDVR0jBE0wS4AUh6fFdTcLFGy/RgSMKlLpXdpR3OahHaQbMBkxFzAV
BgNVBAMMDnZwbi5qZW5raW5zLmlvghQIAaptGzFAT3ucdVRUeLU2ZTt8szATBgNV
HSUEDDAKBggrBgEFBQcDAjALBgNVHQ8EBAMCB4AwDQYJKoZIhvcNAQELBQADggIB
ABbz9v/VAGx1dVAnXOsDmxnr6KjoeZARIjlrB0Q8YiXmGp+0qe5xDp5TX/Y7H7nl
7IYSGwEhXsXP7puaytVTm4pEpXBa2y9vQmbbpBPD4NQWBIdoATaXNeNlDp8Idvrl
S0LwcjOvL61YA3091KqxWh9ZfVz7n+FuYHvVmfuGXn942MpdpT1oXPc5j5O+q3ou
yAFmjGYuscLBK7QCGgF12v3zWYOXGMdpwybcJZjmuKHlSvwCGTixOMlQW+II4DhF
iGDB/ZbIGPxsoqvsfObyNdklPmq7ZDPewdGkrYGYypSRWKak+l945Bj0shEVzfbM
WfhP5UB/uVMaK7wi6Q37QBkkmUtDukpqTNOsTKdn3P7JwLyqS8qe0fPi4ANi762W
J8wppETTNDkpjWugt3QM71M0AmodkMIV34pvNPy2z+ura4F3uMGPf7X1PbhHo8Ec
CxPUipK8t12LDr8+siA/TITXr912eX0lHOoWqbJ+letdv+gRJDfNol9QFKt4AkrL
+GVZUzMVW3oHTTfWNIebeb0HERkAfdJbJkeS0JMd6CH7PyR4X3JQ4L/6lBx3D3NF
APtZmRyyOMGVOIql366h37mgVXkbLsovOhgzx8vHGFKMLd6gNiTNYb0K91XmtELs
3qw5A0z9KELoirpPtPWFlatNMFwQmXa4F3BAbkj3Au3i
-----END CERTIFICATE-----
