Certificate:
    Data:
        Version: 3 (0x2)
        Serial Number:
            f5:a6:7e:c4:99:5d:e4:fb:4b:05:11:bb:f7:15:2b:c5
    Signature Algorithm: sha256WithRSAEncryption
        Issuer: CN=vpn.jenkins.io
        Validity
            Not Before: Feb 28 14:56:58 2022 GMT
            Not After : Feb 12 14:56:58 2025 GMT
        Subject: CN=vpn.jenkins.io
        Subject Public Key Info:
            Public Key Algorithm: rsaEncryption
                Public-Key: (4096 bit)
                Modulus:
                    00:dd:1c:18:38:68:74:ef:ce:e2:a7:6a:fc:ce:35:
                    90:b1:ed:e4:46:57:d8:72:d7:57:1f:2d:59:2f:48:
                    6e:f1:0a:d4:fb:45:84:ba:e4:cc:bf:c0:36:ee:fd:
                    2e:79:79:75:02:4d:ac:e1:e5:ac:00:89:79:fe:a2:
                    14:b8:1c:6c:5e:a0:fb:09:45:75:b2:bc:40:27:c1:
                    20:1d:b1:ed:53:ba:48:08:5c:96:de:1e:b5:18:98:
                    fb:41:81:aa:64:69:a4:3a:cb:25:5b:39:02:a8:1c:
                    5c:13:b9:9d:fa:f4:2c:2c:46:ff:b7:d6:3f:05:24:
                    c7:dd:3b:c2:1e:1d:42:ec:5e:58:62:78:98:c9:6f:
                    26:ff:9a:1e:a1:28:30:60:8b:4f:7b:94:6e:72:cc:
                    d0:03:93:e0:50:41:d5:d3:7c:31:81:bf:96:28:04:
                    54:2f:cb:35:b8:68:7c:df:5c:c6:46:6a:55:6d:20:
                    59:cb:ac:43:79:c9:14:9c:85:1d:2f:aa:5c:58:2e:
                    bd:50:bf:29:80:06:b7:29:58:62:5b:1c:ad:15:60:
                    a0:12:42:6a:d9:85:e8:9c:24:b8:26:1c:87:6e:d6:
                    36:8f:a9:35:cd:a1:b0:5d:59:60:01:cd:04:72:40:
                    18:82:ee:6c:5a:89:27:5f:a8:19:32:94:fa:3f:e1:
                    12:6b:c9:3d:0c:10:40:04:d4:bd:f1:18:89:07:40:
                    4e:d0:f8:6d:fc:a3:6a:36:03:4e:63:46:9b:3e:47:
                    8b:b2:5f:89:e5:da:c5:86:d3:a9:9d:af:eb:d1:34:
                    3f:4a:1d:3e:75:80:69:6f:b5:77:61:cb:10:99:55:
                    77:b2:c5:3c:56:60:a0:e1:fc:7f:38:79:0f:dc:cc:
                    3b:12:cc:a0:44:e0:ec:da:14:b7:18:75:90:4e:bd:
                    59:62:9e:5a:f3:8b:9f:8d:79:27:8b:86:a5:38:a9:
                    87:43:60:26:38:df:86:fd:11:11:dd:38:5b:d7:5f:
                    37:78:23:b0:3d:fa:7d:24:e2:d3:04:eb:3a:21:21:
                    21:7e:4c:c2:aa:49:2b:e2:36:91:cc:ed:02:18:f5:
                    74:71:36:d5:f9:9d:d4:d3:d3:84:f0:ec:3c:15:83:
                    a7:74:ef:85:a1:44:dc:9e:4b:8e:ac:cc:01:46:33:
                    c9:ca:6c:2d:ba:48:45:f8:20:c2:ff:9e:1f:ad:90:
                    82:a3:ea:57:08:0d:94:56:47:6d:8b:34:bc:81:91:
                    0c:d1:55:8a:da:78:b3:fe:a4:b8:3d:9d:a5:5c:96:
                    87:c8:6a:f7:0f:a0:cd:1a:8f:f5:39:34:3c:4a:34:
                    06:38:5c:d7:f0:f8:1d:49:63:b0:d9:99:9a:e1:aa:
                    22:2f:59
                Exponent: 65537 (0x10001)
        X509v3 extensions:
            X509v3 Basic Constraints: 
                CA:FALSE
            X509v3 Subject Key Identifier: 
                4D:43:BB:B8:E5:5A:F7:5B:DF:41:4A:45:88:CA:69:85:BA:13:4C:FF
            X509v3 Authority Key Identifier: 
                keyid:87:A7:C5:75:37:0B:14:6C:BF:46:04:8C:2A:52:E9:5D:DA:51:DC:E6
                DirName:/CN=vpn.jenkins.io
                serial:08:01:AA:6D:1B:31:40:4F:7B:9C:75:54:54:78:B5:36:65:3B:7C:B3

            X509v3 Extended Key Usage: 
                TLS Web Server Authentication
            X509v3 Key Usage: 
                Digital Signature, Key Encipherment
            X509v3 Subject Alternative Name: 
                DNS:vpn.jenkins.io
    Signature Algorithm: sha256WithRSAEncryption
         7e:38:fa:0f:89:24:1b:10:9e:c3:89:8f:06:fd:6c:bd:db:34:
         06:c0:6f:7e:c7:f2:60:5f:15:9d:8b:57:c3:78:4b:3e:41:a0:
         66:ac:5c:a3:e1:b3:4d:a5:e3:e0:af:2d:0a:df:88:14:60:e6:
         dc:47:45:c3:ba:16:c9:20:65:43:34:2c:f4:47:b7:aa:38:5e:
         9f:a2:d1:10:ed:7a:7a:33:3a:d3:1c:56:ee:a9:01:d3:3c:f4:
         83:66:9d:10:99:75:3b:fe:b5:a2:21:89:0b:39:64:9b:ce:ea:
         30:22:c2:ba:23:48:f0:75:80:23:f4:e1:65:03:53:0a:9a:39:
         9c:02:e6:ef:53:f4:4f:41:09:9f:78:7e:db:b0:cf:bb:4a:fd:
         67:22:fe:a1:58:b5:fa:0d:c4:c6:be:a3:45:fc:11:1a:84:18:
         78:26:7a:81:dc:ee:50:b4:88:07:2b:b6:90:6a:c7:81:cb:67:
         bb:f7:cd:98:16:39:a4:75:6c:00:dd:0e:32:d6:62:d3:b6:2c:
         03:0a:9d:7d:49:c6:3c:97:dc:81:c1:19:24:75:1e:ab:b8:82:
         80:fd:5b:5e:67:06:42:21:3b:e0:1c:fe:5f:a9:84:f0:a0:7e:
         38:45:6b:56:4a:63:8d:40:1d:ca:f9:a3:6f:e3:b2:00:b1:ff:
         a4:09:c0:42:a6:86:4d:42:5a:37:a8:5b:57:36:83:f1:a8:b5:
         a8:d5:07:4d:dd:c0:e8:5c:bc:9f:92:3a:72:b3:86:01:30:c5:
         f3:cb:ff:3e:1f:18:f2:9c:bb:60:5d:09:35:e8:69:4b:d0:e6:
         80:48:7b:2b:1c:31:19:88:43:c9:0e:4f:48:1a:cc:68:33:a3:
         d8:3e:72:2b:11:cc:0a:65:2a:47:f9:3b:3e:3b:8a:b3:87:3a:
         6a:1d:a5:de:9b:d8:05:72:d7:de:1d:05:81:c5:91:fe:1c:cc:
         82:59:2b:d6:fd:e4:78:e6:4c:92:86:db:9f:9e:b1:86:99:cb:
         90:71:00:fa:30:c8:57:23:cf:0d:2e:11:13:83:d2:0c:77:36:
         85:a3:88:76:06:58:cc:7f:ab:cf:b6:92:de:19:f1:1d:cb:4c:
         54:c8:f1:20:47:9a:5c:56:28:3c:16:99:41:dc:cd:41:a0:ca:
         4f:3a:fb:e7:8b:38:8a:f9:ce:ff:75:42:cd:ad:26:a7:f6:aa:
         3c:bc:50:3d:b5:b8:16:5d:d0:3c:ee:05:57:0c:38:ca:52:65:
         c0:8f:5c:2d:18:1a:91:e8:a9:c1:4e:c0:5e:e2:b6:ce:ae:ee:
         21:44:ac:68:3e:5f:94:3a:04:5a:60:43:07:03:4f:65:67:42:
         25:f3:d3:c0:f6:86:e9:57
-----BEGIN CERTIFICATE-----
MIIFfjCCA2agAwIBAgIRAPWmfsSZXeT7SwURu/cVK8UwDQYJKoZIhvcNAQELBQAw
GTEXMBUGA1UEAwwOdnBuLmplbmtpbnMuaW8wHhcNMjIwMjI4MTQ1NjU4WhcNMjUw
MjEyMTQ1NjU4WjAZMRcwFQYDVQQDDA52cG4uamVua2lucy5pbzCCAiIwDQYJKoZI
hvcNAQEBBQADggIPADCCAgoCggIBAN0cGDhodO/O4qdq/M41kLHt5EZX2HLXVx8t
WS9IbvEK1PtFhLrkzL/ANu79Lnl5dQJNrOHlrACJef6iFLgcbF6g+wlFdbK8QCfB
IB2x7VO6SAhclt4etRiY+0GBqmRppDrLJVs5AqgcXBO5nfr0LCxG/7fWPwUkx907
wh4dQuxeWGJ4mMlvJv+aHqEoMGCLT3uUbnLM0AOT4FBB1dN8MYG/ligEVC/LNbho
fN9cxkZqVW0gWcusQ3nJFJyFHS+qXFguvVC/KYAGtylYYlscrRVgoBJCatmF6Jwk
uCYch27WNo+pNc2hsF1ZYAHNBHJAGILubFqJJ1+oGTKU+j/hEmvJPQwQQATUvfEY
iQdATtD4bfyjajYDTmNGmz5Hi7JfieXaxYbTqZ2v69E0P0odPnWAaW+1d2HLEJlV
d7LFPFZgoOH8fzh5D9zMOxLMoETg7NoUtxh1kE69WWKeWvOLn415J4uGpTiph0Ng
Jjjfhv0REd04W9dfN3gjsD36fSTi0wTrOiEhIX5MwqpJK+I2kcztAhj1dHE21fmd
1NPThPDsPBWDp3TvhaFE3J5LjqzMAUYzycpsLbpIRfggwv+eH62QgqPqVwgNlFZH
bYs0vIGRDNFVitp4s/6kuD2dpVyWh8hq9w+gzRqP9Tk0PEo0Bjhc1/D4HUljsNmZ
muGqIi9ZAgMBAAGjgcAwgb0wCQYDVR0TBAIwADAdBgNVHQ4EFgQUTUO7uOVa91vf
QUpFiMpphboTTP8wVAYDVR0jBE0wS4AUh6fFdTcLFGy/RgSMKlLpXdpR3OahHaQb
MBkxFzAVBgNVBAMMDnZwbi5qZW5raW5zLmlvghQIAaptGzFAT3ucdVRUeLU2ZTt8
szATBgNVHSUEDDAKBggrBgEFBQcDATALBgNVHQ8EBAMCBaAwGQYDVR0RBBIwEIIO
dnBuLmplbmtpbnMuaW8wDQYJKoZIhvcNAQELBQADggIBAH44+g+JJBsQnsOJjwb9
bL3bNAbAb37H8mBfFZ2LV8N4Sz5BoGasXKPhs02l4+CvLQrfiBRg5txHRcO6Fskg
ZUM0LPRHt6o4Xp+i0RDtenozOtMcVu6pAdM89INmnRCZdTv+taIhiQs5ZJvO6jAi
wrojSPB1gCP04WUDUwqaOZwC5u9T9E9BCZ94ftuwz7tK/Wci/qFYtfoNxMa+o0X8
ERqEGHgmeoHc7lC0iAcrtpBqx4HLZ7v3zZgWOaR1bADdDjLWYtO2LAMKnX1JxjyX
3IHBGSR1Hqu4goD9W15nBkIhO+Ac/l+phPCgfjhFa1ZKY41AHcr5o2/jsgCx/6QJ
wEKmhk1CWjeoW1c2g/GotajVB03dwOhcvJ+SOnKzhgEwxfPL/z4fGPKcu2BdCTXo
aUvQ5oBIeyscMRmIQ8kOT0gazGgzo9g+cisRzAplKkf5Oz47irOHOmodpd6b2AVy
194dBYHFkf4czIJZK9b95HjmTJKG25+esYaZy5BxAPowyFcjzw0uEROD0gx3NoWj
iHYGWMx/q8+2kt4Z8R3LTFTI8SBHmlxWKDwWmUHczUGgyk86++eLOIr5zv91Qs2t
Jqf2qjy8UD21uBZd0DzuBVcMOMpSZcCPXC0YGpHoqcFOwF7its6u7iFErGg+X5Q6
BFpgQwcDT2VnQiXz08D2hulX
-----END CERTIFICATE-----
