Certificate:
    Data:
        Version: 3 (0x2)
        Serial Number:
            5c:96:a0:93:c1:8a:e7:e2:05:de:c8:f4:d8:71:54:d9
        Signature Algorithm: sha256WithRSAEncryption
        Issuer: CN=vpn.jenkins.io
        Validity
            Not Before: Mar 14 16:03:25 2019 GMT
            Not After : Feb 26 16:03:25 2022 GMT
        Subject: CN=vpn.jenkins.io
        Subject Public Key Info:
            Public Key Algorithm: rsaEncryption
                RSA Public-Key: (4096 bit)
                Modulus:
                    00:ab:56:ec:19:c8:f4:8a:27:06:44:a8:17:76:bb:
                    ed:1a:8a:89:e1:63:eb:fb:d6:a6:ac:e6:19:02:f5:
                    5e:fd:ae:a8:55:98:c3:7b:e2:f5:d0:ad:03:ec:9e:
                    18:1d:6b:fe:fe:7b:6f:38:24:a2:1f:d2:61:ca:1c:
                    8d:4d:63:37:3c:93:64:7d:c1:d7:fb:1f:5e:d3:6d:
                    29:eb:1e:f4:55:90:7b:37:0c:97:a2:8a:a6:48:d7:
                    b1:1e:cd:60:a2:bc:a4:0f:9a:a8:82:cf:dd:f6:fd:
                    90:bf:22:39:8c:1b:a3:af:a3:bf:e8:44:77:9a:10:
                    08:49:71:3d:a5:f5:07:bb:72:68:ef:8d:fe:45:00:
                    47:b7:82:ad:58:8e:2b:f6:82:2f:df:26:47:51:23:
                    f9:c8:74:c9:8d:36:37:c0:4b:29:19:79:86:0d:20:
                    f6:44:8b:7f:27:88:ff:c1:42:7a:7f:cd:a1:29:73:
                    6d:6e:58:d8:b9:01:a6:5a:ee:32:d1:17:c1:ac:a3:
                    6a:2a:b7:3e:63:29:96:13:0f:11:b6:ad:19:ac:67:
                    67:09:29:1b:34:ea:80:4a:f0:65:5e:cc:16:11:85:
                    fd:8b:da:34:46:5d:40:8e:af:07:22:3a:15:46:07:
                    6d:cb:42:a1:2a:2c:a6:87:7d:54:1d:f8:ac:9e:91:
                    bb:48:61:8b:41:de:9f:dc:e8:04:33:bf:54:7e:3a:
                    53:ca:6a:fb:f5:af:ca:dc:5c:f5:0d:03:cd:c5:ec:
                    3c:bc:03:85:4a:3d:66:7f:3f:ef:23:3b:ee:fd:bc:
                    c5:40:bd:68:f0:2b:eb:ba:b1:1e:57:e3:59:a4:4e:
                    ec:92:35:87:7b:d1:b3:64:69:8e:b0:1c:36:93:39:
                    38:90:fe:bb:18:36:44:f6:dc:0e:9a:27:9b:b1:bb:
                    d8:a2:55:29:19:1a:66:b8:9b:07:7d:e1:31:18:83:
                    f6:bf:e4:7f:56:18:89:e0:25:f7:d9:be:5c:42:9f:
                    91:2a:c2:fe:2f:37:1f:ae:22:01:00:e3:61:63:b9:
                    ed:58:5e:33:3a:e7:34:d3:a8:62:fa:a9:43:ee:94:
                    76:23:85:fe:3d:61:ab:01:7c:dd:f8:81:f8:19:6b:
                    5b:af:16:c3:ec:90:4e:2c:0a:b4:09:9d:a1:fe:60:
                    e6:74:89:66:cb:19:22:9a:d4:cc:60:77:10:46:69:
                    20:47:24:b5:9f:52:53:ad:01:23:18:3b:8b:4b:83:
                    3b:0f:23:c2:ba:ef:e1:55:17:71:c0:94:f3:bf:20:
                    1b:b3:70:ba:45:2e:be:2d:7e:1e:0d:5b:aa:04:6a:
                    ea:02:a7:13:7a:0b:9e:d8:45:05:9f:c3:dc:6c:c1:
                    e2:84:4f
                Exponent: 65537 (0x10001)
        X509v3 extensions:
            X509v3 Basic Constraints: 
                CA:FALSE
            X509v3 Subject Key Identifier: 
                AE:B6:D9:7B:02:5B:90:39:6A:49:15:17:D6:BA:96:7D:C3:A7:48:86
            X509v3 Authority Key Identifier: 
                keyid:87:A7:C5:75:37:0B:14:6C:BF:46:04:8C:2A:52:E9:5D:DA:51:DC:E6
                DirName:/CN=vpn.jenkins.io
                serial:08:01:AA:6D:1B:31:40:4F:7B:9C:75:54:54:78:B5:36:65:3B:7C:B3

            X509v3 Extended Key Usage: 
                TLS Web Server Authentication
            X509v3 Key Usage: 
                Digital Signature, Key Encipherment
            X509v3 Subject Alternative Name: 
                DNS:vpn.jenkins.io
    Signature Algorithm: sha256WithRSAEncryption
         2d:86:0b:77:6c:f4:fd:0e:e4:a1:19:51:af:48:1a:e7:85:ac:
         86:68:9f:57:0b:04:75:fc:a5:08:10:ad:d4:af:9b:87:d7:c3:
         87:a7:57:bf:9c:32:65:3c:17:52:9c:df:ca:c0:0d:db:ba:78:
         f5:8c:70:dd:37:00:d9:73:61:36:e5:f4:8b:c0:89:4e:17:6d:
         4b:2c:05:f1:7b:22:1b:c4:b3:4d:97:bc:79:53:aa:ac:1c:91:
         a7:8f:cd:93:99:cb:12:a8:dd:f8:66:f6:e3:ef:ae:cc:68:5b:
         77:69:11:90:04:94:9d:7e:64:8b:0f:f2:c5:a3:ed:b0:ff:78:
         27:05:73:71:bd:be:c2:f8:b8:64:4a:0e:f9:f3:13:33:57:e3:
         73:8a:b7:25:38:c1:81:93:e0:e7:ee:61:e1:32:b7:61:e6:fe:
         b4:73:1f:23:7d:46:4b:a3:0a:b9:87:93:e3:ad:40:3c:d8:46:
         4e:e8:9d:b6:46:a2:a3:b6:dc:6f:8a:09:9c:14:37:03:80:60:
         ed:17:70:3a:c3:d6:7e:08:26:32:d2:d1:27:0a:a8:17:a3:c9:
         6d:74:57:65:25:09:67:5a:62:94:b8:00:3f:73:1e:d9:ff:8f:
         38:4f:8c:23:b2:93:bf:89:ff:ad:75:0a:85:8f:e9:85:ce:51:
         85:32:7e:f5:1b:9e:49:d3:26:ba:c4:99:95:51:6c:26:83:48:
         42:09:3b:2c:38:00:4a:7b:ce:73:cf:57:6b:2f:4f:2a:f7:3d:
         77:22:02:49:6c:62:77:e5:97:4e:45:b9:29:51:9a:80:92:b1:
         08:56:86:ab:28:94:7b:82:24:50:8f:60:aa:b9:b7:d5:9f:a4:
         01:93:3d:54:fb:fa:f7:df:30:30:4b:51:da:29:39:38:0a:7f:
         52:45:ed:b4:f7:83:45:2b:85:11:7e:84:d5:f9:b3:68:93:ec:
         91:1c:55:50:d3:65:cb:22:9b:02:0c:0e:83:3f:ff:11:cb:59:
         4d:96:71:a1:79:0f:45:c3:d2:75:69:90:f3:8d:26:5e:18:ba:
         d2:35:3b:68:c5:12:c8:25:21:64:06:2c:9c:68:d6:de:a9:e9:
         a1:4e:a4:66:46:69:86:de:8b:52:b1:28:9e:49:54:cb:7c:0f:
         fa:8f:92:2a:30:f9:e6:d2:90:28:a6:f0:97:2d:c4:d4:0f:86:
         7e:b8:06:22:9a:5c:b9:a0:49:d0:f6:3b:41:9e:51:8f:b3:0a:
         07:a8:59:83:10:36:3e:0b:be:a3:f7:a9:21:8b:86:43:21:38:
         1d:28:4d:6b:1d:5f:a0:d7:af:b2:36:eb:33:7e:bd:aa:ae:80:
         10:f6:1f:d0:a0:47:7b:ed
-----BEGIN CERTIFICATE-----
MIIFfTCCA2WgAwIBAgIQXJagk8GK5+IF3sj02HFU2TANBgkqhkiG9w0BAQsFADAZ
MRcwFQYDVQQDDA52cG4uamVua2lucy5pbzAeFw0xOTAzMTQxNjAzMjVaFw0yMjAy
MjYxNjAzMjVaMBkxFzAVBgNVBAMMDnZwbi5qZW5raW5zLmlvMIICIjANBgkqhkiG
9w0BAQEFAAOCAg8AMIICCgKCAgEAq1bsGcj0iicGRKgXdrvtGoqJ4WPr+9amrOYZ
AvVe/a6oVZjDe+L10K0D7J4YHWv+/ntvOCSiH9JhyhyNTWM3PJNkfcHX+x9e020p
6x70VZB7NwyXooqmSNexHs1gorykD5qogs/d9v2QvyI5jBujr6O/6ER3mhAISXE9
pfUHu3Jo743+RQBHt4KtWI4r9oIv3yZHUSP5yHTJjTY3wEspGXmGDSD2RIt/J4j/
wUJ6f82hKXNtbljYuQGmWu4y0RfBrKNqKrc+YymWEw8Rtq0ZrGdnCSkbNOqASvBl
XswWEYX9i9o0Rl1Ajq8HIjoVRgdty0KhKiymh31UHfisnpG7SGGLQd6f3OgEM79U
fjpTymr79a/K3Fz1DQPNxew8vAOFSj1mfz/vIzvu/bzFQL1o8CvrurEeV+NZpE7s
kjWHe9GzZGmOsBw2kzk4kP67GDZE9twOmiebsbvYolUpGRpmuJsHfeExGIP2v+R/
VhiJ4CX32b5cQp+RKsL+LzcfriIBAONhY7ntWF4zOuc006hi+qlD7pR2I4X+PWGr
AXzd+IH4GWtbrxbD7JBOLAq0CZ2h/mDmdIlmyxkimtTMYHcQRmkgRyS1n1JTrQEj
GDuLS4M7DyPCuu/hVRdxwJTzvyAbs3C6RS6+LX4eDVuqBGrqAqcTegue2EUFn8Pc
bMHihE8CAwEAAaOBwDCBvTAJBgNVHRMEAjAAMB0GA1UdDgQWBBSuttl7AluQOWpJ
FRfWupZ9w6dIhjBUBgNVHSMETTBLgBSHp8V1NwsUbL9GBIwqUuld2lHc5qEdpBsw
GTEXMBUGA1UEAwwOdnBuLmplbmtpbnMuaW+CFAgBqm0bMUBPe5x1VFR4tTZlO3yz
MBMGA1UdJQQMMAoGCCsGAQUFBwMBMAsGA1UdDwQEAwIFoDAZBgNVHREEEjAQgg52
cG4uamVua2lucy5pbzANBgkqhkiG9w0BAQsFAAOCAgEALYYLd2z0/Q7koRlRr0ga
54WshmifVwsEdfylCBCt1K+bh9fDh6dXv5wyZTwXUpzfysAN27p49Yxw3TcA2XNh
NuX0i8CJThdtSywF8XsiG8SzTZe8eVOqrByRp4/Nk5nLEqjd+Gb24++uzGhbd2kR
kASUnX5kiw/yxaPtsP94JwVzcb2+wvi4ZEoO+fMTM1fjc4q3JTjBgZPg5+5h4TK3
Yeb+tHMfI31GS6MKuYeT461APNhGTuidtkaio7bcb4oJnBQ3A4Bg7RdwOsPWfggm
MtLRJwqoF6PJbXRXZSUJZ1pilLgAP3Me2f+POE+MI7KTv4n/rXUKhY/phc5RhTJ+
9RueSdMmusSZlVFsJoNIQgk7LDgASnvOc89Xay9PKvc9dyICSWxid+WXTkW5KVGa
gJKxCFaGqyiUe4IkUI9gqrm31Z+kAZM9VPv6998wMEtR2ik5OAp/UkXttPeDRSuF
EX6E1fmzaJPskRxVUNNlyyKbAgwOgz//EctZTZZxoXkPRcPSdWmQ840mXhi60jU7
aMUSyCUhZAYsnGjW3qnpoU6kZkZpht6LUrEonklUy3wP+o+SKjD55tKQKKbwly3E
1A+GfrgGIppcuaBJ0PY7QZ5Rj7MKB6hZgxA2Pgu+o/epIYuGQyE4HShNax1foNev
sjbrM369qq6AEPYf0KBHe+0=
-----END CERTIFICATE-----
